
Main.elf:     file format elf32-littlearm

Sections:
Idx Name          Size      VMA       LMA       File off  Algn
  0 .text         00006fb4  00002000  00002000  00002000  2**3
                  CONTENTS, ALLOC, LOAD, READONLY, CODE
  1 .ARM.exidx    00000008  00008fb4  00008fb4  00008fb4  2**2
                  CONTENTS, ALLOC, LOAD, READONLY, DATA
  2 .relocate     000009b0  20000000  00008fbc  00010000  2**3
                  CONTENTS, ALLOC, LOAD, DATA
  3 .bss          0000007c  200009b0  0000996c  000109b0  2**2
                  ALLOC
  4 .stack        00002004  20000a2c  000099e8  000109b0  2**0
                  ALLOC
  5 .ARM.attributes 00000028  00000000  00000000  000109b0  2**0
                  CONTENTS, READONLY
  6 .comment      00000059  00000000  00000000  000109d8  2**0
                  CONTENTS, READONLY
  7 .debug_info   00011732  00000000  00000000  00010a31  2**0
                  CONTENTS, READONLY, DEBUGGING
  8 .debug_abbrev 00000f4d  00000000  00000000  00022163  2**0
                  CONTENTS, READONLY, DEBUGGING
  9 .debug_loc    00000b1d  00000000  00000000  000230b0  2**0
                  CONTENTS, READONLY, DEBUGGING
 10 .debug_aranges 000001b8  00000000  00000000  00023bcd  2**0
                  CONTENTS, READONLY, DEBUGGING
 11 .debug_ranges 00000150  00000000  00000000  00023d85  2**0
                  CONTENTS, READONLY, DEBUGGING
 12 .debug_macro  00012e42  00000000  00000000  00023ed5  2**0
                  CONTENTS, READONLY, DEBUGGING
 13 .debug_line   000038db  00000000  00000000  00036d17  2**0
                  CONTENTS, READONLY, DEBUGGING
 14 .debug_str    0007437e  00000000  00000000  0003a5f2  2**0
                  CONTENTS, READONLY, DEBUGGING
 15 .debug_frame  00000f68  00000000  00000000  000ae970  2**2
                  CONTENTS, READONLY, DEBUGGING

Disassembly of section .text:

00002000 <exception_table>:
    2000:	30 2a 00 20 09 26 00 00 05 26 00 00 05 26 00 00     0*. .&...&...&..
	...
    202c:	05 26 00 00 00 00 00 00 00 00 00 00 05 26 00 00     .&...........&..
    203c:	05 26 00 00 05 26 00 00 05 26 00 00 05 26 00 00     .&...&...&...&..
    204c:	05 26 00 00 05 26 00 00 05 26 00 00 05 26 00 00     .&...&...&...&..
    205c:	05 26 00 00 05 26 00 00 05 26 00 00 05 26 00 00     .&...&...&...&..
    206c:	05 26 00 00 05 26 00 00 05 26 00 00 05 26 00 00     .&...&...&...&..
    207c:	05 26 00 00 05 26 00 00 05 26 00 00 05 26 00 00     .&...&...&...&..
    208c:	05 26 00 00 05 26 00 00 05 26 00 00 05 26 00 00     .&...&...&...&..
    209c:	05 26 00 00 05 26 00 00 05 26 00 00 05 26 00 00     .&...&...&...&..
    20ac:	05 26 00 00 00 00 00 00                             .&......

000020b4 <__do_global_dtors_aux>:
    20b4:	b510      	push	{r4, lr}
    20b6:	4c06      	ldr	r4, [pc, #24]	; (20d0 <__do_global_dtors_aux+0x1c>)
    20b8:	7823      	ldrb	r3, [r4, #0]
    20ba:	2b00      	cmp	r3, #0
    20bc:	d107      	bne.n	20ce <__do_global_dtors_aux+0x1a>
    20be:	4b05      	ldr	r3, [pc, #20]	; (20d4 <__do_global_dtors_aux+0x20>)
    20c0:	2b00      	cmp	r3, #0
    20c2:	d002      	beq.n	20ca <__do_global_dtors_aux+0x16>
    20c4:	4804      	ldr	r0, [pc, #16]	; (20d8 <__do_global_dtors_aux+0x24>)
    20c6:	e000      	b.n	20ca <__do_global_dtors_aux+0x16>
    20c8:	bf00      	nop
    20ca:	2301      	movs	r3, #1
    20cc:	7023      	strb	r3, [r4, #0]
    20ce:	bd10      	pop	{r4, pc}
    20d0:	200009b0 	.word	0x200009b0
    20d4:	00000000 	.word	0x00000000
    20d8:	00008fbc 	.word	0x00008fbc

000020dc <frame_dummy>:
    20dc:	4b08      	ldr	r3, [pc, #32]	; (2100 <frame_dummy+0x24>)
    20de:	b510      	push	{r4, lr}
    20e0:	2b00      	cmp	r3, #0
    20e2:	d003      	beq.n	20ec <frame_dummy+0x10>
    20e4:	4907      	ldr	r1, [pc, #28]	; (2104 <frame_dummy+0x28>)
    20e6:	4808      	ldr	r0, [pc, #32]	; (2108 <frame_dummy+0x2c>)
    20e8:	e000      	b.n	20ec <frame_dummy+0x10>
    20ea:	bf00      	nop
    20ec:	4807      	ldr	r0, [pc, #28]	; (210c <frame_dummy+0x30>)
    20ee:	6803      	ldr	r3, [r0, #0]
    20f0:	2b00      	cmp	r3, #0
    20f2:	d100      	bne.n	20f6 <frame_dummy+0x1a>
    20f4:	bd10      	pop	{r4, pc}
    20f6:	4b06      	ldr	r3, [pc, #24]	; (2110 <frame_dummy+0x34>)
    20f8:	2b00      	cmp	r3, #0
    20fa:	d0fb      	beq.n	20f4 <frame_dummy+0x18>
    20fc:	4798      	blx	r3
    20fe:	e7f9      	b.n	20f4 <frame_dummy+0x18>
    2100:	00000000 	.word	0x00000000
    2104:	200009b4 	.word	0x200009b4
    2108:	00008fbc 	.word	0x00008fbc
    210c:	00008fbc 	.word	0x00008fbc
    2110:	00000000 	.word	0x00000000

00002114 <adc_init>:
 *
 ******************************************************************************/
void adc_init(void)
{
	// Enable APBC clock for ADC
	REG_PM_APBCMASK |= PM_APBCMASK_ADC;
    2114:	4a21      	ldr	r2, [pc, #132]	; (219c <adc_init+0x88>)
    2116:	6811      	ldr	r1, [r2, #0]
    2118:	2380      	movs	r3, #128	; 0x80
    211a:	025b      	lsls	r3, r3, #9
    211c:	430b      	orrs	r3, r1
    211e:	6013      	str	r3, [r2, #0]
	while (!(REG_PM_APBCMASK & PM_APBCMASK_ADC));
    2120:	4b1e      	ldr	r3, [pc, #120]	; (219c <adc_init+0x88>)
    2122:	681b      	ldr	r3, [r3, #0]
    2124:	03db      	lsls	r3, r3, #15
    2126:	d5fb      	bpl.n	2120 <adc_init+0xc>

	// Assign clock source to ADC
	GCLK->CLKCTRL.reg = GCLK_CLKCTRL_ID_ADC | GCLK_CLKCTRL_GEN_GCLK0 | GCLK_CLKCTRL_CLKEN;
    2128:	4a1d      	ldr	r2, [pc, #116]	; (21a0 <adc_init+0x8c>)
    212a:	4b1e      	ldr	r3, [pc, #120]	; (21a4 <adc_init+0x90>)
    212c:	805a      	strh	r2, [r3, #2]
	while (GCLK->STATUS.bit.SYNCBUSY);
    212e:	4b1d      	ldr	r3, [pc, #116]	; (21a4 <adc_init+0x90>)
    2130:	785b      	ldrb	r3, [r3, #1]
    2132:	09db      	lsrs	r3, r3, #7
    2134:	d1fb      	bne.n	212e <adc_init+0x1a>

	// Reset ADC
	ADC->CTRLA.reg = ADC_CTRLA_SWRST;
    2136:	2201      	movs	r2, #1
    2138:	4b1b      	ldr	r3, [pc, #108]	; (21a8 <adc_init+0x94>)
    213a:	701a      	strb	r2, [r3, #0]
	while (ADC->CTRLA.bit.SWRST || ADC->STATUS.bit.SYNCBUSY); // Wait for reset and sync to complete
    213c:	4b1a      	ldr	r3, [pc, #104]	; (21a8 <adc_init+0x94>)
    213e:	781b      	ldrb	r3, [r3, #0]
    2140:	07db      	lsls	r3, r3, #31
    2142:	d4fb      	bmi.n	213c <adc_init+0x28>
    2144:	4b18      	ldr	r3, [pc, #96]	; (21a8 <adc_init+0x94>)
    2146:	7e5b      	ldrb	r3, [r3, #25]
    2148:	09db      	lsrs	r3, r3, #7
    214a:	d1f7      	bne.n	213c <adc_init+0x28>

	// Load calibration data
	ADC->CALIB.reg = ADC_CALIB_BIAS_CAL((*(uint32_t *)ADC_FUSES_BIASCAL_ADDR >> ADC_FUSES_BIASCAL_Pos)) |
    214c:	4b17      	ldr	r3, [pc, #92]	; (21ac <adc_init+0x98>)
    214e:	681b      	ldr	r3, [r3, #0]
    2150:	08db      	lsrs	r3, r3, #3
    2152:	021b      	lsls	r3, r3, #8
    2154:	22e0      	movs	r2, #224	; 0xe0
    2156:	00d2      	lsls	r2, r2, #3
    2158:	4013      	ands	r3, r2
	ADC_CALIB_LINEARITY_CAL((*(uint64_t *)ADC_FUSES_LINEARITY_0_ADDR >> ADC_FUSES_LINEARITY_0_Pos));
    215a:	4915      	ldr	r1, [pc, #84]	; (21b0 <adc_init+0x9c>)
    215c:	680a      	ldr	r2, [r1, #0]
    215e:	6849      	ldr	r1, [r1, #4]
    2160:	0149      	lsls	r1, r1, #5
    2162:	0ed2      	lsrs	r2, r2, #27
    2164:	430a      	orrs	r2, r1
    2166:	21ff      	movs	r1, #255	; 0xff
    2168:	400a      	ands	r2, r1
	ADC->CALIB.reg = ADC_CALIB_BIAS_CAL((*(uint32_t *)ADC_FUSES_BIASCAL_ADDR >> ADC_FUSES_BIASCAL_Pos)) |
    216a:	4313      	orrs	r3, r2
    216c:	4a0e      	ldr	r2, [pc, #56]	; (21a8 <adc_init+0x94>)
    216e:	8513      	strh	r3, [r2, #40]	; 0x28

	// Set reference to VCC (3.3V)
	ADC->REFCTRL.bit.REFSEL = ADC_REFCTRL_REFSEL_INTVCC0;
    2170:	7853      	ldrb	r3, [r2, #1]
    2172:	39f0      	subs	r1, #240	; 0xf0
    2174:	438b      	bics	r3, r1
    2176:	2101      	movs	r1, #1
    2178:	430b      	orrs	r3, r1
    217a:	7053      	strb	r3, [r2, #1]

	// Set sample length and prescaler
	ADC->SAMPCTRL.reg = ADC_SAMPCTRL_SAMPLEN(10);
    217c:	230a      	movs	r3, #10
    217e:	70d3      	strb	r3, [r2, #3]
	ADC->CTRLB.bit.PRESCALER = ADC_CTRLB_PRESCALER_DIV32_Val;
    2180:	8893      	ldrh	r3, [r2, #4]
    2182:	490c      	ldr	r1, [pc, #48]	; (21b4 <adc_init+0xa0>)
    2184:	4019      	ands	r1, r3
    2186:	23c0      	movs	r3, #192	; 0xc0
    2188:	009b      	lsls	r3, r3, #2
    218a:	430b      	orrs	r3, r1
    218c:	8093      	strh	r3, [r2, #4]

	// Enable ADC
	ADC->CTRLA.reg = ADC_CTRLA_ENABLE;
    218e:	2302      	movs	r3, #2
    2190:	7013      	strb	r3, [r2, #0]
	while (ADC->STATUS.bit.SYNCBUSY); // Wait for synchronization to complete
    2192:	4b05      	ldr	r3, [pc, #20]	; (21a8 <adc_init+0x94>)
    2194:	7e5b      	ldrb	r3, [r3, #25]
    2196:	09db      	lsrs	r3, r3, #7
    2198:	d1fb      	bne.n	2192 <adc_init+0x7e>
}
    219a:	4770      	bx	lr
    219c:	40000420 	.word	0x40000420
    21a0:	0000401e 	.word	0x0000401e
    21a4:	40000c00 	.word	0x40000c00
    21a8:	42004000 	.word	0x42004000
    21ac:	00806024 	.word	0x00806024
    21b0:	00806020 	.word	0x00806020
    21b4:	fffff8ff 	.word	0xfffff8ff

000021b8 <adc_readchannel>:
 *
 ******************************************************************************/
int32_t adc_readchannel(uint8_t channel)
{
	// set positive MUX input selection
	ADC->INPUTCTRL.bit.MUXPOS = channel;
    21b8:	231f      	movs	r3, #31
    21ba:	4018      	ands	r0, r3
    21bc:	4a07      	ldr	r2, [pc, #28]	; (21dc <adc_readchannel+0x24>)
    21be:	6913      	ldr	r3, [r2, #16]
    21c0:	211f      	movs	r1, #31
    21c2:	438b      	bics	r3, r1
    21c4:	4318      	orrs	r0, r3
    21c6:	6110      	str	r0, [r2, #16]

	// start conversion then flush
	// ADC will pick up where it left off
	ADC->SWTRIG.reg = ADC_SWTRIG_START | ADC_SWTRIG_FLUSH;
    21c8:	2303      	movs	r3, #3
    21ca:	7313      	strb	r3, [r2, #12]

	// wait for analog conversion to complete
	while (ADC->INTFLAG.bit.RESRDY == 0)
    21cc:	4b03      	ldr	r3, [pc, #12]	; (21dc <adc_readchannel+0x24>)
    21ce:	7e1b      	ldrb	r3, [r3, #24]
    21d0:	07db      	lsls	r3, r3, #31
    21d2:	d5fb      	bpl.n	21cc <adc_readchannel+0x14>
	{

	}

	// return the result of the ADC
	return ADC->RESULT.reg;
    21d4:	4b01      	ldr	r3, [pc, #4]	; (21dc <adc_readchannel+0x24>)
    21d6:	8b58      	ldrh	r0, [r3, #26]
    21d8:	b280      	uxth	r0, r0
    21da:	4770      	bx	lr
    21dc:	42004000 	.word	0x42004000

000021e0 <_sbrk>:

#include "adc.h"
#include "USART3.h"

caddr_t _sbrk(int incr)
{
    21e0:	0003      	movs	r3, r0
	extern char _end;  // Defined by the linker, marks end of the .bss section
	static char *heap_end;
	char *prev_heap_end;

	if (heap_end == 0)
    21e2:	4a06      	ldr	r2, [pc, #24]	; (21fc <_sbrk+0x1c>)
    21e4:	6812      	ldr	r2, [r2, #0]
    21e6:	2a00      	cmp	r2, #0
    21e8:	d004      	beq.n	21f4 <_sbrk+0x14>
	{
		heap_end = &_end;
	}

	prev_heap_end = heap_end;
    21ea:	4a04      	ldr	r2, [pc, #16]	; (21fc <_sbrk+0x1c>)
    21ec:	6810      	ldr	r0, [r2, #0]
	heap_end += incr;
    21ee:	18c3      	adds	r3, r0, r3
    21f0:	6013      	str	r3, [r2, #0]

	return (caddr_t)prev_heap_end;
}
    21f2:	4770      	bx	lr
		heap_end = &_end;
    21f4:	4902      	ldr	r1, [pc, #8]	; (2200 <_sbrk+0x20>)
    21f6:	4a01      	ldr	r2, [pc, #4]	; (21fc <_sbrk+0x1c>)
    21f8:	6011      	str	r1, [r2, #0]
    21fa:	e7f6      	b.n	21ea <_sbrk+0xa>
    21fc:	200009cc 	.word	0x200009cc
    2200:	20002a30 	.word	0x20002a30

00002204 <AppInit>:
 * Note:            This was taken from the _00_LED_ON provided by
 *                  Microchip Technology Inc. 
 *
 ******************************************************************************/
void AppInit(void)
{
    2204:	b510      	push	{r4, lr}
	/*	Clock initialization (CPU, AHB, APBx, Asynchronous Peripheral Clocks)
		The System RC Oscillator (RCSYS) provides the source for the main clock
		at chip startup. It is set to 1MHz.
	*/
	ClocksInit();
    2206:	4b04      	ldr	r3, [pc, #16]	; (2218 <AppInit+0x14>)
    2208:	4798      	blx	r3
	
	// Assign LED0 as OUTPUT
	REG_PORT_DIR0 = LED0_PIN_MASK;
    220a:	2380      	movs	r3, #128	; 0x80
    220c:	029b      	lsls	r3, r3, #10
    220e:	4a03      	ldr	r2, [pc, #12]	; (221c <AppInit+0x18>)
    2210:	6013      	str	r3, [r2, #0]
	
	// Set LED0 OFF
	REG_PORT_OUTCLR0 = LED0_PIN_MASK;
    2212:	4a03      	ldr	r2, [pc, #12]	; (2220 <AppInit+0x1c>)
    2214:	6013      	str	r3, [r2, #0]
	

} // AppInit()
    2216:	bd10      	pop	{r4, pc}
    2218:	00002325 	.word	0x00002325
    221c:	41004400 	.word	0x41004400
    2220:	41004414 	.word	0x41004414

00002224 <AppRun>:
 *
 * Note:
 *
 ******************************************************************************/
void AppRun(void)
{
    2224:	b5f0      	push	{r4, r5, r6, r7, lr}
    2226:	46d6      	mov	lr, sl
    2228:	b500      	push	{lr}
    222a:	b08a      	sub	sp, #40	; 0x28
	// Initialize the UART at 9600 baud
	UART3_Init(9600);
    222c:	2096      	movs	r0, #150	; 0x96
    222e:	0180      	lsls	r0, r0, #6
    2230:	4b29      	ldr	r3, [pc, #164]	; (22d8 <AppRun+0xb4>)
    2232:	4798      	blx	r3
	delay_ms(500);
    2234:	4829      	ldr	r0, [pc, #164]	; (22dc <AppRun+0xb8>)
    2236:	4d2a      	ldr	r5, [pc, #168]	; (22e0 <AppRun+0xbc>)
    2238:	47a8      	blx	r5
	RTCInit();
    223a:	4b2a      	ldr	r3, [pc, #168]	; (22e4 <AppRun+0xc0>)
    223c:	4798      	blx	r3

	// Debug message to indicate initialization is complete
	UART3_Write_Text("UART Initialized successfully at 9600 baud.\r\n");
    223e:	482a      	ldr	r0, [pc, #168]	; (22e8 <AppRun+0xc4>)
    2240:	4c2a      	ldr	r4, [pc, #168]	; (22ec <AppRun+0xc8>)
    2242:	47a0      	blx	r4

	// Initialize the ADC
	adc_init();
    2244:	4b2a      	ldr	r3, [pc, #168]	; (22f0 <AppRun+0xcc>)
    2246:	4798      	blx	r3
	delay_ms(100);
    2248:	482a      	ldr	r0, [pc, #168]	; (22f4 <AppRun+0xd0>)
    224a:	47a8      	blx	r5
	UART3_Write_Text("ADC Initialized successfully.\r\n");
    224c:	482a      	ldr	r0, [pc, #168]	; (22f8 <AppRun+0xd4>)
    224e:	47a0      	blx	r4
    2250:	e002      	b.n	2258 <AppRun+0x34>
			UART3_Write_Text("\r\n");
			UART3_Write_Text("\r\n");
		}

		// Add a small delay between readings
		delay_s(3);
    2252:	482a      	ldr	r0, [pc, #168]	; (22fc <AppRun+0xd8>)
    2254:	4b22      	ldr	r3, [pc, #136]	; (22e0 <AppRun+0xbc>)
    2256:	4798      	blx	r3
		result = adc_readchannel(19); // A0 on the MKR Zero is connected to ADC channel 19 (PA11)
    2258:	2013      	movs	r0, #19
    225a:	4b29      	ldr	r3, [pc, #164]	; (2300 <AppRun+0xdc>)
    225c:	4798      	blx	r3
		while (RTC->MODE2.STATUS.bit.SYNCBUSY);
    225e:	4b29      	ldr	r3, [pc, #164]	; (2304 <AppRun+0xe0>)
    2260:	7a9b      	ldrb	r3, [r3, #10]
    2262:	09db      	lsrs	r3, r3, #7
    2264:	d1fb      	bne.n	225e <AppRun+0x3a>
		uint8_t hours = RTC->MODE2.CLOCK.bit.HOUR;
    2266:	4b27      	ldr	r3, [pc, #156]	; (2304 <AppRun+0xe0>)
    2268:	691a      	ldr	r2, [r3, #16]
    226a:	03d2      	lsls	r2, r2, #15
    226c:	0ed7      	lsrs	r7, r2, #27
		uint8_t minutes = RTC->MODE2.CLOCK.bit.MINUTE;
    226e:	691a      	ldr	r2, [r3, #16]
    2270:	0512      	lsls	r2, r2, #20
    2272:	0e95      	lsrs	r5, r2, #26
		uint8_t seconds = RTC->MODE2.CLOCK.bit.SECOND;
    2274:	691b      	ldr	r3, [r3, #16]
    2276:	069b      	lsls	r3, r3, #26
    2278:	0e9b      	lsrs	r3, r3, #26
    227a:	469a      	mov	sl, r3
		if (result >= 0) {
    227c:	2800      	cmp	r0, #0
    227e:	dbe8      	blt.n	2252 <AppRun+0x2e>
			itoa(result, buffer, 10);
    2280:	220a      	movs	r2, #10
    2282:	a902      	add	r1, sp, #8
    2284:	4b20      	ldr	r3, [pc, #128]	; (2308 <AppRun+0xe4>)
    2286:	4798      	blx	r3
			UART3_Write_Text("Pulse: ");
    2288:	4820      	ldr	r0, [pc, #128]	; (230c <AppRun+0xe8>)
    228a:	4c18      	ldr	r4, [pc, #96]	; (22ec <AppRun+0xc8>)
    228c:	47a0      	blx	r4
			UART3_Write_Text(buffer);
    228e:	a802      	add	r0, sp, #8
    2290:	47a0      	blx	r4
			UART3_Write_Text(" ");
    2292:	481f      	ldr	r0, [pc, #124]	; (2310 <AppRun+0xec>)
    2294:	47a0      	blx	r4
			sprintf(timeStr, "Timestamp: %02d:%02d:%02d\r\n", hours, minutes, seconds);
    2296:	4653      	mov	r3, sl
    2298:	9300      	str	r3, [sp, #0]
    229a:	002b      	movs	r3, r5
    229c:	003a      	movs	r2, r7
    229e:	491d      	ldr	r1, [pc, #116]	; (2314 <AppRun+0xf0>)
    22a0:	a805      	add	r0, sp, #20
    22a2:	4e1d      	ldr	r6, [pc, #116]	; (2318 <AppRun+0xf4>)
    22a4:	47b0      	blx	r6
			UART3_Write_Text(timeStr);
    22a6:	a805      	add	r0, sp, #20
    22a8:	47a0      	blx	r4
			UART3_Write_Text("\r\n");
    22aa:	481c      	ldr	r0, [pc, #112]	; (231c <AppRun+0xf8>)
    22ac:	47a0      	blx	r4
			UART3_Write_Text("SPo2: ");
    22ae:	481c      	ldr	r0, [pc, #112]	; (2320 <AppRun+0xfc>)
    22b0:	47a0      	blx	r4
			UART3_Write_Text(buffer);
    22b2:	a802      	add	r0, sp, #8
    22b4:	47a0      	blx	r4
			UART3_Write_Text(" ");
    22b6:	4816      	ldr	r0, [pc, #88]	; (2310 <AppRun+0xec>)
    22b8:	47a0      	blx	r4
			sprintf(timeStr, "Timestamp: %02d:%02d:%02d\r\n", hours, minutes, seconds);
    22ba:	4653      	mov	r3, sl
    22bc:	9300      	str	r3, [sp, #0]
    22be:	002b      	movs	r3, r5
    22c0:	003a      	movs	r2, r7
    22c2:	4914      	ldr	r1, [pc, #80]	; (2314 <AppRun+0xf0>)
    22c4:	a805      	add	r0, sp, #20
    22c6:	47b0      	blx	r6
			UART3_Write_Text(timeStr);
    22c8:	a805      	add	r0, sp, #20
    22ca:	47a0      	blx	r4
			UART3_Write_Text("\r\n");
    22cc:	4813      	ldr	r0, [pc, #76]	; (231c <AppRun+0xf8>)
    22ce:	47a0      	blx	r4
			UART3_Write_Text("\r\n");
    22d0:	4812      	ldr	r0, [pc, #72]	; (231c <AppRun+0xf8>)
    22d2:	47a0      	blx	r4
    22d4:	e7bd      	b.n	2252 <AppRun+0x2e>
    22d6:	46c0      	nop			; (mov r8, r8)
    22d8:	00002741 	.word	0x00002741
    22dc:	003450dc 	.word	0x003450dc
    22e0:	000025f9 	.word	0x000025f9
    22e4:	00002495 	.word	0x00002495
    22e8:	00008840 	.word	0x00008840
    22ec:	00002805 	.word	0x00002805
    22f0:	00002115 	.word	0x00002115
    22f4:	000a7693 	.word	0x000a7693
    22f8:	00008870 	.word	0x00008870
    22fc:	0139e525 	.word	0x0139e525
    2300:	000021b9 	.word	0x000021b9
    2304:	40001400 	.word	0x40001400
    2308:	000026e1 	.word	0x000026e1
    230c:	00008890 	.word	0x00008890
    2310:	00008898 	.word	0x00008898
    2314:	0000889c 	.word	0x0000889c
    2318:	00002dfd 	.word	0x00002dfd
    231c:	00008a64 	.word	0x00008a64
    2320:	000088b8 	.word	0x000088b8

00002324 <ClocksInit>:
 * Notes:
 *
 ******************************************************************************/

void ClocksInit(void)
{
    2324:	b530      	push	{r4, r5, lr}

	/* ----------------------------------------------------------------------------------------------
	* 1) Set Flash wait states for 48 MHz (per Table 37-40 in data sheet)
	*/
	
	NVMCTRL->CTRLB.bit.RWS = 1;		/* 1 wait state required @ 3.3V & 48MHz */
    2326:	4a50      	ldr	r2, [pc, #320]	; (2468 <ClocksInit+0x144>)
    2328:	6853      	ldr	r3, [r2, #4]
    232a:	211e      	movs	r1, #30
    232c:	438b      	bics	r3, r1
    232e:	391c      	subs	r1, #28
    2330:	430b      	orrs	r3, r1
    2332:	6053      	str	r3, [r2, #4]
	/* ----------------------------------------------------------------------------------------------
	* 2) Enable XOSC32K clock (External on-board 32.768kHz oscillator), will be used as DFLL48M reference.
	*/
	
	// Configure SYSCTRL->XOSC32K settings
	SYSCTRL_XOSC32K_Type sysctrl_xosc32k =
    2334:	2208      	movs	r2, #8
    2336:	2304      	movs	r3, #4
    2338:	431a      	orrs	r2, r3
    233a:	2380      	movs	r3, #128	; 0x80
    233c:	009b      	lsls	r3, r3, #2
    233e:	4313      	orrs	r3, r2
		.bit.AAMPEN = 0,		/* Disable automatic amplitude control */
		.bit.EN32K = 1,			/* 32kHz output is disabled */
		.bit.XTALEN = 1			/* Crystal connected to XIN32/XOUT32 */
	};
	// Write these settings
	SYSCTRL->XOSC32K.reg = sysctrl_xosc32k.reg;
    2340:	b29b      	uxth	r3, r3
    2342:	4a4a      	ldr	r2, [pc, #296]	; (246c <ClocksInit+0x148>)
    2344:	8293      	strh	r3, [r2, #20]
	// Enable the Oscillator - Separate step per data sheet recommendation (sec 17.6.3)
	SYSCTRL->XOSC32K.bit.ENABLE = 1;
    2346:	8a93      	ldrh	r3, [r2, #20]
    2348:	430b      	orrs	r3, r1
    234a:	8293      	strh	r3, [r2, #20]
	
	// Wait for XOSC32K to stabilize
	while(!SYSCTRL->PCLKSR.bit.XOSC32KRDY);
    234c:	4b47      	ldr	r3, [pc, #284]	; (246c <ClocksInit+0x148>)
    234e:	68db      	ldr	r3, [r3, #12]
    2350:	079b      	lsls	r3, r3, #30
    2352:	d5fb      	bpl.n	234c <ClocksInit+0x28>
	* 3) Put XOSC32K as source of Generic Clock Generator 1
	*/
	
	// Set the Generic Clock Generator 1 output divider to 1
	// Configure GCLK->GENDIV settings
	GCLK_GENDIV_Type gclk1_gendiv = 
    2354:	2301      	movs	r3, #1
    2356:	2180      	movs	r1, #128	; 0x80
    2358:	0049      	lsls	r1, r1, #1
    235a:	4319      	orrs	r1, r3
	{
		.bit.DIV = 1,								/* Set output division factor = 1 */
		.bit.ID = GENERIC_CLOCK_GENERATOR_XOSC32K	/* Apply division factor to Generator 1 */
	};
	// Write these settings
	GCLK->GENDIV.reg = gclk1_gendiv.reg;
    235c:	4844      	ldr	r0, [pc, #272]	; (2470 <ClocksInit+0x14c>)
    235e:	6081      	str	r1, [r0, #8]
	
	// Configure Generic Clock Generator 1 with XOSC32K as source
	GCLK_GENCTRL_Type gclk1_genctrl = 
    2360:	22a0      	movs	r2, #160	; 0xa0
    2362:	00d2      	lsls	r2, r2, #3
    2364:	431a      	orrs	r2, r3
    2366:	2380      	movs	r3, #128	; 0x80
    2368:	025b      	lsls	r3, r3, #9
    236a:	431a      	orrs	r2, r3
    236c:	2380      	movs	r3, #128	; 0x80
    236e:	029b      	lsls	r3, r3, #10
    2370:	4313      	orrs	r3, r2
		.bit.GENEN = 1,			/* Enable the generator */
		.bit.SRC = 0x05,		/* Generator source: XOSC32K output */
		.bit.ID = GENERIC_CLOCK_GENERATOR_XOSC32K			/* Generator ID: 1 */
	};
	// Write these settings
	GCLK->GENCTRL.reg = gclk1_genctrl.reg;
    2372:	6043      	str	r3, [r0, #4]
	// GENCTRL is Write-Synchronized...so wait for write to complete
	while(GCLK->STATUS.bit.SYNCBUSY);
    2374:	4b3e      	ldr	r3, [pc, #248]	; (2470 <ClocksInit+0x14c>)
    2376:	785b      	ldrb	r3, [r3, #1]
    2378:	09db      	lsrs	r3, r3, #7
    237a:	d1fb      	bne.n	2374 <ClocksInit+0x50>
		.bit.CLKEN = 1,			/* Enable the Generic Clock */
		.bit.GEN = GENERIC_CLOCK_GENERATOR_XOSC32K, 	/* Generic Clock Generator 1 is the source */
		.bit.ID = 0x00			/* Generic Clock Multiplexer 0 (DFLL48M Reference) */
	};
	// Write these settings
	GCLK->CLKCTRL.reg = gclk_clkctrl.reg;
    237c:	2380      	movs	r3, #128	; 0x80
    237e:	01db      	lsls	r3, r3, #7
    2380:	2280      	movs	r2, #128	; 0x80
    2382:	0052      	lsls	r2, r2, #1
    2384:	4313      	orrs	r3, r2
    2386:	4a3a      	ldr	r2, [pc, #232]	; (2470 <ClocksInit+0x14c>)
    2388:	8053      	strh	r3, [r2, #2]
	// Enable the DFLL48M in open loop mode. Without this step, attempts to go into closed loop mode at 48 MHz will
	// result in Processor Reset (you'll be at the in the Reset_Handler in startup_samd21.c).
	// PCLKSR.DFLLRDY must be one before writing to the DFLL Control register
	// Note that the DFLLRDY bit represents status of register synchronization - NOT clock stability
	// (see Data Sheet 17.6.14 Synchronization for detail)
	while(!SYSCTRL->PCLKSR.bit.DFLLRDY);
    238a:	4b38      	ldr	r3, [pc, #224]	; (246c <ClocksInit+0x148>)
    238c:	68db      	ldr	r3, [r3, #12]
    238e:	06db      	lsls	r3, r3, #27
    2390:	d5fb      	bpl.n	238a <ClocksInit+0x66>
	SYSCTRL->DFLLCTRL.reg = (uint16_t)(SYSCTRL_DFLLCTRL_ENABLE);
    2392:	2202      	movs	r2, #2
    2394:	4b35      	ldr	r3, [pc, #212]	; (246c <ClocksInit+0x148>)
    2396:	849a      	strh	r2, [r3, #36]	; 0x24
	while(!SYSCTRL->PCLKSR.bit.DFLLRDY);
    2398:	4b34      	ldr	r3, [pc, #208]	; (246c <ClocksInit+0x148>)
    239a:	68db      	ldr	r3, [r3, #12]
    239c:	06db      	lsls	r3, r3, #27
    239e:	d5fb      	bpl.n	2398 <ClocksInit+0x74>
	
	// Set up the Multiplier, Coarse and Fine steps
	SYSCTRL_DFLLMUL_Type sysctrl_dfllmul = 
    23a0:	4b34      	ldr	r3, [pc, #208]	; (2474 <ClocksInit+0x150>)
    23a2:	4a35      	ldr	r2, [pc, #212]	; (2478 <ClocksInit+0x154>)
    23a4:	431a      	orrs	r2, r3
    23a6:	23f8      	movs	r3, #248	; 0xf8
    23a8:	05db      	lsls	r3, r3, #23
    23aa:	4313      	orrs	r3, r2
		.bit.CSTEP = 31,		/* Coarse step - use half of the max value (63) */
		.bit.FSTEP = 511,		/* Fine step - use half of the max value (1023) */
		.bit.MUL = 1465			/* Multiplier = MAIN_CLK_FREQ (48MHz) / EXT_32K_CLK_FREQ (32768 Hz) */
	};
	// Write these settings
	SYSCTRL->DFLLMUL.reg = sysctrl_dfllmul.reg;
    23ac:	4a2f      	ldr	r2, [pc, #188]	; (246c <ClocksInit+0x148>)
    23ae:	62d3      	str	r3, [r2, #44]	; 0x2c
	// Wait for synchronization
	while(!SYSCTRL->PCLKSR.bit.DFLLRDY);
    23b0:	4b2e      	ldr	r3, [pc, #184]	; (246c <ClocksInit+0x148>)
    23b2:	68db      	ldr	r3, [r3, #12]
    23b4:	06db      	lsls	r3, r3, #27
    23b6:	d5fb      	bpl.n	23b0 <ClocksInit+0x8c>
	
	// To reduce lock time, load factory calibrated values into DFLLVAL (cf. Data Sheet 17.6.7.1)
	// Location of value is defined in Data Sheet Table 10-5. NVM Software Calibration Area Mapping
	
	// Get factory calibrated value for "DFLL48M COARSE CAL" from NVM Software Calibration Area
	tempDFLL48CalibrationCoarse = *(uint32_t*)FUSES_DFLL48M_COARSE_CAL_ADDR;
    23b8:	4b30      	ldr	r3, [pc, #192]	; (247c <ClocksInit+0x158>)
    23ba:	681a      	ldr	r2, [r3, #0]
	tempDFLL48CalibrationCoarse &= FUSES_DFLL48M_COARSE_CAL_Msk;
	tempDFLL48CalibrationCoarse = tempDFLL48CalibrationCoarse>>FUSES_DFLL48M_COARSE_CAL_Pos;
	// Write the coarse calibration value
	SYSCTRL->DFLLVAL.bit.COARSE = tempDFLL48CalibrationCoarse;
    23bc:	492b      	ldr	r1, [pc, #172]	; (246c <ClocksInit+0x148>)
    23be:	6a8b      	ldr	r3, [r1, #40]	; 0x28
    23c0:	0e92      	lsrs	r2, r2, #26
    23c2:	0292      	lsls	r2, r2, #10
    23c4:	482e      	ldr	r0, [pc, #184]	; (2480 <ClocksInit+0x15c>)
    23c6:	4003      	ands	r3, r0
    23c8:	4313      	orrs	r3, r2
    23ca:	628b      	str	r3, [r1, #40]	; 0x28
	// Switch DFLL48M to Closed Loop mode and enable WAITLOCK
	while(!SYSCTRL->PCLKSR.bit.DFLLRDY);
    23cc:	4b27      	ldr	r3, [pc, #156]	; (246c <ClocksInit+0x148>)
    23ce:	68db      	ldr	r3, [r3, #12]
    23d0:	06db      	lsls	r3, r3, #27
    23d2:	d5fb      	bpl.n	23cc <ClocksInit+0xa8>
	SYSCTRL->DFLLCTRL.reg |= (uint16_t) (SYSCTRL_DFLLCTRL_MODE | SYSCTRL_DFLLCTRL_WAITLOCK);
    23d4:	4a25      	ldr	r2, [pc, #148]	; (246c <ClocksInit+0x148>)
    23d6:	8c93      	ldrh	r3, [r2, #36]	; 0x24
    23d8:	492a      	ldr	r1, [pc, #168]	; (2484 <ClocksInit+0x160>)
    23da:	430b      	orrs	r3, r1
    23dc:	8493      	strh	r3, [r2, #36]	; 0x24
		.bit.IDC = 1,			/* Generator duty cycle is 50/50 */
		.bit.GENEN = 1,			/* Enable the generator */
		.bit.SRC = 0x07,		/* Generator source: DFLL48M output */
		.bit.ID = GENERIC_CLOCK_GENERATOR_MAIN			/* Generator ID: 0 */
	};
	GCLK->GENCTRL.reg = gclk_genctrl0.reg;
    23de:	4824      	ldr	r0, [pc, #144]	; (2470 <ClocksInit+0x14c>)
    23e0:	2380      	movs	r3, #128	; 0x80
    23e2:	031b      	lsls	r3, r3, #12
    23e4:	2280      	movs	r2, #128	; 0x80
    23e6:	0292      	lsls	r2, r2, #10
    23e8:	2180      	movs	r1, #128	; 0x80
    23ea:	0249      	lsls	r1, r1, #9
    23ec:	24e0      	movs	r4, #224	; 0xe0
    23ee:	00e4      	lsls	r4, r4, #3
    23f0:	4321      	orrs	r1, r4
    23f2:	430a      	orrs	r2, r1
    23f4:	4313      	orrs	r3, r2
    23f6:	6043      	str	r3, [r0, #4]
	// GENCTRL is Write-Synchronized...so wait for write to complete
	while(GCLK->STATUS.bit.SYNCBUSY);
    23f8:	4b1d      	ldr	r3, [pc, #116]	; (2470 <ClocksInit+0x14c>)
    23fa:	785b      	ldrb	r3, [r3, #1]
    23fc:	09db      	lsrs	r3, r3, #7
    23fe:	d1fb      	bne.n	23f8 <ClocksInit+0xd4>
		.bit.PMUX = 7,			/* Peripheral Function H selected (GCLK_IO[0]) */
		.bit.PMUXEN = 1,		/* Enable peripheral Multiplexer */
		.bit.PINMASK = (uint16_t)(1 << (28-16)) /* Select the pin(s) to be configured */
	};
	// Write these settings
	PORT->Group[0].WRCONFIG.reg = port0_wrconfig.reg;
    2400:	4c21      	ldr	r4, [pc, #132]	; (2488 <ClocksInit+0x164>)
    2402:	2380      	movs	r3, #128	; 0x80
    2404:	061b      	lsls	r3, r3, #24
    2406:	2280      	movs	r2, #128	; 0x80
    2408:	05d2      	lsls	r2, r2, #23
    240a:	2180      	movs	r1, #128	; 0x80
    240c:	0549      	lsls	r1, r1, #21
    240e:	20e0      	movs	r0, #224	; 0xe0
    2410:	04c0      	lsls	r0, r0, #19
    2412:	2588      	movs	r5, #136	; 0x88
    2414:	026d      	lsls	r5, r5, #9
    2416:	4328      	orrs	r0, r5
    2418:	4301      	orrs	r1, r0
    241a:	430a      	orrs	r2, r1
    241c:	4313      	orrs	r3, r2
    241e:	62a3      	str	r3, [r4, #40]	; 0x28
	
	/* ----------------------------------------------------------------------------------------------
	* 7) Modify prescaler value of OSC8M to produce 8MHz output
	*/

	SYSCTRL->OSC8M.bit.PRESC = 0;		/* Prescale by 1 */
    2420:	4b12      	ldr	r3, [pc, #72]	; (246c <ClocksInit+0x148>)
    2422:	6a1a      	ldr	r2, [r3, #32]
    2424:	4919      	ldr	r1, [pc, #100]	; (248c <ClocksInit+0x168>)
    2426:	400a      	ands	r2, r1
    2428:	621a      	str	r2, [r3, #32]
	SYSCTRL->OSC8M.bit.ONDEMAND = 0 ;	/* Oscillator is always on if enabled */
    242a:	6a1a      	ldr	r2, [r3, #32]
    242c:	2180      	movs	r1, #128	; 0x80
    242e:	438a      	bics	r2, r1
    2430:	621a      	str	r2, [r3, #32]
	* 8) Put OSC8M as source for Generic Clock Generator 3
	*/
	
	// Set the Generic Clock Generator 3 output divider to 1
	// Configure GCLK->GENDIV settings
	GCLK_GENDIV_Type gclk3_gendiv = 
    2432:	2303      	movs	r3, #3
    2434:	3180      	adds	r1, #128	; 0x80
    2436:	4319      	orrs	r1, r3
	{
		.bit.DIV = 1,								/* Set output division factor = 1 */
		.bit.ID = GENERIC_CLOCK_GENERATOR_OSC8M		/* Apply division factor to Generator 3 */
	};
	// Write these settings
	GCLK->GENDIV.reg = gclk3_gendiv.reg;
    2438:	480d      	ldr	r0, [pc, #52]	; (2470 <ClocksInit+0x14c>)
    243a:	6081      	str	r1, [r0, #8]
	
	// Configure Generic Clock Generator 3 with OSC8M as source
	GCLK_GENCTRL_Type gclk3_genctrl = 
    243c:	22c0      	movs	r2, #192	; 0xc0
    243e:	00d2      	lsls	r2, r2, #3
    2440:	431a      	orrs	r2, r3
    2442:	2380      	movs	r3, #128	; 0x80
    2444:	025b      	lsls	r3, r3, #9
    2446:	431a      	orrs	r2, r3
    2448:	2380      	movs	r3, #128	; 0x80
    244a:	029b      	lsls	r3, r3, #10
    244c:	4313      	orrs	r3, r2
		.bit.GENEN = 1,			/* Enable the generator */
		.bit.SRC = 0x06,		/* Generator source: OSC8M output */
		.bit.ID = GENERIC_CLOCK_GENERATOR_OSC8M			/* Generator ID: 3 */
	};
	// Write these settings
	GCLK->GENCTRL.reg = gclk3_genctrl.reg;
    244e:	6043      	str	r3, [r0, #4]
	// GENCTRL is Write-Synchronized...so wait for write to complete
	while(GCLK->STATUS.bit.SYNCBUSY);
    2450:	4b07      	ldr	r3, [pc, #28]	; (2470 <ClocksInit+0x14c>)
    2452:	785b      	ldrb	r3, [r3, #1]
    2454:	09db      	lsrs	r3, r3, #7
    2456:	d1fb      	bne.n	2450 <ClocksInit+0x12c>
	
	/* ----------------------------------------------------------------------------------------------
	* 9) Set CPU and APBx BUS Clocks to 48MHz
	*/
	PM->CPUSEL.reg  = PM_CPUSEL_CPUDIV_DIV1 ;
    2458:	4b0d      	ldr	r3, [pc, #52]	; (2490 <ClocksInit+0x16c>)
    245a:	2200      	movs	r2, #0
    245c:	721a      	strb	r2, [r3, #8]
	PM->APBASEL.reg = PM_APBASEL_APBADIV_DIV1_Val ;
    245e:	725a      	strb	r2, [r3, #9]
	PM->APBBSEL.reg = PM_APBBSEL_APBBDIV_DIV1_Val ;
    2460:	729a      	strb	r2, [r3, #10]
	PM->APBCSEL.reg = PM_APBCSEL_APBCDIV_DIV1_Val ;
    2462:	72da      	strb	r2, [r3, #11]
	
} // ClockSysInit48M()
    2464:	bd30      	pop	{r4, r5, pc}
    2466:	46c0      	nop			; (mov r8, r8)
    2468:	41004000 	.word	0x41004000
    246c:	40000800 	.word	0x40000800
    2470:	40000c00 	.word	0x40000c00
    2474:	01ff0000 	.word	0x01ff0000
    2478:	000005b9 	.word	0x000005b9
    247c:	00806024 	.word	0x00806024
    2480:	ffff03ff 	.word	0xffff03ff
    2484:	00000804 	.word	0x00000804
    2488:	41004400 	.word	0x41004400
    248c:	fffffcff 	.word	0xfffffcff
    2490:	40000400 	.word	0x40000400

00002494 <RTCInit>:

void RTCInit(void)
{
    2494:	b510      	push	{r4, lr}
    2496:	b082      	sub	sp, #8
	uint32_t timeout;

	// Enable RTC in the Power Manager
	UART3_Write_Text("Enabling RTC in Power Manager...\r\n");
    2498:	4840      	ldr	r0, [pc, #256]	; (259c <RTCInit+0x108>)
    249a:	4c41      	ldr	r4, [pc, #260]	; (25a0 <RTCInit+0x10c>)
    249c:	47a0      	blx	r4
	PM->APBAMASK.reg |= PM_APBAMASK_RTC;
    249e:	4a41      	ldr	r2, [pc, #260]	; (25a4 <RTCInit+0x110>)
    24a0:	6993      	ldr	r3, [r2, #24]
    24a2:	2120      	movs	r1, #32
    24a4:	430b      	orrs	r3, r1
    24a6:	6193      	str	r3, [r2, #24]

	// Configure GCLK3 to use OSCULP32K and route it to the RTC
	UART3_Write_Text("Configuring GCLK3 to use OSCULP32K and route to RTC...\r\n");
    24a8:	483f      	ldr	r0, [pc, #252]	; (25a8 <RTCInit+0x114>)
    24aa:	47a0      	blx	r4

	// Set the Generic Clock Generator 3 to use the OSCULP32K
	GCLK->GENDIV.reg = GCLK_GENDIV_ID(3) | GCLK_GENDIV_DIV(1);  // Set output division factor = 1 for GCLK3
    24ac:	4b3f      	ldr	r3, [pc, #252]	; (25ac <RTCInit+0x118>)
    24ae:	2204      	movs	r2, #4
    24b0:	32ff      	adds	r2, #255	; 0xff
    24b2:	609a      	str	r2, [r3, #8]
	GCLK->GENCTRL.reg = GCLK_GENCTRL_ID(3) |
    24b4:	4a3e      	ldr	r2, [pc, #248]	; (25b0 <RTCInit+0x11c>)
    24b6:	605a      	str	r2, [r3, #4]
	GCLK_GENCTRL_SRC_OSCULP32K |            // Use internal OSCULP32K as the clock source
	GCLK_GENCTRL_GENEN;                     // Enable the GCLK generator
	while (GCLK->STATUS.bit.SYNCBUSY);                          // Wait for synchronization
    24b8:	4b3c      	ldr	r3, [pc, #240]	; (25ac <RTCInit+0x118>)
    24ba:	785b      	ldrb	r3, [r3, #1]
    24bc:	09db      	lsrs	r3, r3, #7
    24be:	d1fb      	bne.n	24b8 <RTCInit+0x24>

	// Route GCLK3 to RTC
	GCLK->CLKCTRL.reg = GCLK_CLKCTRL_ID_RTC |
    24c0:	4a3c      	ldr	r2, [pc, #240]	; (25b4 <RTCInit+0x120>)
    24c2:	4b3a      	ldr	r3, [pc, #232]	; (25ac <RTCInit+0x118>)
    24c4:	805a      	strh	r2, [r3, #2]
	GCLK_CLKCTRL_GEN_GCLK3 |                // Use GCLK3 (OSCULP32K)
	GCLK_CLKCTRL_CLKEN;                     // Enable the generic clock
	while (GCLK->STATUS.bit.SYNCBUSY);                          // Wait for clock synchronization
    24c6:	4b39      	ldr	r3, [pc, #228]	; (25ac <RTCInit+0x118>)
    24c8:	785b      	ldrb	r3, [r3, #1]
    24ca:	09db      	lsrs	r3, r3, #7
    24cc:	d1fb      	bne.n	24c6 <RTCInit+0x32>

	// Perform a software reset on the RTC
	UART3_Write_Text("Resetting RTC before configuration...\r\n");
    24ce:	483a      	ldr	r0, [pc, #232]	; (25b8 <RTCInit+0x124>)
    24d0:	4b33      	ldr	r3, [pc, #204]	; (25a0 <RTCInit+0x10c>)
    24d2:	4798      	blx	r3
	RTC->MODE2.CTRL.reg |= RTC_MODE2_CTRL_SWRST;  // Set software reset bit
    24d4:	4a39      	ldr	r2, [pc, #228]	; (25bc <RTCInit+0x128>)
    24d6:	8813      	ldrh	r3, [r2, #0]
    24d8:	2101      	movs	r1, #1
    24da:	430b      	orrs	r3, r1
    24dc:	b29b      	uxth	r3, r3
    24de:	8013      	strh	r3, [r2, #0]

	// Adding a small delay to ensure reset triggers properly
	for (volatile int i = 0; i < 100000; i++);
    24e0:	2300      	movs	r3, #0
    24e2:	9301      	str	r3, [sp, #4]
    24e4:	e002      	b.n	24ec <RTCInit+0x58>
    24e6:	9b01      	ldr	r3, [sp, #4]
    24e8:	3301      	adds	r3, #1
    24ea:	9301      	str	r3, [sp, #4]
    24ec:	9a01      	ldr	r2, [sp, #4]
    24ee:	4b34      	ldr	r3, [pc, #208]	; (25c0 <RTCInit+0x12c>)
    24f0:	429a      	cmp	r2, r3
    24f2:	ddf8      	ble.n	24e6 <RTCInit+0x52>
    24f4:	e002      	b.n	24fc <RTCInit+0x68>

	while (RTC->MODE2.STATUS.bit.SYNCBUSY) {
		UART3_Write_Text("Waiting for RTC reset synchronization...\r\n");
    24f6:	4833      	ldr	r0, [pc, #204]	; (25c4 <RTCInit+0x130>)
    24f8:	4b29      	ldr	r3, [pc, #164]	; (25a0 <RTCInit+0x10c>)
    24fa:	4798      	blx	r3
	while (RTC->MODE2.STATUS.bit.SYNCBUSY) {
    24fc:	4b2f      	ldr	r3, [pc, #188]	; (25bc <RTCInit+0x128>)
    24fe:	7a9b      	ldrb	r3, [r3, #10]
    2500:	09db      	lsrs	r3, r3, #7
    2502:	d1f8      	bne.n	24f6 <RTCInit+0x62>
	}

	// Disable RTC before configuring
	UART3_Write_Text("Disabling RTC before configuration...\r\n");
    2504:	4830      	ldr	r0, [pc, #192]	; (25c8 <RTCInit+0x134>)
    2506:	4b26      	ldr	r3, [pc, #152]	; (25a0 <RTCInit+0x10c>)
    2508:	4798      	blx	r3
	RTC->MODE2.CTRL.reg &= ~RTC_MODE2_CTRL_ENABLE;   // Clear the enable bit
    250a:	4a2c      	ldr	r2, [pc, #176]	; (25bc <RTCInit+0x128>)
    250c:	8813      	ldrh	r3, [r2, #0]
    250e:	2102      	movs	r1, #2
    2510:	438b      	bics	r3, r1
    2512:	8013      	strh	r3, [r2, #0]
	while (RTC->MODE2.STATUS.bit.SYNCBUSY) {
    2514:	e002      	b.n	251c <RTCInit+0x88>
		UART3_Write_Text("Waiting for RTC disable synchronization...\r\n");
    2516:	482d      	ldr	r0, [pc, #180]	; (25cc <RTCInit+0x138>)
    2518:	4b21      	ldr	r3, [pc, #132]	; (25a0 <RTCInit+0x10c>)
    251a:	4798      	blx	r3
	while (RTC->MODE2.STATUS.bit.SYNCBUSY) {
    251c:	4b27      	ldr	r3, [pc, #156]	; (25bc <RTCInit+0x128>)
    251e:	7a9b      	ldrb	r3, [r3, #10]
    2520:	09db      	lsrs	r3, r3, #7
    2522:	d1f8      	bne.n	2516 <RTCInit+0x82>
	}

	// Set RTC mode to Calendar mode and prescaler for 1-second increments
	UART3_Write_Text("Configuring RTC mode to Calendar with 1-second increments...\r\n");
    2524:	482a      	ldr	r0, [pc, #168]	; (25d0 <RTCInit+0x13c>)
    2526:	4b1e      	ldr	r3, [pc, #120]	; (25a0 <RTCInit+0x10c>)
    2528:	4798      	blx	r3
	RTC->MODE2.CTRL.reg = RTC_MODE2_CTRL_MODE_CLOCK | RTC_MODE2_CTRL_PRESCALER_DIV1024;
    252a:	4a2a      	ldr	r2, [pc, #168]	; (25d4 <RTCInit+0x140>)
    252c:	4b23      	ldr	r3, [pc, #140]	; (25bc <RTCInit+0x128>)
    252e:	801a      	strh	r2, [r3, #0]
	while (RTC->MODE2.STATUS.bit.SYNCBUSY) {
    2530:	e002      	b.n	2538 <RTCInit+0xa4>
		UART3_Write_Text("Waiting for RTC mode configuration synchronization...\r\n");
    2532:	4829      	ldr	r0, [pc, #164]	; (25d8 <RTCInit+0x144>)
    2534:	4b1a      	ldr	r3, [pc, #104]	; (25a0 <RTCInit+0x10c>)
    2536:	4798      	blx	r3
	while (RTC->MODE2.STATUS.bit.SYNCBUSY) {
    2538:	4b20      	ldr	r3, [pc, #128]	; (25bc <RTCInit+0x128>)
    253a:	7a9b      	ldrb	r3, [r3, #10]
    253c:	09db      	lsrs	r3, r3, #7
    253e:	d1f8      	bne.n	2532 <RTCInit+0x9e>
	}

	// Set initial time and date (e.g., 12:00:00, 01/01/2024)
	UART3_Write_Text("Setting initial time and date...\r\n");
    2540:	4826      	ldr	r0, [pc, #152]	; (25dc <RTCInit+0x148>)
    2542:	4b17      	ldr	r3, [pc, #92]	; (25a0 <RTCInit+0x10c>)
    2544:	4798      	blx	r3
	RTC->MODE2.CLOCK.reg = RTC_MODE2_CLOCK_HOUR(0) | RTC_MODE2_CLOCK_MINUTE(0) | RTC_MODE2_CLOCK_SECOND(0);
    2546:	2200      	movs	r2, #0
    2548:	4b1c      	ldr	r3, [pc, #112]	; (25bc <RTCInit+0x128>)
    254a:	611a      	str	r2, [r3, #16]
	timeout = 10000000;  // Increase timeout to ensure RTC synchronization completes
    254c:	4a24      	ldr	r2, [pc, #144]	; (25e0 <RTCInit+0x14c>)
	while (RTC->MODE2.STATUS.bit.SYNCBUSY && timeout > 0)
    254e:	e000      	b.n	2552 <RTCInit+0xbe>
	{
		timeout--;
    2550:	3a01      	subs	r2, #1
	while (RTC->MODE2.STATUS.bit.SYNCBUSY && timeout > 0)
    2552:	4b1a      	ldr	r3, [pc, #104]	; (25bc <RTCInit+0x128>)
    2554:	7a9b      	ldrb	r3, [r3, #10]
    2556:	09db      	lsrs	r3, r3, #7
    2558:	d001      	beq.n	255e <RTCInit+0xca>
    255a:	2a00      	cmp	r2, #0
    255c:	d1f8      	bne.n	2550 <RTCInit+0xbc>
	}

	if (timeout == 0)
    255e:	2a00      	cmp	r2, #0
    2560:	d00b      	beq.n	257a <RTCInit+0xe6>
		UART3_Write_Text("Error: RTC time/date set timeout\r\n");
		return; // Return if there was an error to prevent further configuration
	}
	else
	{
		UART3_Write_Text("Initial Time and Date set successfully\r\n");
    2562:	4820      	ldr	r0, [pc, #128]	; (25e4 <RTCInit+0x150>)
    2564:	4c0e      	ldr	r4, [pc, #56]	; (25a0 <RTCInit+0x10c>)
    2566:	47a0      	blx	r4
	}

	// Enable the RTC again
	UART3_Write_Text("Enabling RTC after configuration...\r\n");
    2568:	481f      	ldr	r0, [pc, #124]	; (25e8 <RTCInit+0x154>)
    256a:	47a0      	blx	r4
	RTC->MODE2.CTRL.reg |= RTC_MODE2_CTRL_ENABLE;
    256c:	4a13      	ldr	r2, [pc, #76]	; (25bc <RTCInit+0x128>)
    256e:	8813      	ldrh	r3, [r2, #0]
    2570:	2102      	movs	r1, #2
    2572:	430b      	orrs	r3, r1
    2574:	b29b      	uxth	r3, r3
    2576:	8013      	strh	r3, [r2, #0]
	while (RTC->MODE2.STATUS.bit.SYNCBUSY) {
    2578:	e006      	b.n	2588 <RTCInit+0xf4>
		UART3_Write_Text("Error: RTC time/date set timeout\r\n");
    257a:	481c      	ldr	r0, [pc, #112]	; (25ec <RTCInit+0x158>)
    257c:	4b08      	ldr	r3, [pc, #32]	; (25a0 <RTCInit+0x10c>)
    257e:	4798      	blx	r3
		return; // Return if there was an error to prevent further configuration
    2580:	e009      	b.n	2596 <RTCInit+0x102>
		UART3_Write_Text("Waiting for RTC enable synchronization...\r\n");
    2582:	481b      	ldr	r0, [pc, #108]	; (25f0 <RTCInit+0x15c>)
    2584:	4b06      	ldr	r3, [pc, #24]	; (25a0 <RTCInit+0x10c>)
    2586:	4798      	blx	r3
	while (RTC->MODE2.STATUS.bit.SYNCBUSY) {
    2588:	4b0c      	ldr	r3, [pc, #48]	; (25bc <RTCInit+0x128>)
    258a:	7a9b      	ldrb	r3, [r3, #10]
    258c:	09db      	lsrs	r3, r3, #7
    258e:	d1f8      	bne.n	2582 <RTCInit+0xee>
	}
	UART3_Write_Text("RTC enabled again\r\n");
    2590:	4818      	ldr	r0, [pc, #96]	; (25f4 <RTCInit+0x160>)
    2592:	4b03      	ldr	r3, [pc, #12]	; (25a0 <RTCInit+0x10c>)
    2594:	4798      	blx	r3
}
    2596:	b002      	add	sp, #8
    2598:	bd10      	pop	{r4, pc}
    259a:	46c0      	nop			; (mov r8, r8)
    259c:	000088c0 	.word	0x000088c0
    25a0:	00002805 	.word	0x00002805
    25a4:	40000400 	.word	0x40000400
    25a8:	000088e4 	.word	0x000088e4
    25ac:	40000c00 	.word	0x40000c00
    25b0:	00010303 	.word	0x00010303
    25b4:	00004304 	.word	0x00004304
    25b8:	00008920 	.word	0x00008920
    25bc:	40001400 	.word	0x40001400
    25c0:	0001869f 	.word	0x0001869f
    25c4:	00008948 	.word	0x00008948
    25c8:	00008974 	.word	0x00008974
    25cc:	0000899c 	.word	0x0000899c
    25d0:	000089cc 	.word	0x000089cc
    25d4:	00000a08 	.word	0x00000a08
    25d8:	00008a0c 	.word	0x00008a0c
    25dc:	00008a44 	.word	0x00008a44
    25e0:	00989680 	.word	0x00989680
    25e4:	00008a8c 	.word	0x00008a8c
    25e8:	00008ab8 	.word	0x00008ab8
    25ec:	00008a68 	.word	0x00008a68
    25f0:	00008ae0 	.word	0x00008ae0
    25f4:	00008b0c 	.word	0x00008b0c

000025f8 <delay_n_cycles>:
 * Note:
 *
 ******************************************************************************/
void delay_n_cycles(unsigned long n)
{
	__asm (
    25f8:	f3bf 8f5f 	dmb	sy
    25fc:	3801      	subs	r0, #1
    25fe:	2800      	cmp	r0, #0
    2600:	d1fa      	bne.n	25f8 <delay_n_cycles>
	"loop: DMB	\n"
	"SUB r0, r0, #1 \n"
	"CMP r0, #0  \n"
	"BNE loop         "
	);
} // delay_n_cycles()
    2602:	4770      	bx	lr

00002604 <Dummy_Handler>:

/**
 * \brief Default interrupt handler for unused IRQs.
 */
void Dummy_Handler(void)
{
    2604:	e7fe      	b.n	2604 <Dummy_Handler>
	...

00002608 <Reset_Handler>:
{
    2608:	b5f8      	push	{r3, r4, r5, r6, r7, lr}
        if (pSrc != pDest) {
    260a:	4a23      	ldr	r2, [pc, #140]	; (2698 <Reset_Handler+0x90>)
    260c:	4b23      	ldr	r3, [pc, #140]	; (269c <Reset_Handler+0x94>)
    260e:	429a      	cmp	r2, r3
    2610:	d009      	beq.n	2626 <Reset_Handler+0x1e>
    2612:	4b22      	ldr	r3, [pc, #136]	; (269c <Reset_Handler+0x94>)
    2614:	4a20      	ldr	r2, [pc, #128]	; (2698 <Reset_Handler+0x90>)
    2616:	e003      	b.n	2620 <Reset_Handler+0x18>
                        *pDest++ = *pSrc++;
    2618:	6811      	ldr	r1, [r2, #0]
    261a:	6019      	str	r1, [r3, #0]
    261c:	3304      	adds	r3, #4
    261e:	3204      	adds	r2, #4
                for (; pDest < &_erelocate;) {
    2620:	491f      	ldr	r1, [pc, #124]	; (26a0 <Reset_Handler+0x98>)
    2622:	428b      	cmp	r3, r1
    2624:	d3f8      	bcc.n	2618 <Reset_Handler+0x10>
                        *pDest++ = *pSrc++;
    2626:	4b1f      	ldr	r3, [pc, #124]	; (26a4 <Reset_Handler+0x9c>)
    2628:	e002      	b.n	2630 <Reset_Handler+0x28>
                *pDest++ = 0;
    262a:	2200      	movs	r2, #0
    262c:	601a      	str	r2, [r3, #0]
    262e:	3304      	adds	r3, #4
        for (pDest = &_szero; pDest < &_ezero;) {
    2630:	4a1d      	ldr	r2, [pc, #116]	; (26a8 <Reset_Handler+0xa0>)
    2632:	4293      	cmp	r3, r2
    2634:	d3f9      	bcc.n	262a <Reset_Handler+0x22>
        SCB->VTOR = ((uint32_t) pSrc & SCB_VTOR_TBLOFF_Msk);
    2636:	4a1d      	ldr	r2, [pc, #116]	; (26ac <Reset_Handler+0xa4>)
    2638:	21ff      	movs	r1, #255	; 0xff
    263a:	4b1d      	ldr	r3, [pc, #116]	; (26b0 <Reset_Handler+0xa8>)
    263c:	438b      	bics	r3, r1
    263e:	6093      	str	r3, [r2, #8]
        SBMATRIX->SFR[SBMATRIX_SLAVE_HMCRAMC0].reg = 2;
    2640:	39fd      	subs	r1, #253	; 0xfd
    2642:	2390      	movs	r3, #144	; 0x90
    2644:	005b      	lsls	r3, r3, #1
    2646:	4a1b      	ldr	r2, [pc, #108]	; (26b4 <Reset_Handler+0xac>)
    2648:	50d1      	str	r1, [r2, r3]
        USB->DEVICE.QOSCTRL.bit.CQOS = 2;
    264a:	4a1b      	ldr	r2, [pc, #108]	; (26b8 <Reset_Handler+0xb0>)
    264c:	78d3      	ldrb	r3, [r2, #3]
    264e:	2503      	movs	r5, #3
    2650:	43ab      	bics	r3, r5
    2652:	2402      	movs	r4, #2
    2654:	4323      	orrs	r3, r4
    2656:	70d3      	strb	r3, [r2, #3]
        USB->DEVICE.QOSCTRL.bit.DQOS = 2;
    2658:	78d3      	ldrb	r3, [r2, #3]
    265a:	270c      	movs	r7, #12
    265c:	43bb      	bics	r3, r7
    265e:	2608      	movs	r6, #8
    2660:	4333      	orrs	r3, r6
    2662:	70d3      	strb	r3, [r2, #3]
        DMAC->QOSCTRL.bit.DQOS = 2;
    2664:	4b15      	ldr	r3, [pc, #84]	; (26bc <Reset_Handler+0xb4>)
    2666:	7b98      	ldrb	r0, [r3, #14]
    2668:	2230      	movs	r2, #48	; 0x30
    266a:	4390      	bics	r0, r2
    266c:	2220      	movs	r2, #32
    266e:	4310      	orrs	r0, r2
    2670:	7398      	strb	r0, [r3, #14]
        DMAC->QOSCTRL.bit.FQOS = 2;
    2672:	7b99      	ldrb	r1, [r3, #14]
    2674:	43b9      	bics	r1, r7
    2676:	4331      	orrs	r1, r6
    2678:	7399      	strb	r1, [r3, #14]
        DMAC->QOSCTRL.bit.WRBQOS = 2;
    267a:	7b9a      	ldrb	r2, [r3, #14]
    267c:	43aa      	bics	r2, r5
    267e:	4322      	orrs	r2, r4
    2680:	739a      	strb	r2, [r3, #14]
        NVMCTRL->CTRLB.bit.MANW = 1;
    2682:	4a0f      	ldr	r2, [pc, #60]	; (26c0 <Reset_Handler+0xb8>)
    2684:	6851      	ldr	r1, [r2, #4]
    2686:	2380      	movs	r3, #128	; 0x80
    2688:	430b      	orrs	r3, r1
    268a:	6053      	str	r3, [r2, #4]
        __libc_init_array();
    268c:	4b0d      	ldr	r3, [pc, #52]	; (26c4 <Reset_Handler+0xbc>)
    268e:	4798      	blx	r3
        main();
    2690:	4b0d      	ldr	r3, [pc, #52]	; (26c8 <Reset_Handler+0xc0>)
    2692:	4798      	blx	r3
    2694:	e7fe      	b.n	2694 <Reset_Handler+0x8c>
    2696:	46c0      	nop			; (mov r8, r8)
    2698:	00008fbc 	.word	0x00008fbc
    269c:	20000000 	.word	0x20000000
    26a0:	200009b0 	.word	0x200009b0
    26a4:	200009b0 	.word	0x200009b0
    26a8:	20000a2c 	.word	0x20000a2c
    26ac:	e000ed00 	.word	0xe000ed00
    26b0:	00002000 	.word	0x00002000
    26b4:	41007000 	.word	0x41007000
    26b8:	41005000 	.word	0x41005000
    26bc:	41004800 	.word	0x41004800
    26c0:	41004000 	.word	0x41004000
    26c4:	00002d21 	.word	0x00002d21
    26c8:	000026cd 	.word	0x000026cd

000026cc <main>:
// Function Prototypes
//////////////////////////////////////////////////////////////////////////
void ClocksInit(void);	// Configure Clock, Wait States and synch, bus clocks for 48MHz operation

int main(void)
{
    26cc:	b510      	push	{r4, lr}
	AppInit();
    26ce:	4b02      	ldr	r3, [pc, #8]	; (26d8 <main+0xc>)
    26d0:	4798      	blx	r3
	
    /* Replace with your application code */
    while (1) 
    {
		AppRun();
    26d2:	4b02      	ldr	r3, [pc, #8]	; (26dc <main+0x10>)
    26d4:	4798      	blx	r3
    26d6:	e7fc      	b.n	26d2 <main+0x6>
    26d8:	00002205 	.word	0x00002205
    26dc:	00002225 	.word	0x00002225

000026e0 <itoa>:

/*-----------------------------------------------------------------------*/
/* Initialize the SD Card                                                */
/*-----------------------------------------------------------------------*/
void itoa(int num, char *str)
{
    26e0:	b5f8      	push	{r3, r4, r5, r6, r7, lr}
    26e2:	0005      	movs	r5, r0
    26e4:	000e      	movs	r6, r1
	int i = 0;
	if (num == 0)
    26e6:	2800      	cmp	r0, #0
    26e8:	d001      	beq.n	26ee <itoa+0xe>
    26ea:	2400      	movs	r4, #0
    26ec:	e012      	b.n	2714 <itoa+0x34>
	{
		str[i++] = '0';
    26ee:	2330      	movs	r3, #48	; 0x30
    26f0:	700b      	strb	r3, [r1, #0]
		str[i] = '\0';
    26f2:	2300      	movs	r3, #0
    26f4:	704b      	strb	r3, [r1, #1]
		return;
    26f6:	e01e      	b.n	2736 <itoa+0x56>
	}

	while (num != 0)
	{
		str[i++] = (num % 10) + '0';
    26f8:	1c67      	adds	r7, r4, #1
    26fa:	1934      	adds	r4, r6, r4
    26fc:	210a      	movs	r1, #10
    26fe:	0028      	movs	r0, r5
    2700:	4b0d      	ldr	r3, [pc, #52]	; (2738 <itoa+0x58>)
    2702:	4798      	blx	r3
    2704:	3130      	adds	r1, #48	; 0x30
    2706:	7021      	strb	r1, [r4, #0]
		num /= 10;
    2708:	210a      	movs	r1, #10
    270a:	0028      	movs	r0, r5
    270c:	4b0b      	ldr	r3, [pc, #44]	; (273c <itoa+0x5c>)
    270e:	4798      	blx	r3
    2710:	0005      	movs	r5, r0
		str[i++] = (num % 10) + '0';
    2712:	003c      	movs	r4, r7
	while (num != 0)
    2714:	2d00      	cmp	r5, #0
    2716:	d1ef      	bne.n	26f8 <itoa+0x18>
	}
	str[i] = '\0';
    2718:	1932      	adds	r2, r6, r4
    271a:	2100      	movs	r1, #0
    271c:	7011      	strb	r1, [r2, #0]

	// Reverse the string
	int start = 0;
	int end = i - 1;
    271e:	1e63      	subs	r3, r4, #1
	while (start < end)
    2720:	e007      	b.n	2732 <itoa+0x52>
	{
		char temp = str[start];
    2722:	1971      	adds	r1, r6, r5
    2724:	7808      	ldrb	r0, [r1, #0]
		str[start] = str[end];
    2726:	18f2      	adds	r2, r6, r3
    2728:	7814      	ldrb	r4, [r2, #0]
    272a:	700c      	strb	r4, [r1, #0]
		str[end] = temp;
    272c:	7010      	strb	r0, [r2, #0]
		start++;
    272e:	3501      	adds	r5, #1
		end--;
    2730:	3b01      	subs	r3, #1
	while (start < end)
    2732:	429d      	cmp	r5, r3
    2734:	dbf5      	blt.n	2722 <itoa+0x42>
	}
}
    2736:	bdf8      	pop	{r3, r4, r5, r6, r7, pc}
    2738:	00002b01 	.word	0x00002b01
    273c:	00002935 	.word	0x00002935

00002740 <UART3_Init>:
 *
 * Note:            
 *
 ******************************************************************************/
void UART3_Init(uint32_t baud)
{
    2740:	b570      	push	{r4, r5, r6, lr}
	
	/* -------------------------------------------------
	* 1) Enable bus clock to APBC mask
	*/
	REG_PM_APBCMASK |=  PM_APBCMASK_SERCOM3;
    2742:	4a22      	ldr	r2, [pc, #136]	; (27cc <UART3_Init+0x8c>)
    2744:	6813      	ldr	r3, [r2, #0]
    2746:	2120      	movs	r1, #32
    2748:	430b      	orrs	r3, r1
    274a:	6013      	str	r3, [r2, #0]
	
    /* -------------------------------------------------
	* 2) select UART clock
	*/
	GCLK->CLKCTRL.reg =  
    274c:	4a20      	ldr	r2, [pc, #128]	; (27d0 <UART3_Init+0x90>)
    274e:	4b21      	ldr	r3, [pc, #132]	; (27d4 <UART3_Init+0x94>)
    2750:	805a      	strh	r2, [r3, #2]
	
	/* --------------------------------------------------
	* 3) Configure PA22 as TX Pin
	*/
	// Set pin direction to output
	PORT->Group[0].DIRSET.reg = (1 << 22);     
    2752:	4b21      	ldr	r3, [pc, #132]	; (27d8 <UART3_Init+0x98>)
    2754:	2280      	movs	r2, #128	; 0x80
    2756:	03d2      	lsls	r2, r2, #15
    2758:	609a      	str	r2, [r3, #8]
	
    // Enable PMUX
	PORT->Group[0].PINCFG[22].reg |= PORT_PINCFG_PMUXEN;   
    275a:	2256      	movs	r2, #86	; 0x56
    275c:	5c99      	ldrb	r1, [r3, r2]
    275e:	2601      	movs	r6, #1
    2760:	4331      	orrs	r1, r6
    2762:	b2c9      	uxtb	r1, r1
    2764:	5499      	strb	r1, [r3, r2]
	
	// Enable PMUX and set the PMUX bit, since pin is even we use PMUXE
	PORT->Group[0].PMUX[22>>1].bit.PMUXE = PORT_PMUX_PMUXE_C_Val;
    2766:	243b      	movs	r4, #59	; 0x3b
    2768:	5d19      	ldrb	r1, [r3, r4]
    276a:	3a47      	subs	r2, #71	; 0x47
    276c:	4391      	bics	r1, r2
    276e:	2202      	movs	r2, #2
    2770:	4311      	orrs	r1, r2
    2772:	5519      	strb	r1, [r3, r4]
	
	/* ---------------------------------------------------
	* 4) Configure PA23 as RX Pin
	*/
	// Set pin direction to input
	PORT->Group[0].DIRCLR.reg = (1 << 23);       
    2774:	2280      	movs	r2, #128	; 0x80
    2776:	0412      	lsls	r2, r2, #16
    2778:	605a      	str	r2, [r3, #4]

	// Enable pull down resistor
	PORT->Group[0].PINCFG[23].reg &= ~PORT_PINCFG_PULLEN;   
    277a:	2157      	movs	r1, #87	; 0x57
    277c:	5c5d      	ldrb	r5, [r3, r1]
    277e:	2204      	movs	r2, #4
    2780:	4395      	bics	r5, r2
    2782:	545d      	strb	r5, [r3, r1]
	
	// Enable PMUX and set the PMUX bit, since pin is odd we use PMUX0
	PORT->Group[0].PINCFG[23].reg |= PORT_PINCFG_PMUXEN; 
    2784:	5c5a      	ldrb	r2, [r3, r1]
    2786:	4332      	orrs	r2, r6
    2788:	b2d2      	uxtb	r2, r2
    278a:	545a      	strb	r2, [r3, r1]
	PORT->Group[0].PMUX[23>>1].bit.PMUXO = PORT_PMUX_PMUXO_C_Val; 
    278c:	5d19      	ldrb	r1, [r3, r4]
    278e:	220f      	movs	r2, #15
    2790:	400a      	ands	r2, r1
    2792:	2120      	movs	r1, #32
    2794:	430a      	orrs	r2, r1
    2796:	551a      	strb	r2, [r3, r4]
	
	
	/* ----------------------------------------------------
	* 5) Configure USART via Control A and Control B 
	*/
	SERCOM3->USART.CTRLA.reg =                  // USART is ASYNCHRONOUS
    2798:	4c10      	ldr	r4, [pc, #64]	; (27dc <UART3_Init+0x9c>)
    279a:	4b11      	ldr	r3, [pc, #68]	; (27e0 <UART3_Init+0xa0>)
    279c:	6023      	str	r3, [r4, #0]
	   SERCOM_USART_CTRLA_MODE_USART_INT_CLK |  // Set Internal Clock 
	   SERCOM_USART_CTRLA_RXPO(1) |             // Use SERCOM pad 1 for data reception
	   SERCOM_USART_CTRLA_TXPO(0/*PAD0*/);      // Set SERCOM pad 0 for data transmission
	
	
	SERCOM3->USART.CTRLB.reg =        // We don't use PARITY
    279e:	23c0      	movs	r3, #192	; 0xc0
    27a0:	029b      	lsls	r3, r3, #10
    27a2:	6063      	str	r3, [r4, #4]
	
	/* -----------------------------------------------------
	* 6) Set USART Baud Rate
	*/
	// Baud rate is (65536) * (CPU_CLock - 16 * wanted baud) / CPU_Clock
	uint64_t baudRate = (uint64_t)65536 * (F_CPU - 16 * baud) / F_CPU;
    27a4:	0703      	lsls	r3, r0, #28
    27a6:	1a1b      	subs	r3, r3, r0
    27a8:	0118      	lsls	r0, r3, #4
    27aa:	4b0e      	ldr	r3, [pc, #56]	; (27e4 <UART3_Init+0xa4>)
    27ac:	469c      	mov	ip, r3
    27ae:	4460      	add	r0, ip
    27b0:	0c01      	lsrs	r1, r0, #16
    27b2:	0400      	lsls	r0, r0, #16
    27b4:	4a0b      	ldr	r2, [pc, #44]	; (27e4 <UART3_Init+0xa4>)
    27b6:	2300      	movs	r3, #0
    27b8:	4d0b      	ldr	r5, [pc, #44]	; (27e8 <UART3_Init+0xa8>)
    27ba:	47a8      	blx	r5
	
	// Set Baud Rate
	SERCOM3->USART.BAUD.reg = (uint32_t)baudRate;
    27bc:	b280      	uxth	r0, r0
    27be:	81a0      	strh	r0, [r4, #12]

    /* ------------------------------------------------------
	* 7) Enable the USART
	*/
	// SERCOM3 peripheral enabled
	SERCOM3->USART.CTRLA.reg |= SERCOM_USART_CTRLA_ENABLE;
    27c0:	6823      	ldr	r3, [r4, #0]
    27c2:	2202      	movs	r2, #2
    27c4:	4313      	orrs	r3, r2
    27c6:	6023      	str	r3, [r4, #0]
}  // UART3_Init()
    27c8:	bd70      	pop	{r4, r5, r6, pc}
    27ca:	46c0      	nop			; (mov r8, r8)
    27cc:	40000420 	.word	0x40000420
    27d0:	00004017 	.word	0x00004017
    27d4:	40000c00 	.word	0x40000c00
    27d8:	41004400 	.word	0x41004400
    27dc:	42001400 	.word	0x42001400
    27e0:	40100004 	.word	0x40100004
    27e4:	02dc6c00 	.word	0x02dc6c00
    27e8:	00002b0d 	.word	0x00002b0d

000027ec <UART3_Write>:
 *
 ******************************************************************************/
void UART3_Write(char data)
{
	// Wait on interrupt flag and Write some data
	while(!(REG_SERCOM3_USART_INTFLAG) & 1)
    27ec:	4b03      	ldr	r3, [pc, #12]	; (27fc <UART3_Write+0x10>)
    27ee:	781b      	ldrb	r3, [r3, #0]
    27f0:	2b00      	cmp	r3, #0
    27f2:	d0fb      	beq.n	27ec <UART3_Write>
	{
		
	}
	
	REG_SERCOM3_USART_DATA = data;
    27f4:	b280      	uxth	r0, r0
    27f6:	4b02      	ldr	r3, [pc, #8]	; (2800 <UART3_Write+0x14>)
    27f8:	8018      	strh	r0, [r3, #0]
} //UART3_Write()
    27fa:	4770      	bx	lr
    27fc:	42001418 	.word	0x42001418
    2800:	42001428 	.word	0x42001428

00002804 <UART3_Write_Text>:
 *
 * Note:            
 *
 ******************************************************************************/
void UART3_Write_Text(char *text)
{
    2804:	b570      	push	{r4, r5, r6, lr}
    2806:	0005      	movs	r5, r0
	// we write text until we reach EOL
	for(int i=0;text[i]!='\0';i++)
    2808:	2400      	movs	r4, #0
    280a:	e002      	b.n	2812 <UART3_Write_Text+0xe>
	{
		UART3_Write(text[i]);
    280c:	4b03      	ldr	r3, [pc, #12]	; (281c <UART3_Write_Text+0x18>)
    280e:	4798      	blx	r3
	for(int i=0;text[i]!='\0';i++)
    2810:	3401      	adds	r4, #1
    2812:	5d28      	ldrb	r0, [r5, r4]
    2814:	2800      	cmp	r0, #0
    2816:	d1f9      	bne.n	280c <UART3_Write_Text+0x8>
	}
	
} // UART3_Write_Text()
    2818:	bd70      	pop	{r4, r5, r6, pc}
    281a:	46c0      	nop			; (mov r8, r8)
    281c:	000027ed 	.word	0x000027ed

00002820 <__udivsi3>:
    2820:	2200      	movs	r2, #0
    2822:	0843      	lsrs	r3, r0, #1
    2824:	428b      	cmp	r3, r1
    2826:	d374      	bcc.n	2912 <__udivsi3+0xf2>
    2828:	0903      	lsrs	r3, r0, #4
    282a:	428b      	cmp	r3, r1
    282c:	d35f      	bcc.n	28ee <__udivsi3+0xce>
    282e:	0a03      	lsrs	r3, r0, #8
    2830:	428b      	cmp	r3, r1
    2832:	d344      	bcc.n	28be <__udivsi3+0x9e>
    2834:	0b03      	lsrs	r3, r0, #12
    2836:	428b      	cmp	r3, r1
    2838:	d328      	bcc.n	288c <__udivsi3+0x6c>
    283a:	0c03      	lsrs	r3, r0, #16
    283c:	428b      	cmp	r3, r1
    283e:	d30d      	bcc.n	285c <__udivsi3+0x3c>
    2840:	22ff      	movs	r2, #255	; 0xff
    2842:	0209      	lsls	r1, r1, #8
    2844:	ba12      	rev	r2, r2
    2846:	0c03      	lsrs	r3, r0, #16
    2848:	428b      	cmp	r3, r1
    284a:	d302      	bcc.n	2852 <__udivsi3+0x32>
    284c:	1212      	asrs	r2, r2, #8
    284e:	0209      	lsls	r1, r1, #8
    2850:	d065      	beq.n	291e <__udivsi3+0xfe>
    2852:	0b03      	lsrs	r3, r0, #12
    2854:	428b      	cmp	r3, r1
    2856:	d319      	bcc.n	288c <__udivsi3+0x6c>
    2858:	e000      	b.n	285c <__udivsi3+0x3c>
    285a:	0a09      	lsrs	r1, r1, #8
    285c:	0bc3      	lsrs	r3, r0, #15
    285e:	428b      	cmp	r3, r1
    2860:	d301      	bcc.n	2866 <__udivsi3+0x46>
    2862:	03cb      	lsls	r3, r1, #15
    2864:	1ac0      	subs	r0, r0, r3
    2866:	4152      	adcs	r2, r2
    2868:	0b83      	lsrs	r3, r0, #14
    286a:	428b      	cmp	r3, r1
    286c:	d301      	bcc.n	2872 <__udivsi3+0x52>
    286e:	038b      	lsls	r3, r1, #14
    2870:	1ac0      	subs	r0, r0, r3
    2872:	4152      	adcs	r2, r2
    2874:	0b43      	lsrs	r3, r0, #13
    2876:	428b      	cmp	r3, r1
    2878:	d301      	bcc.n	287e <__udivsi3+0x5e>
    287a:	034b      	lsls	r3, r1, #13
    287c:	1ac0      	subs	r0, r0, r3
    287e:	4152      	adcs	r2, r2
    2880:	0b03      	lsrs	r3, r0, #12
    2882:	428b      	cmp	r3, r1
    2884:	d301      	bcc.n	288a <__udivsi3+0x6a>
    2886:	030b      	lsls	r3, r1, #12
    2888:	1ac0      	subs	r0, r0, r3
    288a:	4152      	adcs	r2, r2
    288c:	0ac3      	lsrs	r3, r0, #11
    288e:	428b      	cmp	r3, r1
    2890:	d301      	bcc.n	2896 <__udivsi3+0x76>
    2892:	02cb      	lsls	r3, r1, #11
    2894:	1ac0      	subs	r0, r0, r3
    2896:	4152      	adcs	r2, r2
    2898:	0a83      	lsrs	r3, r0, #10
    289a:	428b      	cmp	r3, r1
    289c:	d301      	bcc.n	28a2 <__udivsi3+0x82>
    289e:	028b      	lsls	r3, r1, #10
    28a0:	1ac0      	subs	r0, r0, r3
    28a2:	4152      	adcs	r2, r2
    28a4:	0a43      	lsrs	r3, r0, #9
    28a6:	428b      	cmp	r3, r1
    28a8:	d301      	bcc.n	28ae <__udivsi3+0x8e>
    28aa:	024b      	lsls	r3, r1, #9
    28ac:	1ac0      	subs	r0, r0, r3
    28ae:	4152      	adcs	r2, r2
    28b0:	0a03      	lsrs	r3, r0, #8
    28b2:	428b      	cmp	r3, r1
    28b4:	d301      	bcc.n	28ba <__udivsi3+0x9a>
    28b6:	020b      	lsls	r3, r1, #8
    28b8:	1ac0      	subs	r0, r0, r3
    28ba:	4152      	adcs	r2, r2
    28bc:	d2cd      	bcs.n	285a <__udivsi3+0x3a>
    28be:	09c3      	lsrs	r3, r0, #7
    28c0:	428b      	cmp	r3, r1
    28c2:	d301      	bcc.n	28c8 <__udivsi3+0xa8>
    28c4:	01cb      	lsls	r3, r1, #7
    28c6:	1ac0      	subs	r0, r0, r3
    28c8:	4152      	adcs	r2, r2
    28ca:	0983      	lsrs	r3, r0, #6
    28cc:	428b      	cmp	r3, r1
    28ce:	d301      	bcc.n	28d4 <__udivsi3+0xb4>
    28d0:	018b      	lsls	r3, r1, #6
    28d2:	1ac0      	subs	r0, r0, r3
    28d4:	4152      	adcs	r2, r2
    28d6:	0943      	lsrs	r3, r0, #5
    28d8:	428b      	cmp	r3, r1
    28da:	d301      	bcc.n	28e0 <__udivsi3+0xc0>
    28dc:	014b      	lsls	r3, r1, #5
    28de:	1ac0      	subs	r0, r0, r3
    28e0:	4152      	adcs	r2, r2
    28e2:	0903      	lsrs	r3, r0, #4
    28e4:	428b      	cmp	r3, r1
    28e6:	d301      	bcc.n	28ec <__udivsi3+0xcc>
    28e8:	010b      	lsls	r3, r1, #4
    28ea:	1ac0      	subs	r0, r0, r3
    28ec:	4152      	adcs	r2, r2
    28ee:	08c3      	lsrs	r3, r0, #3
    28f0:	428b      	cmp	r3, r1
    28f2:	d301      	bcc.n	28f8 <__udivsi3+0xd8>
    28f4:	00cb      	lsls	r3, r1, #3
    28f6:	1ac0      	subs	r0, r0, r3
    28f8:	4152      	adcs	r2, r2
    28fa:	0883      	lsrs	r3, r0, #2
    28fc:	428b      	cmp	r3, r1
    28fe:	d301      	bcc.n	2904 <__udivsi3+0xe4>
    2900:	008b      	lsls	r3, r1, #2
    2902:	1ac0      	subs	r0, r0, r3
    2904:	4152      	adcs	r2, r2
    2906:	0843      	lsrs	r3, r0, #1
    2908:	428b      	cmp	r3, r1
    290a:	d301      	bcc.n	2910 <__udivsi3+0xf0>
    290c:	004b      	lsls	r3, r1, #1
    290e:	1ac0      	subs	r0, r0, r3
    2910:	4152      	adcs	r2, r2
    2912:	1a41      	subs	r1, r0, r1
    2914:	d200      	bcs.n	2918 <__udivsi3+0xf8>
    2916:	4601      	mov	r1, r0
    2918:	4152      	adcs	r2, r2
    291a:	4610      	mov	r0, r2
    291c:	4770      	bx	lr
    291e:	e7ff      	b.n	2920 <__udivsi3+0x100>
    2920:	b501      	push	{r0, lr}
    2922:	2000      	movs	r0, #0
    2924:	f000 f8f0 	bl	2b08 <__aeabi_idiv0>
    2928:	bd02      	pop	{r1, pc}
    292a:	46c0      	nop			; (mov r8, r8)

0000292c <__aeabi_uidivmod>:
    292c:	2900      	cmp	r1, #0
    292e:	d0f7      	beq.n	2920 <__udivsi3+0x100>
    2930:	e776      	b.n	2820 <__udivsi3>
    2932:	4770      	bx	lr

00002934 <__divsi3>:
    2934:	4603      	mov	r3, r0
    2936:	430b      	orrs	r3, r1
    2938:	d47f      	bmi.n	2a3a <__divsi3+0x106>
    293a:	2200      	movs	r2, #0
    293c:	0843      	lsrs	r3, r0, #1
    293e:	428b      	cmp	r3, r1
    2940:	d374      	bcc.n	2a2c <__divsi3+0xf8>
    2942:	0903      	lsrs	r3, r0, #4
    2944:	428b      	cmp	r3, r1
    2946:	d35f      	bcc.n	2a08 <__divsi3+0xd4>
    2948:	0a03      	lsrs	r3, r0, #8
    294a:	428b      	cmp	r3, r1
    294c:	d344      	bcc.n	29d8 <__divsi3+0xa4>
    294e:	0b03      	lsrs	r3, r0, #12
    2950:	428b      	cmp	r3, r1
    2952:	d328      	bcc.n	29a6 <__divsi3+0x72>
    2954:	0c03      	lsrs	r3, r0, #16
    2956:	428b      	cmp	r3, r1
    2958:	d30d      	bcc.n	2976 <__divsi3+0x42>
    295a:	22ff      	movs	r2, #255	; 0xff
    295c:	0209      	lsls	r1, r1, #8
    295e:	ba12      	rev	r2, r2
    2960:	0c03      	lsrs	r3, r0, #16
    2962:	428b      	cmp	r3, r1
    2964:	d302      	bcc.n	296c <__divsi3+0x38>
    2966:	1212      	asrs	r2, r2, #8
    2968:	0209      	lsls	r1, r1, #8
    296a:	d065      	beq.n	2a38 <__divsi3+0x104>
    296c:	0b03      	lsrs	r3, r0, #12
    296e:	428b      	cmp	r3, r1
    2970:	d319      	bcc.n	29a6 <__divsi3+0x72>
    2972:	e000      	b.n	2976 <__divsi3+0x42>
    2974:	0a09      	lsrs	r1, r1, #8
    2976:	0bc3      	lsrs	r3, r0, #15
    2978:	428b      	cmp	r3, r1
    297a:	d301      	bcc.n	2980 <__divsi3+0x4c>
    297c:	03cb      	lsls	r3, r1, #15
    297e:	1ac0      	subs	r0, r0, r3
    2980:	4152      	adcs	r2, r2
    2982:	0b83      	lsrs	r3, r0, #14
    2984:	428b      	cmp	r3, r1
    2986:	d301      	bcc.n	298c <__divsi3+0x58>
    2988:	038b      	lsls	r3, r1, #14
    298a:	1ac0      	subs	r0, r0, r3
    298c:	4152      	adcs	r2, r2
    298e:	0b43      	lsrs	r3, r0, #13
    2990:	428b      	cmp	r3, r1
    2992:	d301      	bcc.n	2998 <__divsi3+0x64>
    2994:	034b      	lsls	r3, r1, #13
    2996:	1ac0      	subs	r0, r0, r3
    2998:	4152      	adcs	r2, r2
    299a:	0b03      	lsrs	r3, r0, #12
    299c:	428b      	cmp	r3, r1
    299e:	d301      	bcc.n	29a4 <__divsi3+0x70>
    29a0:	030b      	lsls	r3, r1, #12
    29a2:	1ac0      	subs	r0, r0, r3
    29a4:	4152      	adcs	r2, r2
    29a6:	0ac3      	lsrs	r3, r0, #11
    29a8:	428b      	cmp	r3, r1
    29aa:	d301      	bcc.n	29b0 <__divsi3+0x7c>
    29ac:	02cb      	lsls	r3, r1, #11
    29ae:	1ac0      	subs	r0, r0, r3
    29b0:	4152      	adcs	r2, r2
    29b2:	0a83      	lsrs	r3, r0, #10
    29b4:	428b      	cmp	r3, r1
    29b6:	d301      	bcc.n	29bc <__divsi3+0x88>
    29b8:	028b      	lsls	r3, r1, #10
    29ba:	1ac0      	subs	r0, r0, r3
    29bc:	4152      	adcs	r2, r2
    29be:	0a43      	lsrs	r3, r0, #9
    29c0:	428b      	cmp	r3, r1
    29c2:	d301      	bcc.n	29c8 <__divsi3+0x94>
    29c4:	024b      	lsls	r3, r1, #9
    29c6:	1ac0      	subs	r0, r0, r3
    29c8:	4152      	adcs	r2, r2
    29ca:	0a03      	lsrs	r3, r0, #8
    29cc:	428b      	cmp	r3, r1
    29ce:	d301      	bcc.n	29d4 <__divsi3+0xa0>
    29d0:	020b      	lsls	r3, r1, #8
    29d2:	1ac0      	subs	r0, r0, r3
    29d4:	4152      	adcs	r2, r2
    29d6:	d2cd      	bcs.n	2974 <__divsi3+0x40>
    29d8:	09c3      	lsrs	r3, r0, #7
    29da:	428b      	cmp	r3, r1
    29dc:	d301      	bcc.n	29e2 <__divsi3+0xae>
    29de:	01cb      	lsls	r3, r1, #7
    29e0:	1ac0      	subs	r0, r0, r3
    29e2:	4152      	adcs	r2, r2
    29e4:	0983      	lsrs	r3, r0, #6
    29e6:	428b      	cmp	r3, r1
    29e8:	d301      	bcc.n	29ee <__divsi3+0xba>
    29ea:	018b      	lsls	r3, r1, #6
    29ec:	1ac0      	subs	r0, r0, r3
    29ee:	4152      	adcs	r2, r2
    29f0:	0943      	lsrs	r3, r0, #5
    29f2:	428b      	cmp	r3, r1
    29f4:	d301      	bcc.n	29fa <__divsi3+0xc6>
    29f6:	014b      	lsls	r3, r1, #5
    29f8:	1ac0      	subs	r0, r0, r3
    29fa:	4152      	adcs	r2, r2
    29fc:	0903      	lsrs	r3, r0, #4
    29fe:	428b      	cmp	r3, r1
    2a00:	d301      	bcc.n	2a06 <__divsi3+0xd2>
    2a02:	010b      	lsls	r3, r1, #4
    2a04:	1ac0      	subs	r0, r0, r3
    2a06:	4152      	adcs	r2, r2
    2a08:	08c3      	lsrs	r3, r0, #3
    2a0a:	428b      	cmp	r3, r1
    2a0c:	d301      	bcc.n	2a12 <__divsi3+0xde>
    2a0e:	00cb      	lsls	r3, r1, #3
    2a10:	1ac0      	subs	r0, r0, r3
    2a12:	4152      	adcs	r2, r2
    2a14:	0883      	lsrs	r3, r0, #2
    2a16:	428b      	cmp	r3, r1
    2a18:	d301      	bcc.n	2a1e <__divsi3+0xea>
    2a1a:	008b      	lsls	r3, r1, #2
    2a1c:	1ac0      	subs	r0, r0, r3
    2a1e:	4152      	adcs	r2, r2
    2a20:	0843      	lsrs	r3, r0, #1
    2a22:	428b      	cmp	r3, r1
    2a24:	d301      	bcc.n	2a2a <__divsi3+0xf6>
    2a26:	004b      	lsls	r3, r1, #1
    2a28:	1ac0      	subs	r0, r0, r3
    2a2a:	4152      	adcs	r2, r2
    2a2c:	1a41      	subs	r1, r0, r1
    2a2e:	d200      	bcs.n	2a32 <__divsi3+0xfe>
    2a30:	4601      	mov	r1, r0
    2a32:	4152      	adcs	r2, r2
    2a34:	4610      	mov	r0, r2
    2a36:	4770      	bx	lr
    2a38:	e05d      	b.n	2af6 <__divsi3+0x1c2>
    2a3a:	0fca      	lsrs	r2, r1, #31
    2a3c:	d000      	beq.n	2a40 <__divsi3+0x10c>
    2a3e:	4249      	negs	r1, r1
    2a40:	1003      	asrs	r3, r0, #32
    2a42:	d300      	bcc.n	2a46 <__divsi3+0x112>
    2a44:	4240      	negs	r0, r0
    2a46:	4053      	eors	r3, r2
    2a48:	2200      	movs	r2, #0
    2a4a:	469c      	mov	ip, r3
    2a4c:	0903      	lsrs	r3, r0, #4
    2a4e:	428b      	cmp	r3, r1
    2a50:	d32d      	bcc.n	2aae <__divsi3+0x17a>
    2a52:	0a03      	lsrs	r3, r0, #8
    2a54:	428b      	cmp	r3, r1
    2a56:	d312      	bcc.n	2a7e <__divsi3+0x14a>
    2a58:	22fc      	movs	r2, #252	; 0xfc
    2a5a:	0189      	lsls	r1, r1, #6
    2a5c:	ba12      	rev	r2, r2
    2a5e:	0a03      	lsrs	r3, r0, #8
    2a60:	428b      	cmp	r3, r1
    2a62:	d30c      	bcc.n	2a7e <__divsi3+0x14a>
    2a64:	0189      	lsls	r1, r1, #6
    2a66:	1192      	asrs	r2, r2, #6
    2a68:	428b      	cmp	r3, r1
    2a6a:	d308      	bcc.n	2a7e <__divsi3+0x14a>
    2a6c:	0189      	lsls	r1, r1, #6
    2a6e:	1192      	asrs	r2, r2, #6
    2a70:	428b      	cmp	r3, r1
    2a72:	d304      	bcc.n	2a7e <__divsi3+0x14a>
    2a74:	0189      	lsls	r1, r1, #6
    2a76:	d03a      	beq.n	2aee <__divsi3+0x1ba>
    2a78:	1192      	asrs	r2, r2, #6
    2a7a:	e000      	b.n	2a7e <__divsi3+0x14a>
    2a7c:	0989      	lsrs	r1, r1, #6
    2a7e:	09c3      	lsrs	r3, r0, #7
    2a80:	428b      	cmp	r3, r1
    2a82:	d301      	bcc.n	2a88 <__divsi3+0x154>
    2a84:	01cb      	lsls	r3, r1, #7
    2a86:	1ac0      	subs	r0, r0, r3
    2a88:	4152      	adcs	r2, r2
    2a8a:	0983      	lsrs	r3, r0, #6
    2a8c:	428b      	cmp	r3, r1
    2a8e:	d301      	bcc.n	2a94 <__divsi3+0x160>
    2a90:	018b      	lsls	r3, r1, #6
    2a92:	1ac0      	subs	r0, r0, r3
    2a94:	4152      	adcs	r2, r2
    2a96:	0943      	lsrs	r3, r0, #5
    2a98:	428b      	cmp	r3, r1
    2a9a:	d301      	bcc.n	2aa0 <__divsi3+0x16c>
    2a9c:	014b      	lsls	r3, r1, #5
    2a9e:	1ac0      	subs	r0, r0, r3
    2aa0:	4152      	adcs	r2, r2
    2aa2:	0903      	lsrs	r3, r0, #4
    2aa4:	428b      	cmp	r3, r1
    2aa6:	d301      	bcc.n	2aac <__divsi3+0x178>
    2aa8:	010b      	lsls	r3, r1, #4
    2aaa:	1ac0      	subs	r0, r0, r3
    2aac:	4152      	adcs	r2, r2
    2aae:	08c3      	lsrs	r3, r0, #3
    2ab0:	428b      	cmp	r3, r1
    2ab2:	d301      	bcc.n	2ab8 <__divsi3+0x184>
    2ab4:	00cb      	lsls	r3, r1, #3
    2ab6:	1ac0      	subs	r0, r0, r3
    2ab8:	4152      	adcs	r2, r2
    2aba:	0883      	lsrs	r3, r0, #2
    2abc:	428b      	cmp	r3, r1
    2abe:	d301      	bcc.n	2ac4 <__divsi3+0x190>
    2ac0:	008b      	lsls	r3, r1, #2
    2ac2:	1ac0      	subs	r0, r0, r3
    2ac4:	4152      	adcs	r2, r2
    2ac6:	d2d9      	bcs.n	2a7c <__divsi3+0x148>
    2ac8:	0843      	lsrs	r3, r0, #1
    2aca:	428b      	cmp	r3, r1
    2acc:	d301      	bcc.n	2ad2 <__divsi3+0x19e>
    2ace:	004b      	lsls	r3, r1, #1
    2ad0:	1ac0      	subs	r0, r0, r3
    2ad2:	4152      	adcs	r2, r2
    2ad4:	1a41      	subs	r1, r0, r1
    2ad6:	d200      	bcs.n	2ada <__divsi3+0x1a6>
    2ad8:	4601      	mov	r1, r0
    2ada:	4663      	mov	r3, ip
    2adc:	4152      	adcs	r2, r2
    2ade:	105b      	asrs	r3, r3, #1
    2ae0:	4610      	mov	r0, r2
    2ae2:	d301      	bcc.n	2ae8 <__divsi3+0x1b4>
    2ae4:	4240      	negs	r0, r0
    2ae6:	2b00      	cmp	r3, #0
    2ae8:	d500      	bpl.n	2aec <__divsi3+0x1b8>
    2aea:	4249      	negs	r1, r1
    2aec:	4770      	bx	lr
    2aee:	4663      	mov	r3, ip
    2af0:	105b      	asrs	r3, r3, #1
    2af2:	d300      	bcc.n	2af6 <__divsi3+0x1c2>
    2af4:	4240      	negs	r0, r0
    2af6:	b501      	push	{r0, lr}
    2af8:	2000      	movs	r0, #0
    2afa:	f000 f805 	bl	2b08 <__aeabi_idiv0>
    2afe:	bd02      	pop	{r1, pc}

00002b00 <__aeabi_idivmod>:
    2b00:	2900      	cmp	r1, #0
    2b02:	d0f8      	beq.n	2af6 <__divsi3+0x1c2>
    2b04:	e716      	b.n	2934 <__divsi3>
    2b06:	4770      	bx	lr

00002b08 <__aeabi_idiv0>:
    2b08:	4770      	bx	lr
    2b0a:	46c0      	nop			; (mov r8, r8)

00002b0c <__aeabi_uldivmod>:
    2b0c:	2b00      	cmp	r3, #0
    2b0e:	d111      	bne.n	2b34 <__aeabi_uldivmod+0x28>
    2b10:	2a00      	cmp	r2, #0
    2b12:	d10f      	bne.n	2b34 <__aeabi_uldivmod+0x28>
    2b14:	2900      	cmp	r1, #0
    2b16:	d100      	bne.n	2b1a <__aeabi_uldivmod+0xe>
    2b18:	2800      	cmp	r0, #0
    2b1a:	d002      	beq.n	2b22 <__aeabi_uldivmod+0x16>
    2b1c:	2100      	movs	r1, #0
    2b1e:	43c9      	mvns	r1, r1
    2b20:	1c08      	adds	r0, r1, #0
    2b22:	b407      	push	{r0, r1, r2}
    2b24:	4802      	ldr	r0, [pc, #8]	; (2b30 <__aeabi_uldivmod+0x24>)
    2b26:	a102      	add	r1, pc, #8	; (adr r1, 2b30 <__aeabi_uldivmod+0x24>)
    2b28:	1840      	adds	r0, r0, r1
    2b2a:	9002      	str	r0, [sp, #8]
    2b2c:	bd03      	pop	{r0, r1, pc}
    2b2e:	46c0      	nop			; (mov r8, r8)
    2b30:	ffffffd9 	.word	0xffffffd9
    2b34:	b403      	push	{r0, r1}
    2b36:	4668      	mov	r0, sp
    2b38:	b501      	push	{r0, lr}
    2b3a:	9802      	ldr	r0, [sp, #8]
    2b3c:	f000 f806 	bl	2b4c <__udivmoddi4>
    2b40:	9b01      	ldr	r3, [sp, #4]
    2b42:	469e      	mov	lr, r3
    2b44:	b002      	add	sp, #8
    2b46:	bc0c      	pop	{r2, r3}
    2b48:	4770      	bx	lr
    2b4a:	46c0      	nop			; (mov r8, r8)

00002b4c <__udivmoddi4>:
    2b4c:	b5f0      	push	{r4, r5, r6, r7, lr}
    2b4e:	4657      	mov	r7, sl
    2b50:	464e      	mov	r6, r9
    2b52:	4645      	mov	r5, r8
    2b54:	46de      	mov	lr, fp
    2b56:	b5e0      	push	{r5, r6, r7, lr}
    2b58:	0004      	movs	r4, r0
    2b5a:	b083      	sub	sp, #12
    2b5c:	000d      	movs	r5, r1
    2b5e:	4692      	mov	sl, r2
    2b60:	4699      	mov	r9, r3
    2b62:	428b      	cmp	r3, r1
    2b64:	d82f      	bhi.n	2bc6 <__udivmoddi4+0x7a>
    2b66:	d02c      	beq.n	2bc2 <__udivmoddi4+0x76>
    2b68:	4649      	mov	r1, r9
    2b6a:	4650      	mov	r0, sl
    2b6c:	f000 f8ae 	bl	2ccc <__clzdi2>
    2b70:	0029      	movs	r1, r5
    2b72:	0006      	movs	r6, r0
    2b74:	0020      	movs	r0, r4
    2b76:	f000 f8a9 	bl	2ccc <__clzdi2>
    2b7a:	1a33      	subs	r3, r6, r0
    2b7c:	4698      	mov	r8, r3
    2b7e:	3b20      	subs	r3, #32
    2b80:	469b      	mov	fp, r3
    2b82:	d500      	bpl.n	2b86 <__udivmoddi4+0x3a>
    2b84:	e074      	b.n	2c70 <__udivmoddi4+0x124>
    2b86:	4653      	mov	r3, sl
    2b88:	465a      	mov	r2, fp
    2b8a:	4093      	lsls	r3, r2
    2b8c:	001f      	movs	r7, r3
    2b8e:	4653      	mov	r3, sl
    2b90:	4642      	mov	r2, r8
    2b92:	4093      	lsls	r3, r2
    2b94:	001e      	movs	r6, r3
    2b96:	42af      	cmp	r7, r5
    2b98:	d829      	bhi.n	2bee <__udivmoddi4+0xa2>
    2b9a:	d026      	beq.n	2bea <__udivmoddi4+0x9e>
    2b9c:	465b      	mov	r3, fp
    2b9e:	1ba4      	subs	r4, r4, r6
    2ba0:	41bd      	sbcs	r5, r7
    2ba2:	2b00      	cmp	r3, #0
    2ba4:	da00      	bge.n	2ba8 <__udivmoddi4+0x5c>
    2ba6:	e079      	b.n	2c9c <__udivmoddi4+0x150>
    2ba8:	2200      	movs	r2, #0
    2baa:	2300      	movs	r3, #0
    2bac:	9200      	str	r2, [sp, #0]
    2bae:	9301      	str	r3, [sp, #4]
    2bb0:	2301      	movs	r3, #1
    2bb2:	465a      	mov	r2, fp
    2bb4:	4093      	lsls	r3, r2
    2bb6:	9301      	str	r3, [sp, #4]
    2bb8:	2301      	movs	r3, #1
    2bba:	4642      	mov	r2, r8
    2bbc:	4093      	lsls	r3, r2
    2bbe:	9300      	str	r3, [sp, #0]
    2bc0:	e019      	b.n	2bf6 <__udivmoddi4+0xaa>
    2bc2:	4282      	cmp	r2, r0
    2bc4:	d9d0      	bls.n	2b68 <__udivmoddi4+0x1c>
    2bc6:	2200      	movs	r2, #0
    2bc8:	2300      	movs	r3, #0
    2bca:	9200      	str	r2, [sp, #0]
    2bcc:	9301      	str	r3, [sp, #4]
    2bce:	9b0c      	ldr	r3, [sp, #48]	; 0x30
    2bd0:	2b00      	cmp	r3, #0
    2bd2:	d001      	beq.n	2bd8 <__udivmoddi4+0x8c>
    2bd4:	601c      	str	r4, [r3, #0]
    2bd6:	605d      	str	r5, [r3, #4]
    2bd8:	9800      	ldr	r0, [sp, #0]
    2bda:	9901      	ldr	r1, [sp, #4]
    2bdc:	b003      	add	sp, #12
    2bde:	bc3c      	pop	{r2, r3, r4, r5}
    2be0:	4690      	mov	r8, r2
    2be2:	4699      	mov	r9, r3
    2be4:	46a2      	mov	sl, r4
    2be6:	46ab      	mov	fp, r5
    2be8:	bdf0      	pop	{r4, r5, r6, r7, pc}
    2bea:	42a3      	cmp	r3, r4
    2bec:	d9d6      	bls.n	2b9c <__udivmoddi4+0x50>
    2bee:	2200      	movs	r2, #0
    2bf0:	2300      	movs	r3, #0
    2bf2:	9200      	str	r2, [sp, #0]
    2bf4:	9301      	str	r3, [sp, #4]
    2bf6:	4643      	mov	r3, r8
    2bf8:	2b00      	cmp	r3, #0
    2bfa:	d0e8      	beq.n	2bce <__udivmoddi4+0x82>
    2bfc:	07fb      	lsls	r3, r7, #31
    2bfe:	0872      	lsrs	r2, r6, #1
    2c00:	431a      	orrs	r2, r3
    2c02:	4646      	mov	r6, r8
    2c04:	087b      	lsrs	r3, r7, #1
    2c06:	e00e      	b.n	2c26 <__udivmoddi4+0xda>
    2c08:	42ab      	cmp	r3, r5
    2c0a:	d101      	bne.n	2c10 <__udivmoddi4+0xc4>
    2c0c:	42a2      	cmp	r2, r4
    2c0e:	d80c      	bhi.n	2c2a <__udivmoddi4+0xde>
    2c10:	1aa4      	subs	r4, r4, r2
    2c12:	419d      	sbcs	r5, r3
    2c14:	2001      	movs	r0, #1
    2c16:	1924      	adds	r4, r4, r4
    2c18:	416d      	adcs	r5, r5
    2c1a:	2100      	movs	r1, #0
    2c1c:	3e01      	subs	r6, #1
    2c1e:	1824      	adds	r4, r4, r0
    2c20:	414d      	adcs	r5, r1
    2c22:	2e00      	cmp	r6, #0
    2c24:	d006      	beq.n	2c34 <__udivmoddi4+0xe8>
    2c26:	42ab      	cmp	r3, r5
    2c28:	d9ee      	bls.n	2c08 <__udivmoddi4+0xbc>
    2c2a:	3e01      	subs	r6, #1
    2c2c:	1924      	adds	r4, r4, r4
    2c2e:	416d      	adcs	r5, r5
    2c30:	2e00      	cmp	r6, #0
    2c32:	d1f8      	bne.n	2c26 <__udivmoddi4+0xda>
    2c34:	465b      	mov	r3, fp
    2c36:	9800      	ldr	r0, [sp, #0]
    2c38:	9901      	ldr	r1, [sp, #4]
    2c3a:	1900      	adds	r0, r0, r4
    2c3c:	4169      	adcs	r1, r5
    2c3e:	2b00      	cmp	r3, #0
    2c40:	db22      	blt.n	2c88 <__udivmoddi4+0x13c>
    2c42:	002b      	movs	r3, r5
    2c44:	465a      	mov	r2, fp
    2c46:	40d3      	lsrs	r3, r2
    2c48:	002a      	movs	r2, r5
    2c4a:	4644      	mov	r4, r8
    2c4c:	40e2      	lsrs	r2, r4
    2c4e:	001c      	movs	r4, r3
    2c50:	465b      	mov	r3, fp
    2c52:	0015      	movs	r5, r2
    2c54:	2b00      	cmp	r3, #0
    2c56:	db2c      	blt.n	2cb2 <__udivmoddi4+0x166>
    2c58:	0026      	movs	r6, r4
    2c5a:	409e      	lsls	r6, r3
    2c5c:	0033      	movs	r3, r6
    2c5e:	0026      	movs	r6, r4
    2c60:	4647      	mov	r7, r8
    2c62:	40be      	lsls	r6, r7
    2c64:	0032      	movs	r2, r6
    2c66:	1a80      	subs	r0, r0, r2
    2c68:	4199      	sbcs	r1, r3
    2c6a:	9000      	str	r0, [sp, #0]
    2c6c:	9101      	str	r1, [sp, #4]
    2c6e:	e7ae      	b.n	2bce <__udivmoddi4+0x82>
    2c70:	4642      	mov	r2, r8
    2c72:	2320      	movs	r3, #32
    2c74:	1a9b      	subs	r3, r3, r2
    2c76:	4652      	mov	r2, sl
    2c78:	40da      	lsrs	r2, r3
    2c7a:	4641      	mov	r1, r8
    2c7c:	0013      	movs	r3, r2
    2c7e:	464a      	mov	r2, r9
    2c80:	408a      	lsls	r2, r1
    2c82:	0017      	movs	r7, r2
    2c84:	431f      	orrs	r7, r3
    2c86:	e782      	b.n	2b8e <__udivmoddi4+0x42>
    2c88:	4642      	mov	r2, r8
    2c8a:	2320      	movs	r3, #32
    2c8c:	1a9b      	subs	r3, r3, r2
    2c8e:	002a      	movs	r2, r5
    2c90:	4646      	mov	r6, r8
    2c92:	409a      	lsls	r2, r3
    2c94:	0023      	movs	r3, r4
    2c96:	40f3      	lsrs	r3, r6
    2c98:	4313      	orrs	r3, r2
    2c9a:	e7d5      	b.n	2c48 <__udivmoddi4+0xfc>
    2c9c:	4642      	mov	r2, r8
    2c9e:	2320      	movs	r3, #32
    2ca0:	2100      	movs	r1, #0
    2ca2:	1a9b      	subs	r3, r3, r2
    2ca4:	2200      	movs	r2, #0
    2ca6:	9100      	str	r1, [sp, #0]
    2ca8:	9201      	str	r2, [sp, #4]
    2caa:	2201      	movs	r2, #1
    2cac:	40da      	lsrs	r2, r3
    2cae:	9201      	str	r2, [sp, #4]
    2cb0:	e782      	b.n	2bb8 <__udivmoddi4+0x6c>
    2cb2:	4642      	mov	r2, r8
    2cb4:	2320      	movs	r3, #32
    2cb6:	0026      	movs	r6, r4
    2cb8:	1a9b      	subs	r3, r3, r2
    2cba:	40de      	lsrs	r6, r3
    2cbc:	002f      	movs	r7, r5
    2cbe:	46b4      	mov	ip, r6
    2cc0:	4097      	lsls	r7, r2
    2cc2:	4666      	mov	r6, ip
    2cc4:	003b      	movs	r3, r7
    2cc6:	4333      	orrs	r3, r6
    2cc8:	e7c9      	b.n	2c5e <__udivmoddi4+0x112>
    2cca:	46c0      	nop			; (mov r8, r8)

00002ccc <__clzdi2>:
    2ccc:	b510      	push	{r4, lr}
    2cce:	2900      	cmp	r1, #0
    2cd0:	d103      	bne.n	2cda <__clzdi2+0xe>
    2cd2:	f000 f807 	bl	2ce4 <__clzsi2>
    2cd6:	3020      	adds	r0, #32
    2cd8:	e002      	b.n	2ce0 <__clzdi2+0x14>
    2cda:	1c08      	adds	r0, r1, #0
    2cdc:	f000 f802 	bl	2ce4 <__clzsi2>
    2ce0:	bd10      	pop	{r4, pc}
    2ce2:	46c0      	nop			; (mov r8, r8)

00002ce4 <__clzsi2>:
    2ce4:	211c      	movs	r1, #28
    2ce6:	2301      	movs	r3, #1
    2ce8:	041b      	lsls	r3, r3, #16
    2cea:	4298      	cmp	r0, r3
    2cec:	d301      	bcc.n	2cf2 <__clzsi2+0xe>
    2cee:	0c00      	lsrs	r0, r0, #16
    2cf0:	3910      	subs	r1, #16
    2cf2:	0a1b      	lsrs	r3, r3, #8
    2cf4:	4298      	cmp	r0, r3
    2cf6:	d301      	bcc.n	2cfc <__clzsi2+0x18>
    2cf8:	0a00      	lsrs	r0, r0, #8
    2cfa:	3908      	subs	r1, #8
    2cfc:	091b      	lsrs	r3, r3, #4
    2cfe:	4298      	cmp	r0, r3
    2d00:	d301      	bcc.n	2d06 <__clzsi2+0x22>
    2d02:	0900      	lsrs	r0, r0, #4
    2d04:	3904      	subs	r1, #4
    2d06:	a202      	add	r2, pc, #8	; (adr r2, 2d10 <__clzsi2+0x2c>)
    2d08:	5c10      	ldrb	r0, [r2, r0]
    2d0a:	1840      	adds	r0, r0, r1
    2d0c:	4770      	bx	lr
    2d0e:	46c0      	nop			; (mov r8, r8)
    2d10:	02020304 	.word	0x02020304
    2d14:	01010101 	.word	0x01010101
	...

00002d20 <__libc_init_array>:
    2d20:	b570      	push	{r4, r5, r6, lr}
    2d22:	4e0d      	ldr	r6, [pc, #52]	; (2d58 <__libc_init_array+0x38>)
    2d24:	4d0d      	ldr	r5, [pc, #52]	; (2d5c <__libc_init_array+0x3c>)
    2d26:	2400      	movs	r4, #0
    2d28:	1bad      	subs	r5, r5, r6
    2d2a:	10ad      	asrs	r5, r5, #2
    2d2c:	d005      	beq.n	2d3a <__libc_init_array+0x1a>
    2d2e:	00a3      	lsls	r3, r4, #2
    2d30:	58f3      	ldr	r3, [r6, r3]
    2d32:	3401      	adds	r4, #1
    2d34:	4798      	blx	r3
    2d36:	42a5      	cmp	r5, r4
    2d38:	d1f9      	bne.n	2d2e <__libc_init_array+0xe>
    2d3a:	f006 f929 	bl	8f90 <_init>
    2d3e:	4e08      	ldr	r6, [pc, #32]	; (2d60 <__libc_init_array+0x40>)
    2d40:	4d08      	ldr	r5, [pc, #32]	; (2d64 <__libc_init_array+0x44>)
    2d42:	2400      	movs	r4, #0
    2d44:	1bad      	subs	r5, r5, r6
    2d46:	10ad      	asrs	r5, r5, #2
    2d48:	d005      	beq.n	2d56 <__libc_init_array+0x36>
    2d4a:	00a3      	lsls	r3, r4, #2
    2d4c:	58f3      	ldr	r3, [r6, r3]
    2d4e:	3401      	adds	r4, #1
    2d50:	4798      	blx	r3
    2d52:	42a5      	cmp	r5, r4
    2d54:	d1f9      	bne.n	2d4a <__libc_init_array+0x2a>
    2d56:	bd70      	pop	{r4, r5, r6, pc}
    2d58:	00008f9c 	.word	0x00008f9c
    2d5c:	00008f9c 	.word	0x00008f9c
    2d60:	00008f9c 	.word	0x00008f9c
    2d64:	00008fa4 	.word	0x00008fa4

00002d68 <memset>:
    2d68:	b5f0      	push	{r4, r5, r6, r7, lr}
    2d6a:	0783      	lsls	r3, r0, #30
    2d6c:	d043      	beq.n	2df6 <memset+0x8e>
    2d6e:	1e54      	subs	r4, r2, #1
    2d70:	2a00      	cmp	r2, #0
    2d72:	d03f      	beq.n	2df4 <memset+0x8c>
    2d74:	b2ce      	uxtb	r6, r1
    2d76:	0002      	movs	r2, r0
    2d78:	2503      	movs	r5, #3
    2d7a:	e002      	b.n	2d82 <memset+0x1a>
    2d7c:	001a      	movs	r2, r3
    2d7e:	3c01      	subs	r4, #1
    2d80:	d338      	bcc.n	2df4 <memset+0x8c>
    2d82:	1c53      	adds	r3, r2, #1
    2d84:	7016      	strb	r6, [r2, #0]
    2d86:	422b      	tst	r3, r5
    2d88:	d1f8      	bne.n	2d7c <memset+0x14>
    2d8a:	2c03      	cmp	r4, #3
    2d8c:	d92a      	bls.n	2de4 <memset+0x7c>
    2d8e:	22ff      	movs	r2, #255	; 0xff
    2d90:	400a      	ands	r2, r1
    2d92:	0215      	lsls	r5, r2, #8
    2d94:	4315      	orrs	r5, r2
    2d96:	042a      	lsls	r2, r5, #16
    2d98:	4315      	orrs	r5, r2
    2d9a:	2c0f      	cmp	r4, #15
    2d9c:	d914      	bls.n	2dc8 <memset+0x60>
    2d9e:	0027      	movs	r7, r4
    2da0:	001a      	movs	r2, r3
    2da2:	3f10      	subs	r7, #16
    2da4:	093e      	lsrs	r6, r7, #4
    2da6:	3601      	adds	r6, #1
    2da8:	0136      	lsls	r6, r6, #4
    2daa:	199e      	adds	r6, r3, r6
    2dac:	6015      	str	r5, [r2, #0]
    2dae:	6055      	str	r5, [r2, #4]
    2db0:	6095      	str	r5, [r2, #8]
    2db2:	60d5      	str	r5, [r2, #12]
    2db4:	3210      	adds	r2, #16
    2db6:	4296      	cmp	r6, r2
    2db8:	d1f8      	bne.n	2dac <memset+0x44>
    2dba:	220f      	movs	r2, #15
    2dbc:	4397      	bics	r7, r2
    2dbe:	3710      	adds	r7, #16
    2dc0:	19db      	adds	r3, r3, r7
    2dc2:	4014      	ands	r4, r2
    2dc4:	2c03      	cmp	r4, #3
    2dc6:	d90d      	bls.n	2de4 <memset+0x7c>
    2dc8:	001a      	movs	r2, r3
    2dca:	1f27      	subs	r7, r4, #4
    2dcc:	08be      	lsrs	r6, r7, #2
    2dce:	3601      	adds	r6, #1
    2dd0:	00b6      	lsls	r6, r6, #2
    2dd2:	199e      	adds	r6, r3, r6
    2dd4:	c220      	stmia	r2!, {r5}
    2dd6:	42b2      	cmp	r2, r6
    2dd8:	d1fc      	bne.n	2dd4 <memset+0x6c>
    2dda:	2203      	movs	r2, #3
    2ddc:	4397      	bics	r7, r2
    2dde:	3704      	adds	r7, #4
    2de0:	19db      	adds	r3, r3, r7
    2de2:	4014      	ands	r4, r2
    2de4:	2c00      	cmp	r4, #0
    2de6:	d005      	beq.n	2df4 <memset+0x8c>
    2de8:	b2c9      	uxtb	r1, r1
    2dea:	191c      	adds	r4, r3, r4
    2dec:	7019      	strb	r1, [r3, #0]
    2dee:	3301      	adds	r3, #1
    2df0:	429c      	cmp	r4, r3
    2df2:	d1fb      	bne.n	2dec <memset+0x84>
    2df4:	bdf0      	pop	{r4, r5, r6, r7, pc}
    2df6:	0014      	movs	r4, r2
    2df8:	0003      	movs	r3, r0
    2dfa:	e7c6      	b.n	2d8a <memset+0x22>

00002dfc <sprintf>:
    2dfc:	b40e      	push	{r1, r2, r3}
    2dfe:	b510      	push	{r4, lr}
    2e00:	b09d      	sub	sp, #116	; 0x74
    2e02:	a902      	add	r1, sp, #8
    2e04:	9002      	str	r0, [sp, #8]
    2e06:	6108      	str	r0, [r1, #16]
    2e08:	480b      	ldr	r0, [pc, #44]	; (2e38 <sprintf+0x3c>)
    2e0a:	2482      	movs	r4, #130	; 0x82
    2e0c:	6088      	str	r0, [r1, #8]
    2e0e:	6148      	str	r0, [r1, #20]
    2e10:	2001      	movs	r0, #1
    2e12:	4240      	negs	r0, r0
    2e14:	ab1f      	add	r3, sp, #124	; 0x7c
    2e16:	81c8      	strh	r0, [r1, #14]
    2e18:	4808      	ldr	r0, [pc, #32]	; (2e3c <sprintf+0x40>)
    2e1a:	cb04      	ldmia	r3!, {r2}
    2e1c:	00a4      	lsls	r4, r4, #2
    2e1e:	6800      	ldr	r0, [r0, #0]
    2e20:	9301      	str	r3, [sp, #4]
    2e22:	818c      	strh	r4, [r1, #12]
    2e24:	f000 f80c 	bl	2e40 <_svfprintf_r>
    2e28:	2300      	movs	r3, #0
    2e2a:	9a02      	ldr	r2, [sp, #8]
    2e2c:	7013      	strb	r3, [r2, #0]
    2e2e:	b01d      	add	sp, #116	; 0x74
    2e30:	bc10      	pop	{r4}
    2e32:	bc08      	pop	{r3}
    2e34:	b003      	add	sp, #12
    2e36:	4718      	bx	r3
    2e38:	7fffffff 	.word	0x7fffffff
    2e3c:	20000000 	.word	0x20000000

00002e40 <_svfprintf_r>:
    2e40:	b5f0      	push	{r4, r5, r6, r7, lr}
    2e42:	46de      	mov	lr, fp
    2e44:	4645      	mov	r5, r8
    2e46:	4657      	mov	r7, sl
    2e48:	464e      	mov	r6, r9
    2e4a:	b5e0      	push	{r5, r6, r7, lr}
    2e4c:	b0c3      	sub	sp, #268	; 0x10c
    2e4e:	000d      	movs	r5, r1
    2e50:	9106      	str	r1, [sp, #24]
    2e52:	0014      	movs	r4, r2
    2e54:	930f      	str	r3, [sp, #60]	; 0x3c
    2e56:	9009      	str	r0, [sp, #36]	; 0x24
    2e58:	f002 fb92 	bl	5580 <_localeconv_r>
    2e5c:	6803      	ldr	r3, [r0, #0]
    2e5e:	0018      	movs	r0, r3
    2e60:	9319      	str	r3, [sp, #100]	; 0x64
    2e62:	f003 fa3f 	bl	62e4 <strlen>
    2e66:	9018      	str	r0, [sp, #96]	; 0x60
    2e68:	89ab      	ldrh	r3, [r5, #12]
    2e6a:	061b      	lsls	r3, r3, #24
    2e6c:	d505      	bpl.n	2e7a <_svfprintf_r+0x3a>
    2e6e:	692b      	ldr	r3, [r5, #16]
    2e70:	9307      	str	r3, [sp, #28]
    2e72:	2b00      	cmp	r3, #0
    2e74:	d101      	bne.n	2e7a <_svfprintf_r+0x3a>
    2e76:	f001 f863 	bl	3f40 <_svfprintf_r+0x1100>
    2e7a:	ab32      	add	r3, sp, #200	; 0xc8
    2e7c:	9325      	str	r3, [sp, #148]	; 0x94
    2e7e:	2300      	movs	r3, #0
    2e80:	46a3      	mov	fp, r4
    2e82:	af25      	add	r7, sp, #148	; 0x94
    2e84:	60bb      	str	r3, [r7, #8]
    2e86:	607b      	str	r3, [r7, #4]
    2e88:	9314      	str	r3, [sp, #80]	; 0x50
    2e8a:	9316      	str	r3, [sp, #88]	; 0x58
    2e8c:	9315      	str	r3, [sp, #84]	; 0x54
    2e8e:	ae32      	add	r6, sp, #200	; 0xc8
    2e90:	9317      	str	r3, [sp, #92]	; 0x5c
    2e92:	931a      	str	r3, [sp, #104]	; 0x68
    2e94:	930a      	str	r3, [sp, #40]	; 0x28
    2e96:	465b      	mov	r3, fp
    2e98:	781b      	ldrb	r3, [r3, #0]
    2e9a:	465c      	mov	r4, fp
    2e9c:	2b00      	cmp	r3, #0
    2e9e:	d01c      	beq.n	2eda <_svfprintf_r+0x9a>
    2ea0:	2b25      	cmp	r3, #37	; 0x25
    2ea2:	d102      	bne.n	2eaa <_svfprintf_r+0x6a>
    2ea4:	e019      	b.n	2eda <_svfprintf_r+0x9a>
    2ea6:	2b25      	cmp	r3, #37	; 0x25
    2ea8:	d003      	beq.n	2eb2 <_svfprintf_r+0x72>
    2eaa:	3401      	adds	r4, #1
    2eac:	7823      	ldrb	r3, [r4, #0]
    2eae:	2b00      	cmp	r3, #0
    2eb0:	d1f9      	bne.n	2ea6 <_svfprintf_r+0x66>
    2eb2:	465b      	mov	r3, fp
    2eb4:	1ae5      	subs	r5, r4, r3
    2eb6:	d010      	beq.n	2eda <_svfprintf_r+0x9a>
    2eb8:	465b      	mov	r3, fp
    2eba:	6033      	str	r3, [r6, #0]
    2ebc:	68bb      	ldr	r3, [r7, #8]
    2ebe:	6075      	str	r5, [r6, #4]
    2ec0:	195b      	adds	r3, r3, r5
    2ec2:	60bb      	str	r3, [r7, #8]
    2ec4:	687b      	ldr	r3, [r7, #4]
    2ec6:	3301      	adds	r3, #1
    2ec8:	607b      	str	r3, [r7, #4]
    2eca:	2b07      	cmp	r3, #7
    2ecc:	dc2e      	bgt.n	2f2c <_svfprintf_r+0xec>
    2ece:	3608      	adds	r6, #8
    2ed0:	9b0a      	ldr	r3, [sp, #40]	; 0x28
    2ed2:	469c      	mov	ip, r3
    2ed4:	44ac      	add	ip, r5
    2ed6:	4663      	mov	r3, ip
    2ed8:	930a      	str	r3, [sp, #40]	; 0x28
    2eda:	7823      	ldrb	r3, [r4, #0]
    2edc:	2b00      	cmp	r3, #0
    2ede:	d02e      	beq.n	2f3e <_svfprintf_r+0xfe>
    2ee0:	1c63      	adds	r3, r4, #1
    2ee2:	469b      	mov	fp, r3
    2ee4:	2300      	movs	r3, #0
    2ee6:	aa16      	add	r2, sp, #88	; 0x58
    2ee8:	77d3      	strb	r3, [r2, #31]
    2eea:	2201      	movs	r2, #1
    2eec:	4252      	negs	r2, r2
    2eee:	4692      	mov	sl, r2
    2ef0:	2200      	movs	r2, #0
    2ef2:	2100      	movs	r1, #0
    2ef4:	920b      	str	r2, [sp, #44]	; 0x2c
    2ef6:	3220      	adds	r2, #32
    2ef8:	4691      	mov	r9, r2
    2efa:	3220      	adds	r2, #32
    2efc:	7863      	ldrb	r3, [r4, #1]
    2efe:	4688      	mov	r8, r1
    2f00:	2000      	movs	r0, #0
    2f02:	2400      	movs	r4, #0
    2f04:	4694      	mov	ip, r2
    2f06:	4659      	mov	r1, fp
    2f08:	3101      	adds	r1, #1
    2f0a:	001a      	movs	r2, r3
    2f0c:	3a20      	subs	r2, #32
    2f0e:	2a58      	cmp	r2, #88	; 0x58
    2f10:	d900      	bls.n	2f14 <_svfprintf_r+0xd4>
    2f12:	e2fd      	b.n	3510 <_svfprintf_r+0x6d0>
    2f14:	4dd7      	ldr	r5, [pc, #860]	; (3274 <_svfprintf_r+0x434>)
    2f16:	0092      	lsls	r2, r2, #2
    2f18:	58aa      	ldr	r2, [r5, r2]
    2f1a:	4697      	mov	pc, r2
    2f1c:	9b0b      	ldr	r3, [sp, #44]	; 0x2c
    2f1e:	920f      	str	r2, [sp, #60]	; 0x3c
    2f20:	425b      	negs	r3, r3
    2f22:	930b      	str	r3, [sp, #44]	; 0x2c
    2f24:	2304      	movs	r3, #4
    2f26:	431c      	orrs	r4, r3
    2f28:	780b      	ldrb	r3, [r1, #0]
    2f2a:	e7ed      	b.n	2f08 <_svfprintf_r+0xc8>
    2f2c:	003a      	movs	r2, r7
    2f2e:	9906      	ldr	r1, [sp, #24]
    2f30:	9809      	ldr	r0, [sp, #36]	; 0x24
    2f32:	f003 fa09 	bl	6348 <__ssprint_r>
    2f36:	2800      	cmp	r0, #0
    2f38:	d109      	bne.n	2f4e <_svfprintf_r+0x10e>
    2f3a:	ae32      	add	r6, sp, #200	; 0xc8
    2f3c:	e7c8      	b.n	2ed0 <_svfprintf_r+0x90>
    2f3e:	68bb      	ldr	r3, [r7, #8]
    2f40:	2b00      	cmp	r3, #0
    2f42:	d004      	beq.n	2f4e <_svfprintf_r+0x10e>
    2f44:	003a      	movs	r2, r7
    2f46:	9906      	ldr	r1, [sp, #24]
    2f48:	9809      	ldr	r0, [sp, #36]	; 0x24
    2f4a:	f003 f9fd 	bl	6348 <__ssprint_r>
    2f4e:	9b06      	ldr	r3, [sp, #24]
    2f50:	899b      	ldrh	r3, [r3, #12]
    2f52:	065b      	lsls	r3, r3, #25
    2f54:	d501      	bpl.n	2f5a <_svfprintf_r+0x11a>
    2f56:	f001 f8ce 	bl	40f6 <_svfprintf_r+0x12b6>
    2f5a:	980a      	ldr	r0, [sp, #40]	; 0x28
    2f5c:	b043      	add	sp, #268	; 0x10c
    2f5e:	bc3c      	pop	{r2, r3, r4, r5}
    2f60:	4690      	mov	r8, r2
    2f62:	4699      	mov	r9, r3
    2f64:	46a2      	mov	sl, r4
    2f66:	46ab      	mov	fp, r5
    2f68:	bdf0      	pop	{r4, r5, r6, r7, pc}
    2f6a:	2201      	movs	r2, #1
    2f6c:	780b      	ldrb	r3, [r1, #0]
    2f6e:	4690      	mov	r8, r2
    2f70:	202b      	movs	r0, #43	; 0x2b
    2f72:	e7c9      	b.n	2f08 <_svfprintf_r+0xc8>
    2f74:	1c4b      	adds	r3, r1, #1
    2f76:	469b      	mov	fp, r3
    2f78:	780b      	ldrb	r3, [r1, #0]
    2f7a:	2b2a      	cmp	r3, #42	; 0x2a
    2f7c:	d101      	bne.n	2f82 <_svfprintf_r+0x142>
    2f7e:	f001 fa1b 	bl	43b8 <_svfprintf_r+0x1578>
    2f82:	001a      	movs	r2, r3
    2f84:	2100      	movs	r1, #0
    2f86:	3a30      	subs	r2, #48	; 0x30
    2f88:	468a      	mov	sl, r1
    2f8a:	4659      	mov	r1, fp
    2f8c:	2a09      	cmp	r2, #9
    2f8e:	d8bc      	bhi.n	2f0a <_svfprintf_r+0xca>
    2f90:	0003      	movs	r3, r0
    2f92:	0011      	movs	r1, r2
    2f94:	4650      	mov	r0, sl
    2f96:	465a      	mov	r2, fp
    2f98:	469a      	mov	sl, r3
    2f9a:	46a3      	mov	fp, r4
    2f9c:	0083      	lsls	r3, r0, #2
    2f9e:	181b      	adds	r3, r3, r0
    2fa0:	7814      	ldrb	r4, [r2, #0]
    2fa2:	005b      	lsls	r3, r3, #1
    2fa4:	1858      	adds	r0, r3, r1
    2fa6:	0021      	movs	r1, r4
    2fa8:	1c53      	adds	r3, r2, #1
    2faa:	3930      	subs	r1, #48	; 0x30
    2fac:	001a      	movs	r2, r3
    2fae:	2909      	cmp	r1, #9
    2fb0:	d9f4      	bls.n	2f9c <_svfprintf_r+0x15c>
    2fb2:	4652      	mov	r2, sl
    2fb4:	0019      	movs	r1, r3
    2fb6:	4682      	mov	sl, r0
    2fb8:	0023      	movs	r3, r4
    2fba:	0010      	movs	r0, r2
    2fbc:	465c      	mov	r4, fp
    2fbe:	e7a4      	b.n	2f0a <_svfprintf_r+0xca>
    2fc0:	2380      	movs	r3, #128	; 0x80
    2fc2:	431c      	orrs	r4, r3
    2fc4:	780b      	ldrb	r3, [r1, #0]
    2fc6:	e79f      	b.n	2f08 <_svfprintf_r+0xc8>
    2fc8:	468b      	mov	fp, r1
    2fca:	4641      	mov	r1, r8
    2fcc:	9312      	str	r3, [sp, #72]	; 0x48
    2fce:	2900      	cmp	r1, #0
    2fd0:	d001      	beq.n	2fd6 <_svfprintf_r+0x196>
    2fd2:	f001 fa1f 	bl	4414 <_svfprintf_r+0x15d4>
    2fd6:	2310      	movs	r3, #16
    2fd8:	431c      	orrs	r4, r3
    2fda:	9a0f      	ldr	r2, [sp, #60]	; 0x3c
    2fdc:	06a3      	lsls	r3, r4, #26
    2fde:	d501      	bpl.n	2fe4 <_svfprintf_r+0x1a4>
    2fe0:	f000 fe88 	bl	3cf4 <_svfprintf_r+0xeb4>
    2fe4:	06e3      	lsls	r3, r4, #27
    2fe6:	d501      	bpl.n	2fec <_svfprintf_r+0x1ac>
    2fe8:	f000 fd80 	bl	3aec <_svfprintf_r+0xcac>
    2fec:	0663      	lsls	r3, r4, #25
    2fee:	d401      	bmi.n	2ff4 <_svfprintf_r+0x1b4>
    2ff0:	f000 fd7c 	bl	3aec <_svfprintf_r+0xcac>
    2ff4:	2100      	movs	r1, #0
    2ff6:	5e53      	ldrsh	r3, [r2, r1]
    2ff8:	930c      	str	r3, [sp, #48]	; 0x30
    2ffa:	3204      	adds	r2, #4
    2ffc:	17db      	asrs	r3, r3, #31
    2ffe:	930d      	str	r3, [sp, #52]	; 0x34
    3000:	920f      	str	r2, [sp, #60]	; 0x3c
    3002:	d501      	bpl.n	3008 <_svfprintf_r+0x1c8>
    3004:	f000 fe86 	bl	3d14 <_svfprintf_r+0xed4>
    3008:	990c      	ldr	r1, [sp, #48]	; 0x30
    300a:	9a0d      	ldr	r2, [sp, #52]	; 0x34
    300c:	0008      	movs	r0, r1
    300e:	ab16      	add	r3, sp, #88	; 0x58
    3010:	7fdb      	ldrb	r3, [r3, #31]
    3012:	4310      	orrs	r0, r2
    3014:	4698      	mov	r8, r3
    3016:	0002      	movs	r2, r0
    3018:	2301      	movs	r3, #1
    301a:	4651      	mov	r1, sl
    301c:	3101      	adds	r1, #1
    301e:	d100      	bne.n	3022 <_svfprintf_r+0x1e2>
    3020:	e0ff      	b.n	3222 <_svfprintf_r+0x3e2>
    3022:	2180      	movs	r1, #128	; 0x80
    3024:	0020      	movs	r0, r4
    3026:	4388      	bics	r0, r1
    3028:	9008      	str	r0, [sp, #32]
    302a:	2a00      	cmp	r2, #0
    302c:	d000      	beq.n	3030 <_svfprintf_r+0x1f0>
    302e:	e0fc      	b.n	322a <_svfprintf_r+0x3ea>
    3030:	4652      	mov	r2, sl
    3032:	2a00      	cmp	r2, #0
    3034:	d001      	beq.n	303a <_svfprintf_r+0x1fa>
    3036:	f000 fc2c 	bl	3892 <_svfprintf_r+0xa52>
    303a:	2b00      	cmp	r3, #0
    303c:	d001      	beq.n	3042 <_svfprintf_r+0x202>
    303e:	f000 fd04 	bl	3a4a <_svfprintf_r+0xc0a>
    3042:	2001      	movs	r0, #1
    3044:	ab32      	add	r3, sp, #200	; 0xc8
    3046:	4020      	ands	r0, r4
    3048:	900e      	str	r0, [sp, #56]	; 0x38
    304a:	9311      	str	r3, [sp, #68]	; 0x44
    304c:	d008      	beq.n	3060 <_svfprintf_r+0x220>
    304e:	2327      	movs	r3, #39	; 0x27
    3050:	2130      	movs	r1, #48	; 0x30
    3052:	aa28      	add	r2, sp, #160	; 0xa0
    3054:	54d1      	strb	r1, [r2, r3]
    3056:	aa16      	add	r2, sp, #88	; 0x58
    3058:	4694      	mov	ip, r2
    305a:	3348      	adds	r3, #72	; 0x48
    305c:	4463      	add	r3, ip
    305e:	9311      	str	r3, [sp, #68]	; 0x44
    3060:	4653      	mov	r3, sl
    3062:	9a0e      	ldr	r2, [sp, #56]	; 0x38
    3064:	9307      	str	r3, [sp, #28]
    3066:	4592      	cmp	sl, r2
    3068:	da00      	bge.n	306c <_svfprintf_r+0x22c>
    306a:	9207      	str	r2, [sp, #28]
    306c:	2300      	movs	r3, #0
    306e:	9313      	str	r3, [sp, #76]	; 0x4c
    3070:	4643      	mov	r3, r8
    3072:	2b00      	cmp	r3, #0
    3074:	d002      	beq.n	307c <_svfprintf_r+0x23c>
    3076:	9b07      	ldr	r3, [sp, #28]
    3078:	3301      	adds	r3, #1
    307a:	9307      	str	r3, [sp, #28]
    307c:	2302      	movs	r3, #2
    307e:	9a08      	ldr	r2, [sp, #32]
    3080:	401a      	ands	r2, r3
    3082:	4691      	mov	r9, r2
    3084:	d002      	beq.n	308c <_svfprintf_r+0x24c>
    3086:	9b07      	ldr	r3, [sp, #28]
    3088:	3302      	adds	r3, #2
    308a:	9307      	str	r3, [sp, #28]
    308c:	2384      	movs	r3, #132	; 0x84
    308e:	9a08      	ldr	r2, [sp, #32]
    3090:	401a      	ands	r2, r3
    3092:	9210      	str	r2, [sp, #64]	; 0x40
    3094:	d000      	beq.n	3098 <_svfprintf_r+0x258>
    3096:	e24d      	b.n	3534 <_svfprintf_r+0x6f4>
    3098:	9b0b      	ldr	r3, [sp, #44]	; 0x2c
    309a:	9a07      	ldr	r2, [sp, #28]
    309c:	1a9c      	subs	r4, r3, r2
    309e:	2c00      	cmp	r4, #0
    30a0:	dc00      	bgt.n	30a4 <_svfprintf_r+0x264>
    30a2:	e247      	b.n	3534 <_svfprintf_r+0x6f4>
    30a4:	4974      	ldr	r1, [pc, #464]	; (3278 <_svfprintf_r+0x438>)
    30a6:	68ba      	ldr	r2, [r7, #8]
    30a8:	687b      	ldr	r3, [r7, #4]
    30aa:	4688      	mov	r8, r1
    30ac:	2c10      	cmp	r4, #16
    30ae:	dd1f      	ble.n	30f0 <_svfprintf_r+0x2b0>
    30b0:	0031      	movs	r1, r6
    30b2:	2510      	movs	r5, #16
    30b4:	4646      	mov	r6, r8
    30b6:	e003      	b.n	30c0 <_svfprintf_r+0x280>
    30b8:	3c10      	subs	r4, #16
    30ba:	3108      	adds	r1, #8
    30bc:	2c10      	cmp	r4, #16
    30be:	dd15      	ble.n	30ec <_svfprintf_r+0x2ac>
    30c0:	3210      	adds	r2, #16
    30c2:	3301      	adds	r3, #1
    30c4:	600e      	str	r6, [r1, #0]
    30c6:	604d      	str	r5, [r1, #4]
    30c8:	60ba      	str	r2, [r7, #8]
    30ca:	607b      	str	r3, [r7, #4]
    30cc:	2b07      	cmp	r3, #7
    30ce:	ddf3      	ble.n	30b8 <_svfprintf_r+0x278>
    30d0:	003a      	movs	r2, r7
    30d2:	9906      	ldr	r1, [sp, #24]
    30d4:	9809      	ldr	r0, [sp, #36]	; 0x24
    30d6:	f003 f937 	bl	6348 <__ssprint_r>
    30da:	2800      	cmp	r0, #0
    30dc:	d000      	beq.n	30e0 <_svfprintf_r+0x2a0>
    30de:	e736      	b.n	2f4e <_svfprintf_r+0x10e>
    30e0:	3c10      	subs	r4, #16
    30e2:	68ba      	ldr	r2, [r7, #8]
    30e4:	687b      	ldr	r3, [r7, #4]
    30e6:	a932      	add	r1, sp, #200	; 0xc8
    30e8:	2c10      	cmp	r4, #16
    30ea:	dce9      	bgt.n	30c0 <_svfprintf_r+0x280>
    30ec:	46b0      	mov	r8, r6
    30ee:	000e      	movs	r6, r1
    30f0:	4641      	mov	r1, r8
    30f2:	6074      	str	r4, [r6, #4]
    30f4:	3301      	adds	r3, #1
    30f6:	18a4      	adds	r4, r4, r2
    30f8:	6031      	str	r1, [r6, #0]
    30fa:	60bc      	str	r4, [r7, #8]
    30fc:	607b      	str	r3, [r7, #4]
    30fe:	2b07      	cmp	r3, #7
    3100:	dd01      	ble.n	3106 <_svfprintf_r+0x2c6>
    3102:	f000 fca8 	bl	3a56 <_svfprintf_r+0xc16>
    3106:	ab16      	add	r3, sp, #88	; 0x58
    3108:	7fdb      	ldrb	r3, [r3, #31]
    310a:	3608      	adds	r6, #8
    310c:	4698      	mov	r8, r3
    310e:	e212      	b.n	3536 <_svfprintf_r+0x6f6>
    3110:	468b      	mov	fp, r1
    3112:	4641      	mov	r1, r8
    3114:	9312      	str	r3, [sp, #72]	; 0x48
    3116:	2900      	cmp	r1, #0
    3118:	d001      	beq.n	311e <_svfprintf_r+0x2de>
    311a:	f001 f977 	bl	440c <_svfprintf_r+0x15cc>
    311e:	2207      	movs	r2, #7
    3120:	9b0f      	ldr	r3, [sp, #60]	; 0x3c
    3122:	3307      	adds	r3, #7
    3124:	4393      	bics	r3, r2
    3126:	3201      	adds	r2, #1
    3128:	4694      	mov	ip, r2
    312a:	449c      	add	ip, r3
    312c:	4662      	mov	r2, ip
    312e:	920f      	str	r2, [sp, #60]	; 0x3c
    3130:	681a      	ldr	r2, [r3, #0]
    3132:	9216      	str	r2, [sp, #88]	; 0x58
    3134:	685b      	ldr	r3, [r3, #4]
    3136:	2201      	movs	r2, #1
    3138:	9315      	str	r3, [sp, #84]	; 0x54
    313a:	9b15      	ldr	r3, [sp, #84]	; 0x54
    313c:	9d16      	ldr	r5, [sp, #88]	; 0x58
    313e:	005b      	lsls	r3, r3, #1
    3140:	085b      	lsrs	r3, r3, #1
    3142:	4698      	mov	r8, r3
    3144:	4252      	negs	r2, r2
    3146:	4b4d      	ldr	r3, [pc, #308]	; (327c <_svfprintf_r+0x43c>)
    3148:	0028      	movs	r0, r5
    314a:	4641      	mov	r1, r8
    314c:	f005 faaa 	bl	86a4 <__aeabi_dcmpun>
    3150:	2800      	cmp	r0, #0
    3152:	d001      	beq.n	3158 <_svfprintf_r+0x318>
    3154:	f000 fdfd 	bl	3d52 <_svfprintf_r+0xf12>
    3158:	2201      	movs	r2, #1
    315a:	4b48      	ldr	r3, [pc, #288]	; (327c <_svfprintf_r+0x43c>)
    315c:	4252      	negs	r2, r2
    315e:	0028      	movs	r0, r5
    3160:	4641      	mov	r1, r8
    3162:	f003 fda7 	bl	6cb4 <__aeabi_dcmple>
    3166:	2800      	cmp	r0, #0
    3168:	d001      	beq.n	316e <_svfprintf_r+0x32e>
    316a:	f000 fdf2 	bl	3d52 <_svfprintf_r+0xf12>
    316e:	2200      	movs	r2, #0
    3170:	2300      	movs	r3, #0
    3172:	9816      	ldr	r0, [sp, #88]	; 0x58
    3174:	9915      	ldr	r1, [sp, #84]	; 0x54
    3176:	f003 fd93 	bl	6ca0 <__aeabi_dcmplt>
    317a:	2800      	cmp	r0, #0
    317c:	d001      	beq.n	3182 <_svfprintf_r+0x342>
    317e:	f001 f822 	bl	41c6 <_svfprintf_r+0x1386>
    3182:	ab16      	add	r3, sp, #88	; 0x58
    3184:	7fdb      	ldrb	r3, [r3, #31]
    3186:	4698      	mov	r8, r3
    3188:	9b12      	ldr	r3, [sp, #72]	; 0x48
    318a:	2b47      	cmp	r3, #71	; 0x47
    318c:	dd01      	ble.n	3192 <_svfprintf_r+0x352>
    318e:	f000 fec7 	bl	3f20 <_svfprintf_r+0x10e0>
    3192:	4b3b      	ldr	r3, [pc, #236]	; (3280 <_svfprintf_r+0x440>)
    3194:	9311      	str	r3, [sp, #68]	; 0x44
    3196:	2380      	movs	r3, #128	; 0x80
    3198:	439c      	bics	r4, r3
    319a:	3b7d      	subs	r3, #125	; 0x7d
    319c:	9307      	str	r3, [sp, #28]
    319e:	930e      	str	r3, [sp, #56]	; 0x38
    31a0:	2300      	movs	r3, #0
    31a2:	9408      	str	r4, [sp, #32]
    31a4:	469a      	mov	sl, r3
    31a6:	9313      	str	r3, [sp, #76]	; 0x4c
    31a8:	e762      	b.n	3070 <_svfprintf_r+0x230>
    31aa:	2200      	movs	r2, #0
    31ac:	3b30      	subs	r3, #48	; 0x30
    31ae:	0015      	movs	r5, r2
    31b0:	001a      	movs	r2, r3
    31b2:	0003      	movs	r3, r0
    31b4:	9407      	str	r4, [sp, #28]
    31b6:	0008      	movs	r0, r1
    31b8:	002c      	movs	r4, r5
    31ba:	469b      	mov	fp, r3
    31bc:	00a3      	lsls	r3, r4, #2
    31be:	191c      	adds	r4, r3, r4
    31c0:	7803      	ldrb	r3, [r0, #0]
    31c2:	0064      	lsls	r4, r4, #1
    31c4:	1914      	adds	r4, r2, r4
    31c6:	001a      	movs	r2, r3
    31c8:	3101      	adds	r1, #1
    31ca:	3a30      	subs	r2, #48	; 0x30
    31cc:	0008      	movs	r0, r1
    31ce:	2a09      	cmp	r2, #9
    31d0:	d9f4      	bls.n	31bc <_svfprintf_r+0x37c>
    31d2:	940b      	str	r4, [sp, #44]	; 0x2c
    31d4:	4658      	mov	r0, fp
    31d6:	9c07      	ldr	r4, [sp, #28]
    31d8:	e697      	b.n	2f0a <_svfprintf_r+0xca>
    31da:	2308      	movs	r3, #8
    31dc:	431c      	orrs	r4, r3
    31de:	780b      	ldrb	r3, [r1, #0]
    31e0:	e692      	b.n	2f08 <_svfprintf_r+0xc8>
    31e2:	9312      	str	r3, [sp, #72]	; 0x48
    31e4:	2310      	movs	r3, #16
    31e6:	431c      	orrs	r4, r3
    31e8:	468b      	mov	fp, r1
    31ea:	06a3      	lsls	r3, r4, #26
    31ec:	d500      	bpl.n	31f0 <_svfprintf_r+0x3b0>
    31ee:	e17b      	b.n	34e8 <_svfprintf_r+0x6a8>
    31f0:	06e3      	lsls	r3, r4, #27
    31f2:	d501      	bpl.n	31f8 <_svfprintf_r+0x3b8>
    31f4:	f000 fc7e 	bl	3af4 <_svfprintf_r+0xcb4>
    31f8:	0663      	lsls	r3, r4, #25
    31fa:	d401      	bmi.n	3200 <_svfprintf_r+0x3c0>
    31fc:	f000 fc7a 	bl	3af4 <_svfprintf_r+0xcb4>
    3200:	9b0f      	ldr	r3, [sp, #60]	; 0x3c
    3202:	881a      	ldrh	r2, [r3, #0]
    3204:	920c      	str	r2, [sp, #48]	; 0x30
    3206:	2200      	movs	r2, #0
    3208:	3304      	adds	r3, #4
    320a:	930f      	str	r3, [sp, #60]	; 0x3c
    320c:	2300      	movs	r3, #0
    320e:	920d      	str	r2, [sp, #52]	; 0x34
    3210:	9a0c      	ldr	r2, [sp, #48]	; 0x30
    3212:	2100      	movs	r1, #0
    3214:	a816      	add	r0, sp, #88	; 0x58
    3216:	77c1      	strb	r1, [r0, #31]
    3218:	4688      	mov	r8, r1
    321a:	4651      	mov	r1, sl
    321c:	3101      	adds	r1, #1
    321e:	d000      	beq.n	3222 <_svfprintf_r+0x3e2>
    3220:	e6ff      	b.n	3022 <_svfprintf_r+0x1e2>
    3222:	2a00      	cmp	r2, #0
    3224:	d100      	bne.n	3228 <_svfprintf_r+0x3e8>
    3226:	e335      	b.n	3894 <_svfprintf_r+0xa54>
    3228:	9408      	str	r4, [sp, #32]
    322a:	2b01      	cmp	r3, #1
    322c:	d100      	bne.n	3230 <_svfprintf_r+0x3f0>
    322e:	e3e5      	b.n	39fc <_svfprintf_r+0xbbc>
    3230:	2b02      	cmp	r3, #2
    3232:	d000      	beq.n	3236 <_svfprintf_r+0x3f6>
    3234:	e362      	b.n	38fc <_svfprintf_r+0xabc>
    3236:	9c17      	ldr	r4, [sp, #92]	; 0x5c
    3238:	200f      	movs	r0, #15
    323a:	46a1      	mov	r9, r4
    323c:	46b4      	mov	ip, r6
    323e:	ab32      	add	r3, sp, #200	; 0xc8
    3240:	0019      	movs	r1, r3
    3242:	9a0c      	ldr	r2, [sp, #48]	; 0x30
    3244:	9b0d      	ldr	r3, [sp, #52]	; 0x34
    3246:	0004      	movs	r4, r0
    3248:	464d      	mov	r5, r9
    324a:	4014      	ands	r4, r2
    324c:	5d2c      	ldrb	r4, [r5, r4]
    324e:	071e      	lsls	r6, r3, #28
    3250:	0915      	lsrs	r5, r2, #4
    3252:	3901      	subs	r1, #1
    3254:	432e      	orrs	r6, r5
    3256:	700c      	strb	r4, [r1, #0]
    3258:	091c      	lsrs	r4, r3, #4
    325a:	0023      	movs	r3, r4
    325c:	0034      	movs	r4, r6
    325e:	0032      	movs	r2, r6
    3260:	431c      	orrs	r4, r3
    3262:	d1f0      	bne.n	3246 <_svfprintf_r+0x406>
    3264:	920c      	str	r2, [sp, #48]	; 0x30
    3266:	930d      	str	r3, [sp, #52]	; 0x34
    3268:	ab32      	add	r3, sp, #200	; 0xc8
    326a:	1a5b      	subs	r3, r3, r1
    326c:	9111      	str	r1, [sp, #68]	; 0x44
    326e:	4666      	mov	r6, ip
    3270:	930e      	str	r3, [sp, #56]	; 0x38
    3272:	e6f5      	b.n	3060 <_svfprintf_r+0x220>
    3274:	00008b24 	.word	0x00008b24
    3278:	00008ccc 	.word	0x00008ccc
    327c:	7fefffff 	.word	0x7fefffff
    3280:	00008c88 	.word	0x00008c88
    3284:	9312      	str	r3, [sp, #72]	; 0x48
    3286:	2310      	movs	r3, #16
    3288:	431c      	orrs	r4, r3
    328a:	468b      	mov	fp, r1
    328c:	06a3      	lsls	r3, r4, #26
    328e:	d500      	bpl.n	3292 <_svfprintf_r+0x452>
    3290:	e111      	b.n	34b6 <_svfprintf_r+0x676>
    3292:	06e3      	lsls	r3, r4, #27
    3294:	d501      	bpl.n	329a <_svfprintf_r+0x45a>
    3296:	f000 fc31 	bl	3afc <_svfprintf_r+0xcbc>
    329a:	0663      	lsls	r3, r4, #25
    329c:	d401      	bmi.n	32a2 <_svfprintf_r+0x462>
    329e:	f000 fc2d 	bl	3afc <_svfprintf_r+0xcbc>
    32a2:	9b0f      	ldr	r3, [sp, #60]	; 0x3c
    32a4:	881a      	ldrh	r2, [r3, #0]
    32a6:	920c      	str	r2, [sp, #48]	; 0x30
    32a8:	2200      	movs	r2, #0
    32aa:	3304      	adds	r3, #4
    32ac:	920d      	str	r2, [sp, #52]	; 0x34
    32ae:	930f      	str	r3, [sp, #60]	; 0x3c
    32b0:	9a0c      	ldr	r2, [sp, #48]	; 0x30
    32b2:	2301      	movs	r3, #1
    32b4:	e7ad      	b.n	3212 <_svfprintf_r+0x3d2>
    32b6:	468b      	mov	fp, r1
    32b8:	4641      	mov	r1, r8
    32ba:	9312      	str	r3, [sp, #72]	; 0x48
    32bc:	2900      	cmp	r1, #0
    32be:	d001      	beq.n	32c4 <_svfprintf_r+0x484>
    32c0:	f001 f890 	bl	43e4 <_svfprintf_r+0x15a4>
    32c4:	4bb8      	ldr	r3, [pc, #736]	; (35a8 <_svfprintf_r+0x768>)
    32c6:	9317      	str	r3, [sp, #92]	; 0x5c
    32c8:	06a3      	lsls	r3, r4, #26
    32ca:	d500      	bpl.n	32ce <_svfprintf_r+0x48e>
    32cc:	e0ab      	b.n	3426 <_svfprintf_r+0x5e6>
    32ce:	06e3      	lsls	r3, r4, #27
    32d0:	d501      	bpl.n	32d6 <_svfprintf_r+0x496>
    32d2:	f000 fc07 	bl	3ae4 <_svfprintf_r+0xca4>
    32d6:	0663      	lsls	r3, r4, #25
    32d8:	d401      	bmi.n	32de <_svfprintf_r+0x49e>
    32da:	f000 fc03 	bl	3ae4 <_svfprintf_r+0xca4>
    32de:	9b0f      	ldr	r3, [sp, #60]	; 0x3c
    32e0:	881a      	ldrh	r2, [r3, #0]
    32e2:	920c      	str	r2, [sp, #48]	; 0x30
    32e4:	2200      	movs	r2, #0
    32e6:	3304      	adds	r3, #4
    32e8:	920d      	str	r2, [sp, #52]	; 0x34
    32ea:	930f      	str	r3, [sp, #60]	; 0x3c
    32ec:	07e3      	lsls	r3, r4, #31
    32ee:	d400      	bmi.n	32f2 <_svfprintf_r+0x4b2>
    32f0:	e0a9      	b.n	3446 <_svfprintf_r+0x606>
    32f2:	990c      	ldr	r1, [sp, #48]	; 0x30
    32f4:	9a0d      	ldr	r2, [sp, #52]	; 0x34
    32f6:	000b      	movs	r3, r1
    32f8:	4313      	orrs	r3, r2
    32fa:	001a      	movs	r2, r3
    32fc:	2302      	movs	r3, #2
    32fe:	2a00      	cmp	r2, #0
    3300:	d100      	bne.n	3304 <_svfprintf_r+0x4c4>
    3302:	e786      	b.n	3212 <_svfprintf_r+0x3d2>
    3304:	2030      	movs	r0, #48	; 0x30
    3306:	a91e      	add	r1, sp, #120	; 0x78
    3308:	7008      	strb	r0, [r1, #0]
    330a:	2548      	movs	r5, #72	; 0x48
    330c:	4668      	mov	r0, sp
    330e:	1940      	adds	r0, r0, r5
    3310:	7800      	ldrb	r0, [r0, #0]
    3312:	431c      	orrs	r4, r3
    3314:	7048      	strb	r0, [r1, #1]
    3316:	e77c      	b.n	3212 <_svfprintf_r+0x3d2>
    3318:	468b      	mov	fp, r1
    331a:	4641      	mov	r1, r8
    331c:	2900      	cmp	r1, #0
    331e:	d001      	beq.n	3324 <_svfprintf_r+0x4e4>
    3320:	f001 f883 	bl	442a <_svfprintf_r+0x15ea>
    3324:	06a3      	lsls	r3, r4, #26
    3326:	d501      	bpl.n	332c <_svfprintf_r+0x4ec>
    3328:	f000 fde9 	bl	3efe <_svfprintf_r+0x10be>
    332c:	06e3      	lsls	r3, r4, #27
    332e:	d501      	bpl.n	3334 <_svfprintf_r+0x4f4>
    3330:	f000 fd9b 	bl	3e6a <_svfprintf_r+0x102a>
    3334:	0663      	lsls	r3, r4, #25
    3336:	d401      	bmi.n	333c <_svfprintf_r+0x4fc>
    3338:	f000 fd97 	bl	3e6a <_svfprintf_r+0x102a>
    333c:	4669      	mov	r1, sp
    333e:	9b0f      	ldr	r3, [sp, #60]	; 0x3c
    3340:	8d09      	ldrh	r1, [r1, #40]	; 0x28
    3342:	681a      	ldr	r2, [r3, #0]
    3344:	3304      	adds	r3, #4
    3346:	9207      	str	r2, [sp, #28]
    3348:	8011      	strh	r1, [r2, #0]
    334a:	930f      	str	r3, [sp, #60]	; 0x3c
    334c:	e5a3      	b.n	2e96 <_svfprintf_r+0x56>
    334e:	464b      	mov	r3, r9
    3350:	431c      	orrs	r4, r3
    3352:	780b      	ldrb	r3, [r1, #0]
    3354:	e5d8      	b.n	2f08 <_svfprintf_r+0xc8>
    3356:	9312      	str	r3, [sp, #72]	; 0x48
    3358:	9b0f      	ldr	r3, [sp, #60]	; 0x3c
    335a:	468b      	mov	fp, r1
    335c:	1d1d      	adds	r5, r3, #4
    335e:	681b      	ldr	r3, [r3, #0]
    3360:	a916      	add	r1, sp, #88	; 0x58
    3362:	001a      	movs	r2, r3
    3364:	9311      	str	r3, [sp, #68]	; 0x44
    3366:	2300      	movs	r3, #0
    3368:	77cb      	strb	r3, [r1, #31]
    336a:	2a00      	cmp	r2, #0
    336c:	d101      	bne.n	3372 <_svfprintf_r+0x532>
    336e:	f000 fefb 	bl	4168 <_svfprintf_r+0x1328>
    3372:	4653      	mov	r3, sl
    3374:	3301      	adds	r3, #1
    3376:	d101      	bne.n	337c <_svfprintf_r+0x53c>
    3378:	f000 fe38 	bl	3fec <_svfprintf_r+0x11ac>
    337c:	4652      	mov	r2, sl
    337e:	2100      	movs	r1, #0
    3380:	9811      	ldr	r0, [sp, #68]	; 0x44
    3382:	f002 fbc3 	bl	5b0c <memchr>
    3386:	2800      	cmp	r0, #0
    3388:	d101      	bne.n	338e <_svfprintf_r+0x54e>
    338a:	f000 ff54 	bl	4236 <_svfprintf_r+0x13f6>
    338e:	9b11      	ldr	r3, [sp, #68]	; 0x44
    3390:	1ac3      	subs	r3, r0, r3
    3392:	001a      	movs	r2, r3
    3394:	930e      	str	r3, [sp, #56]	; 0x38
    3396:	43db      	mvns	r3, r3
    3398:	17db      	asrs	r3, r3, #31
    339a:	401a      	ands	r2, r3
    339c:	ab16      	add	r3, sp, #88	; 0x58
    339e:	7fdb      	ldrb	r3, [r3, #31]
    33a0:	9207      	str	r2, [sp, #28]
    33a2:	4698      	mov	r8, r3
    33a4:	2300      	movs	r3, #0
    33a6:	950f      	str	r5, [sp, #60]	; 0x3c
    33a8:	9408      	str	r4, [sp, #32]
    33aa:	469a      	mov	sl, r3
    33ac:	9313      	str	r3, [sp, #76]	; 0x4c
    33ae:	e65f      	b.n	3070 <_svfprintf_r+0x230>
    33b0:	9a0f      	ldr	r2, [sp, #60]	; 0x3c
    33b2:	9312      	str	r3, [sp, #72]	; 0x48
    33b4:	6813      	ldr	r3, [r2, #0]
    33b6:	ad28      	add	r5, sp, #160	; 0xa0
    33b8:	9307      	str	r3, [sp, #28]
    33ba:	466b      	mov	r3, sp
    33bc:	7f1b      	ldrb	r3, [r3, #28]
    33be:	468b      	mov	fp, r1
    33c0:	702b      	strb	r3, [r5, #0]
    33c2:	2300      	movs	r3, #0
    33c4:	a916      	add	r1, sp, #88	; 0x58
    33c6:	77cb      	strb	r3, [r1, #31]
    33c8:	0013      	movs	r3, r2
    33ca:	3304      	adds	r3, #4
    33cc:	930f      	str	r3, [sp, #60]	; 0x3c
    33ce:	2300      	movs	r3, #0
    33d0:	9408      	str	r4, [sp, #32]
    33d2:	4698      	mov	r8, r3
    33d4:	3301      	adds	r3, #1
    33d6:	9307      	str	r3, [sp, #28]
    33d8:	930e      	str	r3, [sp, #56]	; 0x38
    33da:	2300      	movs	r3, #0
    33dc:	9511      	str	r5, [sp, #68]	; 0x44
    33de:	469a      	mov	sl, r3
    33e0:	9313      	str	r3, [sp, #76]	; 0x4c
    33e2:	e64b      	b.n	307c <_svfprintf_r+0x23c>
    33e4:	468b      	mov	fp, r1
    33e6:	4641      	mov	r1, r8
    33e8:	9312      	str	r3, [sp, #72]	; 0x48
    33ea:	2900      	cmp	r1, #0
    33ec:	d100      	bne.n	33f0 <_svfprintf_r+0x5b0>
    33ee:	e5f4      	b.n	2fda <_svfprintf_r+0x19a>
    33f0:	ab16      	add	r3, sp, #88	; 0x58
    33f2:	77d8      	strb	r0, [r3, #31]
    33f4:	e5f1      	b.n	2fda <_svfprintf_r+0x19a>
    33f6:	4663      	mov	r3, ip
    33f8:	431c      	orrs	r4, r3
    33fa:	780b      	ldrb	r3, [r1, #0]
    33fc:	e584      	b.n	2f08 <_svfprintf_r+0xc8>
    33fe:	780b      	ldrb	r3, [r1, #0]
    3400:	2b6c      	cmp	r3, #108	; 0x6c
    3402:	d101      	bne.n	3408 <_svfprintf_r+0x5c8>
    3404:	f000 fd86 	bl	3f14 <_svfprintf_r+0x10d4>
    3408:	2210      	movs	r2, #16
    340a:	4314      	orrs	r4, r2
    340c:	e57c      	b.n	2f08 <_svfprintf_r+0xc8>
    340e:	468b      	mov	fp, r1
    3410:	4641      	mov	r1, r8
    3412:	9312      	str	r3, [sp, #72]	; 0x48
    3414:	2900      	cmp	r1, #0
    3416:	d001      	beq.n	341c <_svfprintf_r+0x5dc>
    3418:	f000 ffe8 	bl	43ec <_svfprintf_r+0x15ac>
    341c:	4b63      	ldr	r3, [pc, #396]	; (35ac <_svfprintf_r+0x76c>)
    341e:	9317      	str	r3, [sp, #92]	; 0x5c
    3420:	06a3      	lsls	r3, r4, #26
    3422:	d400      	bmi.n	3426 <_svfprintf_r+0x5e6>
    3424:	e753      	b.n	32ce <_svfprintf_r+0x48e>
    3426:	2207      	movs	r2, #7
    3428:	9b0f      	ldr	r3, [sp, #60]	; 0x3c
    342a:	3307      	adds	r3, #7
    342c:	4393      	bics	r3, r2
    342e:	3201      	adds	r2, #1
    3430:	4694      	mov	ip, r2
    3432:	449c      	add	ip, r3
    3434:	4662      	mov	r2, ip
    3436:	920f      	str	r2, [sp, #60]	; 0x3c
    3438:	681a      	ldr	r2, [r3, #0]
    343a:	685b      	ldr	r3, [r3, #4]
    343c:	920c      	str	r2, [sp, #48]	; 0x30
    343e:	930d      	str	r3, [sp, #52]	; 0x34
    3440:	07e3      	lsls	r3, r4, #31
    3442:	d500      	bpl.n	3446 <_svfprintf_r+0x606>
    3444:	e755      	b.n	32f2 <_svfprintf_r+0x4b2>
    3446:	990c      	ldr	r1, [sp, #48]	; 0x30
    3448:	9a0d      	ldr	r2, [sp, #52]	; 0x34
    344a:	0008      	movs	r0, r1
    344c:	4310      	orrs	r0, r2
    344e:	2302      	movs	r3, #2
    3450:	0002      	movs	r2, r0
    3452:	e6de      	b.n	3212 <_svfprintf_r+0x3d2>
    3454:	468b      	mov	fp, r1
    3456:	990f      	ldr	r1, [sp, #60]	; 0x3c
    3458:	2230      	movs	r2, #48	; 0x30
    345a:	680b      	ldr	r3, [r1, #0]
    345c:	930c      	str	r3, [sp, #48]	; 0x30
    345e:	2300      	movs	r3, #0
    3460:	930d      	str	r3, [sp, #52]	; 0x34
    3462:	3302      	adds	r3, #2
    3464:	431c      	orrs	r4, r3
    3466:	ab1e      	add	r3, sp, #120	; 0x78
    3468:	701a      	strb	r2, [r3, #0]
    346a:	3248      	adds	r2, #72	; 0x48
    346c:	705a      	strb	r2, [r3, #1]
    346e:	000b      	movs	r3, r1
    3470:	3304      	adds	r3, #4
    3472:	930f      	str	r3, [sp, #60]	; 0x3c
    3474:	4b4d      	ldr	r3, [pc, #308]	; (35ac <_svfprintf_r+0x76c>)
    3476:	9212      	str	r2, [sp, #72]	; 0x48
    3478:	9317      	str	r3, [sp, #92]	; 0x5c
    347a:	9a0c      	ldr	r2, [sp, #48]	; 0x30
    347c:	2302      	movs	r3, #2
    347e:	e6c8      	b.n	3212 <_svfprintf_r+0x3d2>
    3480:	2301      	movs	r3, #1
    3482:	431c      	orrs	r4, r3
    3484:	780b      	ldrb	r3, [r1, #0]
    3486:	e53f      	b.n	2f08 <_svfprintf_r+0xc8>
    3488:	9b0f      	ldr	r3, [sp, #60]	; 0x3c
    348a:	1d1a      	adds	r2, r3, #4
    348c:	681b      	ldr	r3, [r3, #0]
    348e:	930b      	str	r3, [sp, #44]	; 0x2c
    3490:	2b00      	cmp	r3, #0
    3492:	da00      	bge.n	3496 <_svfprintf_r+0x656>
    3494:	e542      	b.n	2f1c <_svfprintf_r+0xdc>
    3496:	780b      	ldrb	r3, [r1, #0]
    3498:	920f      	str	r2, [sp, #60]	; 0x3c
    349a:	e535      	b.n	2f08 <_svfprintf_r+0xc8>
    349c:	780b      	ldrb	r3, [r1, #0]
    349e:	2800      	cmp	r0, #0
    34a0:	d000      	beq.n	34a4 <_svfprintf_r+0x664>
    34a2:	e531      	b.n	2f08 <_svfprintf_r+0xc8>
    34a4:	2201      	movs	r2, #1
    34a6:	3020      	adds	r0, #32
    34a8:	4690      	mov	r8, r2
    34aa:	e52d      	b.n	2f08 <_svfprintf_r+0xc8>
    34ac:	468b      	mov	fp, r1
    34ae:	9312      	str	r3, [sp, #72]	; 0x48
    34b0:	06a3      	lsls	r3, r4, #26
    34b2:	d400      	bmi.n	34b6 <_svfprintf_r+0x676>
    34b4:	e6ed      	b.n	3292 <_svfprintf_r+0x452>
    34b6:	2207      	movs	r2, #7
    34b8:	9b0f      	ldr	r3, [sp, #60]	; 0x3c
    34ba:	3307      	adds	r3, #7
    34bc:	4393      	bics	r3, r2
    34be:	3201      	adds	r2, #1
    34c0:	4694      	mov	ip, r2
    34c2:	449c      	add	ip, r3
    34c4:	4662      	mov	r2, ip
    34c6:	920f      	str	r2, [sp, #60]	; 0x3c
    34c8:	681a      	ldr	r2, [r3, #0]
    34ca:	685b      	ldr	r3, [r3, #4]
    34cc:	0011      	movs	r1, r2
    34ce:	001a      	movs	r2, r3
    34d0:	0008      	movs	r0, r1
    34d2:	4310      	orrs	r0, r2
    34d4:	910c      	str	r1, [sp, #48]	; 0x30
    34d6:	920d      	str	r2, [sp, #52]	; 0x34
    34d8:	2301      	movs	r3, #1
    34da:	0002      	movs	r2, r0
    34dc:	e699      	b.n	3212 <_svfprintf_r+0x3d2>
    34de:	468b      	mov	fp, r1
    34e0:	9312      	str	r3, [sp, #72]	; 0x48
    34e2:	06a3      	lsls	r3, r4, #26
    34e4:	d400      	bmi.n	34e8 <_svfprintf_r+0x6a8>
    34e6:	e683      	b.n	31f0 <_svfprintf_r+0x3b0>
    34e8:	2207      	movs	r2, #7
    34ea:	9b0f      	ldr	r3, [sp, #60]	; 0x3c
    34ec:	3307      	adds	r3, #7
    34ee:	4393      	bics	r3, r2
    34f0:	3201      	adds	r2, #1
    34f2:	4694      	mov	ip, r2
    34f4:	449c      	add	ip, r3
    34f6:	4662      	mov	r2, ip
    34f8:	920f      	str	r2, [sp, #60]	; 0x3c
    34fa:	681a      	ldr	r2, [r3, #0]
    34fc:	685b      	ldr	r3, [r3, #4]
    34fe:	0011      	movs	r1, r2
    3500:	001a      	movs	r2, r3
    3502:	0008      	movs	r0, r1
    3504:	4310      	orrs	r0, r2
    3506:	910c      	str	r1, [sp, #48]	; 0x30
    3508:	920d      	str	r2, [sp, #52]	; 0x34
    350a:	2300      	movs	r3, #0
    350c:	0002      	movs	r2, r0
    350e:	e680      	b.n	3212 <_svfprintf_r+0x3d2>
    3510:	468b      	mov	fp, r1
    3512:	4641      	mov	r1, r8
    3514:	9312      	str	r3, [sp, #72]	; 0x48
    3516:	2900      	cmp	r1, #0
    3518:	d001      	beq.n	351e <_svfprintf_r+0x6de>
    351a:	f000 ff7f 	bl	441c <_svfprintf_r+0x15dc>
    351e:	9b12      	ldr	r3, [sp, #72]	; 0x48
    3520:	2b00      	cmp	r3, #0
    3522:	d100      	bne.n	3526 <_svfprintf_r+0x6e6>
    3524:	e50b      	b.n	2f3e <_svfprintf_r+0xfe>
    3526:	ad28      	add	r5, sp, #160	; 0xa0
    3528:	702b      	strb	r3, [r5, #0]
    352a:	2300      	movs	r3, #0
    352c:	aa16      	add	r2, sp, #88	; 0x58
    352e:	77d3      	strb	r3, [r2, #31]
    3530:	9408      	str	r4, [sp, #32]
    3532:	e74e      	b.n	33d2 <_svfprintf_r+0x592>
    3534:	68bc      	ldr	r4, [r7, #8]
    3536:	4643      	mov	r3, r8
    3538:	2b00      	cmp	r3, #0
    353a:	d00f      	beq.n	355c <_svfprintf_r+0x71c>
    353c:	aa16      	add	r2, sp, #88	; 0x58
    353e:	231f      	movs	r3, #31
    3540:	4694      	mov	ip, r2
    3542:	4463      	add	r3, ip
    3544:	6033      	str	r3, [r6, #0]
    3546:	2301      	movs	r3, #1
    3548:	6073      	str	r3, [r6, #4]
    354a:	687b      	ldr	r3, [r7, #4]
    354c:	3401      	adds	r4, #1
    354e:	3301      	adds	r3, #1
    3550:	60bc      	str	r4, [r7, #8]
    3552:	607b      	str	r3, [r7, #4]
    3554:	2b07      	cmp	r3, #7
    3556:	dd00      	ble.n	355a <_svfprintf_r+0x71a>
    3558:	e1b3      	b.n	38c2 <_svfprintf_r+0xa82>
    355a:	3608      	adds	r6, #8
    355c:	464b      	mov	r3, r9
    355e:	2b00      	cmp	r3, #0
    3560:	d00c      	beq.n	357c <_svfprintf_r+0x73c>
    3562:	ab1e      	add	r3, sp, #120	; 0x78
    3564:	6033      	str	r3, [r6, #0]
    3566:	2302      	movs	r3, #2
    3568:	6073      	str	r3, [r6, #4]
    356a:	687b      	ldr	r3, [r7, #4]
    356c:	3402      	adds	r4, #2
    356e:	3301      	adds	r3, #1
    3570:	60bc      	str	r4, [r7, #8]
    3572:	607b      	str	r3, [r7, #4]
    3574:	2b07      	cmp	r3, #7
    3576:	dd00      	ble.n	357a <_svfprintf_r+0x73a>
    3578:	e1af      	b.n	38da <_svfprintf_r+0xa9a>
    357a:	3608      	adds	r6, #8
    357c:	9b10      	ldr	r3, [sp, #64]	; 0x40
    357e:	2b80      	cmp	r3, #128	; 0x80
    3580:	d100      	bne.n	3584 <_svfprintf_r+0x744>
    3582:	e120      	b.n	37c6 <_svfprintf_r+0x986>
    3584:	4653      	mov	r3, sl
    3586:	9a0e      	ldr	r2, [sp, #56]	; 0x38
    3588:	1a9d      	subs	r5, r3, r2
    358a:	2d00      	cmp	r5, #0
    358c:	dd3c      	ble.n	3608 <_svfprintf_r+0x7c8>
    358e:	4a08      	ldr	r2, [pc, #32]	; (35b0 <_svfprintf_r+0x770>)
    3590:	687b      	ldr	r3, [r7, #4]
    3592:	4691      	mov	r9, r2
    3594:	2d10      	cmp	r5, #16
    3596:	dd2c      	ble.n	35f2 <_svfprintf_r+0x7b2>
    3598:	2210      	movs	r2, #16
    359a:	0021      	movs	r1, r4
    359c:	4692      	mov	sl, r2
    359e:	9c09      	ldr	r4, [sp, #36]	; 0x24
    35a0:	0032      	movs	r2, r6
    35a2:	002e      	movs	r6, r5
    35a4:	464d      	mov	r5, r9
    35a6:	e009      	b.n	35bc <_svfprintf_r+0x77c>
    35a8:	00008c98 	.word	0x00008c98
    35ac:	00008cac 	.word	0x00008cac
    35b0:	00008cdc 	.word	0x00008cdc
    35b4:	3e10      	subs	r6, #16
    35b6:	3208      	adds	r2, #8
    35b8:	2e10      	cmp	r6, #16
    35ba:	dd16      	ble.n	35ea <_svfprintf_r+0x7aa>
    35bc:	4650      	mov	r0, sl
    35be:	3110      	adds	r1, #16
    35c0:	3301      	adds	r3, #1
    35c2:	6015      	str	r5, [r2, #0]
    35c4:	6050      	str	r0, [r2, #4]
    35c6:	60b9      	str	r1, [r7, #8]
    35c8:	607b      	str	r3, [r7, #4]
    35ca:	2b07      	cmp	r3, #7
    35cc:	ddf2      	ble.n	35b4 <_svfprintf_r+0x774>
    35ce:	003a      	movs	r2, r7
    35d0:	9906      	ldr	r1, [sp, #24]
    35d2:	0020      	movs	r0, r4
    35d4:	f002 feb8 	bl	6348 <__ssprint_r>
    35d8:	2800      	cmp	r0, #0
    35da:	d000      	beq.n	35de <_svfprintf_r+0x79e>
    35dc:	e4b7      	b.n	2f4e <_svfprintf_r+0x10e>
    35de:	3e10      	subs	r6, #16
    35e0:	68b9      	ldr	r1, [r7, #8]
    35e2:	687b      	ldr	r3, [r7, #4]
    35e4:	aa32      	add	r2, sp, #200	; 0xc8
    35e6:	2e10      	cmp	r6, #16
    35e8:	dce8      	bgt.n	35bc <_svfprintf_r+0x77c>
    35ea:	46a9      	mov	r9, r5
    35ec:	000c      	movs	r4, r1
    35ee:	0035      	movs	r5, r6
    35f0:	0016      	movs	r6, r2
    35f2:	464a      	mov	r2, r9
    35f4:	1964      	adds	r4, r4, r5
    35f6:	3301      	adds	r3, #1
    35f8:	6032      	str	r2, [r6, #0]
    35fa:	6075      	str	r5, [r6, #4]
    35fc:	60bc      	str	r4, [r7, #8]
    35fe:	607b      	str	r3, [r7, #4]
    3600:	2b07      	cmp	r3, #7
    3602:	dd00      	ble.n	3606 <_svfprintf_r+0x7c6>
    3604:	e151      	b.n	38aa <_svfprintf_r+0xa6a>
    3606:	3608      	adds	r6, #8
    3608:	9b08      	ldr	r3, [sp, #32]
    360a:	05db      	lsls	r3, r3, #23
    360c:	d500      	bpl.n	3610 <_svfprintf_r+0x7d0>
    360e:	e0b6      	b.n	377e <_svfprintf_r+0x93e>
    3610:	9b11      	ldr	r3, [sp, #68]	; 0x44
    3612:	6033      	str	r3, [r6, #0]
    3614:	9b0e      	ldr	r3, [sp, #56]	; 0x38
    3616:	469c      	mov	ip, r3
    3618:	6073      	str	r3, [r6, #4]
    361a:	687b      	ldr	r3, [r7, #4]
    361c:	4464      	add	r4, ip
    361e:	3301      	adds	r3, #1
    3620:	60bc      	str	r4, [r7, #8]
    3622:	607b      	str	r3, [r7, #4]
    3624:	2b07      	cmp	r3, #7
    3626:	dd00      	ble.n	362a <_svfprintf_r+0x7ea>
    3628:	e09d      	b.n	3766 <_svfprintf_r+0x926>
    362a:	3608      	adds	r6, #8
    362c:	9b08      	ldr	r3, [sp, #32]
    362e:	075b      	lsls	r3, r3, #29
    3630:	d541      	bpl.n	36b6 <_svfprintf_r+0x876>
    3632:	9b0b      	ldr	r3, [sp, #44]	; 0x2c
    3634:	9a07      	ldr	r2, [sp, #28]
    3636:	1a9d      	subs	r5, r3, r2
    3638:	2d00      	cmp	r5, #0
    363a:	dd3c      	ble.n	36b6 <_svfprintf_r+0x876>
    363c:	4ac4      	ldr	r2, [pc, #784]	; (3950 <_svfprintf_r+0xb10>)
    363e:	687b      	ldr	r3, [r7, #4]
    3640:	4690      	mov	r8, r2
    3642:	2d10      	cmp	r5, #16
    3644:	dd26      	ble.n	3694 <_svfprintf_r+0x854>
    3646:	2210      	movs	r2, #16
    3648:	0021      	movs	r1, r4
    364a:	4691      	mov	r9, r2
    364c:	9c09      	ldr	r4, [sp, #36]	; 0x24
    364e:	0032      	movs	r2, r6
    3650:	002e      	movs	r6, r5
    3652:	9d06      	ldr	r5, [sp, #24]
    3654:	e003      	b.n	365e <_svfprintf_r+0x81e>
    3656:	3e10      	subs	r6, #16
    3658:	3208      	adds	r2, #8
    365a:	2e10      	cmp	r6, #16
    365c:	dd17      	ble.n	368e <_svfprintf_r+0x84e>
    365e:	48bc      	ldr	r0, [pc, #752]	; (3950 <_svfprintf_r+0xb10>)
    3660:	3110      	adds	r1, #16
    3662:	6010      	str	r0, [r2, #0]
    3664:	4648      	mov	r0, r9
    3666:	3301      	adds	r3, #1
    3668:	6050      	str	r0, [r2, #4]
    366a:	60b9      	str	r1, [r7, #8]
    366c:	607b      	str	r3, [r7, #4]
    366e:	2b07      	cmp	r3, #7
    3670:	ddf1      	ble.n	3656 <_svfprintf_r+0x816>
    3672:	003a      	movs	r2, r7
    3674:	0029      	movs	r1, r5
    3676:	0020      	movs	r0, r4
    3678:	f002 fe66 	bl	6348 <__ssprint_r>
    367c:	2800      	cmp	r0, #0
    367e:	d000      	beq.n	3682 <_svfprintf_r+0x842>
    3680:	e465      	b.n	2f4e <_svfprintf_r+0x10e>
    3682:	3e10      	subs	r6, #16
    3684:	68b9      	ldr	r1, [r7, #8]
    3686:	687b      	ldr	r3, [r7, #4]
    3688:	aa32      	add	r2, sp, #200	; 0xc8
    368a:	2e10      	cmp	r6, #16
    368c:	dce7      	bgt.n	365e <_svfprintf_r+0x81e>
    368e:	0035      	movs	r5, r6
    3690:	000c      	movs	r4, r1
    3692:	0016      	movs	r6, r2
    3694:	4642      	mov	r2, r8
    3696:	1964      	adds	r4, r4, r5
    3698:	3301      	adds	r3, #1
    369a:	c624      	stmia	r6!, {r2, r5}
    369c:	60bc      	str	r4, [r7, #8]
    369e:	607b      	str	r3, [r7, #4]
    36a0:	2b07      	cmp	r3, #7
    36a2:	dd08      	ble.n	36b6 <_svfprintf_r+0x876>
    36a4:	003a      	movs	r2, r7
    36a6:	9906      	ldr	r1, [sp, #24]
    36a8:	9809      	ldr	r0, [sp, #36]	; 0x24
    36aa:	f002 fe4d 	bl	6348 <__ssprint_r>
    36ae:	2800      	cmp	r0, #0
    36b0:	d000      	beq.n	36b4 <_svfprintf_r+0x874>
    36b2:	e44c      	b.n	2f4e <_svfprintf_r+0x10e>
    36b4:	68bc      	ldr	r4, [r7, #8]
    36b6:	9b0b      	ldr	r3, [sp, #44]	; 0x2c
    36b8:	9907      	ldr	r1, [sp, #28]
    36ba:	428b      	cmp	r3, r1
    36bc:	da00      	bge.n	36c0 <_svfprintf_r+0x880>
    36be:	000b      	movs	r3, r1
    36c0:	9a0a      	ldr	r2, [sp, #40]	; 0x28
    36c2:	4694      	mov	ip, r2
    36c4:	449c      	add	ip, r3
    36c6:	4663      	mov	r3, ip
    36c8:	930a      	str	r3, [sp, #40]	; 0x28
    36ca:	2c00      	cmp	r4, #0
    36cc:	d000      	beq.n	36d0 <_svfprintf_r+0x890>
    36ce:	e0d6      	b.n	387e <_svfprintf_r+0xa3e>
    36d0:	2300      	movs	r3, #0
    36d2:	ae32      	add	r6, sp, #200	; 0xc8
    36d4:	607b      	str	r3, [r7, #4]
    36d6:	f7ff fbde 	bl	2e96 <_svfprintf_r+0x56>
    36da:	9b14      	ldr	r3, [sp, #80]	; 0x50
    36dc:	2b01      	cmp	r3, #1
    36de:	dc00      	bgt.n	36e2 <_svfprintf_r+0x8a2>
    36e0:	e0ae      	b.n	3840 <_svfprintf_r+0xa00>
    36e2:	9b11      	ldr	r3, [sp, #68]	; 0x44
    36e4:	3401      	adds	r4, #1
    36e6:	6033      	str	r3, [r6, #0]
    36e8:	2301      	movs	r3, #1
    36ea:	6073      	str	r3, [r6, #4]
    36ec:	687b      	ldr	r3, [r7, #4]
    36ee:	60bc      	str	r4, [r7, #8]
    36f0:	3301      	adds	r3, #1
    36f2:	607b      	str	r3, [r7, #4]
    36f4:	2b07      	cmp	r3, #7
    36f6:	dd00      	ble.n	36fa <_svfprintf_r+0x8ba>
    36f8:	e2df      	b.n	3cba <_svfprintf_r+0xe7a>
    36fa:	3608      	adds	r6, #8
    36fc:	9a19      	ldr	r2, [sp, #100]	; 0x64
    36fe:	3301      	adds	r3, #1
    3700:	6032      	str	r2, [r6, #0]
    3702:	9a18      	ldr	r2, [sp, #96]	; 0x60
    3704:	4698      	mov	r8, r3
    3706:	4694      	mov	ip, r2
    3708:	4464      	add	r4, ip
    370a:	6072      	str	r2, [r6, #4]
    370c:	60bc      	str	r4, [r7, #8]
    370e:	607b      	str	r3, [r7, #4]
    3710:	2b07      	cmp	r3, #7
    3712:	dd00      	ble.n	3716 <_svfprintf_r+0x8d6>
    3714:	e2de      	b.n	3cd4 <_svfprintf_r+0xe94>
    3716:	3608      	adds	r6, #8
    3718:	2200      	movs	r2, #0
    371a:	2300      	movs	r3, #0
    371c:	9816      	ldr	r0, [sp, #88]	; 0x58
    371e:	9915      	ldr	r1, [sp, #84]	; 0x54
    3720:	f003 fab8 	bl	6c94 <__aeabi_dcmpeq>
    3724:	2800      	cmp	r0, #0
    3726:	d000      	beq.n	372a <_svfprintf_r+0x8ea>
    3728:	e1a4      	b.n	3a74 <_svfprintf_r+0xc34>
    372a:	9d11      	ldr	r5, [sp, #68]	; 0x44
    372c:	9b14      	ldr	r3, [sp, #80]	; 0x50
    372e:	3501      	adds	r5, #1
    3730:	3b01      	subs	r3, #1
    3732:	6035      	str	r5, [r6, #0]
    3734:	6073      	str	r3, [r6, #4]
    3736:	18e4      	adds	r4, r4, r3
    3738:	2301      	movs	r3, #1
    373a:	469c      	mov	ip, r3
    373c:	44e0      	add	r8, ip
    373e:	4643      	mov	r3, r8
    3740:	60bc      	str	r4, [r7, #8]
    3742:	607b      	str	r3, [r7, #4]
    3744:	2b07      	cmp	r3, #7
    3746:	dd00      	ble.n	374a <_svfprintf_r+0x90a>
    3748:	e08b      	b.n	3862 <_svfprintf_r+0xa22>
    374a:	3608      	adds	r6, #8
    374c:	ab21      	add	r3, sp, #132	; 0x84
    374e:	6033      	str	r3, [r6, #0]
    3750:	9b1a      	ldr	r3, [sp, #104]	; 0x68
    3752:	469c      	mov	ip, r3
    3754:	6073      	str	r3, [r6, #4]
    3756:	4643      	mov	r3, r8
    3758:	4464      	add	r4, ip
    375a:	3301      	adds	r3, #1
    375c:	60bc      	str	r4, [r7, #8]
    375e:	607b      	str	r3, [r7, #4]
    3760:	2b07      	cmp	r3, #7
    3762:	dc00      	bgt.n	3766 <_svfprintf_r+0x926>
    3764:	e761      	b.n	362a <_svfprintf_r+0x7ea>
    3766:	003a      	movs	r2, r7
    3768:	9906      	ldr	r1, [sp, #24]
    376a:	9809      	ldr	r0, [sp, #36]	; 0x24
    376c:	f002 fdec 	bl	6348 <__ssprint_r>
    3770:	2800      	cmp	r0, #0
    3772:	d001      	beq.n	3778 <_svfprintf_r+0x938>
    3774:	f7ff fbeb 	bl	2f4e <_svfprintf_r+0x10e>
    3778:	68bc      	ldr	r4, [r7, #8]
    377a:	ae32      	add	r6, sp, #200	; 0xc8
    377c:	e756      	b.n	362c <_svfprintf_r+0x7ec>
    377e:	9b12      	ldr	r3, [sp, #72]	; 0x48
    3780:	2b65      	cmp	r3, #101	; 0x65
    3782:	ddaa      	ble.n	36da <_svfprintf_r+0x89a>
    3784:	2200      	movs	r2, #0
    3786:	2300      	movs	r3, #0
    3788:	9816      	ldr	r0, [sp, #88]	; 0x58
    378a:	9915      	ldr	r1, [sp, #84]	; 0x54
    378c:	f003 fa82 	bl	6c94 <__aeabi_dcmpeq>
    3790:	2800      	cmp	r0, #0
    3792:	d100      	bne.n	3796 <_svfprintf_r+0x956>
    3794:	e0e2      	b.n	395c <_svfprintf_r+0xb1c>
    3796:	4b6f      	ldr	r3, [pc, #444]	; (3954 <_svfprintf_r+0xb14>)
    3798:	3401      	adds	r4, #1
    379a:	6033      	str	r3, [r6, #0]
    379c:	2301      	movs	r3, #1
    379e:	6073      	str	r3, [r6, #4]
    37a0:	687b      	ldr	r3, [r7, #4]
    37a2:	60bc      	str	r4, [r7, #8]
    37a4:	3301      	adds	r3, #1
    37a6:	607b      	str	r3, [r7, #4]
    37a8:	2b07      	cmp	r3, #7
    37aa:	dd00      	ble.n	37ae <_svfprintf_r+0x96e>
    37ac:	e366      	b.n	3e7c <_svfprintf_r+0x103c>
    37ae:	3608      	adds	r6, #8
    37b0:	9b1f      	ldr	r3, [sp, #124]	; 0x7c
    37b2:	9a14      	ldr	r2, [sp, #80]	; 0x50
    37b4:	4293      	cmp	r3, r2
    37b6:	da00      	bge.n	37ba <_svfprintf_r+0x97a>
    37b8:	e1a4      	b.n	3b04 <_svfprintf_r+0xcc4>
    37ba:	9b08      	ldr	r3, [sp, #32]
    37bc:	07db      	lsls	r3, r3, #31
    37be:	d500      	bpl.n	37c2 <_svfprintf_r+0x982>
    37c0:	e1a0      	b.n	3b04 <_svfprintf_r+0xcc4>
    37c2:	68bc      	ldr	r4, [r7, #8]
    37c4:	e732      	b.n	362c <_svfprintf_r+0x7ec>
    37c6:	9b0b      	ldr	r3, [sp, #44]	; 0x2c
    37c8:	9a07      	ldr	r2, [sp, #28]
    37ca:	1a9d      	subs	r5, r3, r2
    37cc:	2d00      	cmp	r5, #0
    37ce:	dc00      	bgt.n	37d2 <_svfprintf_r+0x992>
    37d0:	e6d8      	b.n	3584 <_svfprintf_r+0x744>
    37d2:	4a61      	ldr	r2, [pc, #388]	; (3958 <_svfprintf_r+0xb18>)
    37d4:	687b      	ldr	r3, [r7, #4]
    37d6:	4691      	mov	r9, r2
    37d8:	2d10      	cmp	r5, #16
    37da:	dd25      	ble.n	3828 <_svfprintf_r+0x9e8>
    37dc:	2210      	movs	r2, #16
    37de:	0021      	movs	r1, r4
    37e0:	4690      	mov	r8, r2
    37e2:	9c09      	ldr	r4, [sp, #36]	; 0x24
    37e4:	0032      	movs	r2, r6
    37e6:	464e      	mov	r6, r9
    37e8:	e003      	b.n	37f2 <_svfprintf_r+0x9b2>
    37ea:	3d10      	subs	r5, #16
    37ec:	3208      	adds	r2, #8
    37ee:	2d10      	cmp	r5, #16
    37f0:	dd17      	ble.n	3822 <_svfprintf_r+0x9e2>
    37f2:	4640      	mov	r0, r8
    37f4:	3110      	adds	r1, #16
    37f6:	3301      	adds	r3, #1
    37f8:	6016      	str	r6, [r2, #0]
    37fa:	6050      	str	r0, [r2, #4]
    37fc:	60b9      	str	r1, [r7, #8]
    37fe:	607b      	str	r3, [r7, #4]
    3800:	2b07      	cmp	r3, #7
    3802:	ddf2      	ble.n	37ea <_svfprintf_r+0x9aa>
    3804:	003a      	movs	r2, r7
    3806:	9906      	ldr	r1, [sp, #24]
    3808:	0020      	movs	r0, r4
    380a:	f002 fd9d 	bl	6348 <__ssprint_r>
    380e:	2800      	cmp	r0, #0
    3810:	d001      	beq.n	3816 <_svfprintf_r+0x9d6>
    3812:	f7ff fb9c 	bl	2f4e <_svfprintf_r+0x10e>
    3816:	3d10      	subs	r5, #16
    3818:	68b9      	ldr	r1, [r7, #8]
    381a:	687b      	ldr	r3, [r7, #4]
    381c:	aa32      	add	r2, sp, #200	; 0xc8
    381e:	2d10      	cmp	r5, #16
    3820:	dce7      	bgt.n	37f2 <_svfprintf_r+0x9b2>
    3822:	46b1      	mov	r9, r6
    3824:	000c      	movs	r4, r1
    3826:	0016      	movs	r6, r2
    3828:	464a      	mov	r2, r9
    382a:	1964      	adds	r4, r4, r5
    382c:	3301      	adds	r3, #1
    382e:	6032      	str	r2, [r6, #0]
    3830:	6075      	str	r5, [r6, #4]
    3832:	60bc      	str	r4, [r7, #8]
    3834:	607b      	str	r3, [r7, #4]
    3836:	2b07      	cmp	r3, #7
    3838:	dd00      	ble.n	383c <_svfprintf_r+0x9fc>
    383a:	e27e      	b.n	3d3a <_svfprintf_r+0xefa>
    383c:	3608      	adds	r6, #8
    383e:	e6a1      	b.n	3584 <_svfprintf_r+0x744>
    3840:	2301      	movs	r3, #1
    3842:	9a08      	ldr	r2, [sp, #32]
    3844:	4213      	tst	r3, r2
    3846:	d000      	beq.n	384a <_svfprintf_r+0xa0a>
    3848:	e74b      	b.n	36e2 <_svfprintf_r+0x8a2>
    384a:	6073      	str	r3, [r6, #4]
    384c:	687b      	ldr	r3, [r7, #4]
    384e:	9a11      	ldr	r2, [sp, #68]	; 0x44
    3850:	3301      	adds	r3, #1
    3852:	3401      	adds	r4, #1
    3854:	6032      	str	r2, [r6, #0]
    3856:	60bc      	str	r4, [r7, #8]
    3858:	4698      	mov	r8, r3
    385a:	607b      	str	r3, [r7, #4]
    385c:	2b07      	cmp	r3, #7
    385e:	dc00      	bgt.n	3862 <_svfprintf_r+0xa22>
    3860:	e773      	b.n	374a <_svfprintf_r+0x90a>
    3862:	003a      	movs	r2, r7
    3864:	9906      	ldr	r1, [sp, #24]
    3866:	9809      	ldr	r0, [sp, #36]	; 0x24
    3868:	f002 fd6e 	bl	6348 <__ssprint_r>
    386c:	2800      	cmp	r0, #0
    386e:	d001      	beq.n	3874 <_svfprintf_r+0xa34>
    3870:	f7ff fb6d 	bl	2f4e <_svfprintf_r+0x10e>
    3874:	687b      	ldr	r3, [r7, #4]
    3876:	68bc      	ldr	r4, [r7, #8]
    3878:	4698      	mov	r8, r3
    387a:	ae32      	add	r6, sp, #200	; 0xc8
    387c:	e766      	b.n	374c <_svfprintf_r+0x90c>
    387e:	003a      	movs	r2, r7
    3880:	9906      	ldr	r1, [sp, #24]
    3882:	9809      	ldr	r0, [sp, #36]	; 0x24
    3884:	f002 fd60 	bl	6348 <__ssprint_r>
    3888:	2800      	cmp	r0, #0
    388a:	d100      	bne.n	388e <_svfprintf_r+0xa4e>
    388c:	e720      	b.n	36d0 <_svfprintf_r+0x890>
    388e:	f7ff fb5e 	bl	2f4e <_svfprintf_r+0x10e>
    3892:	9c08      	ldr	r4, [sp, #32]
    3894:	2b01      	cmp	r3, #1
    3896:	d100      	bne.n	389a <_svfprintf_r+0xa5a>
    3898:	e184      	b.n	3ba4 <_svfprintf_r+0xd64>
    389a:	2b02      	cmp	r3, #2
    389c:	d129      	bne.n	38f2 <_svfprintf_r+0xab2>
    389e:	9408      	str	r4, [sp, #32]
    38a0:	2300      	movs	r3, #0
    38a2:	2400      	movs	r4, #0
    38a4:	930c      	str	r3, [sp, #48]	; 0x30
    38a6:	940d      	str	r4, [sp, #52]	; 0x34
    38a8:	e4c5      	b.n	3236 <_svfprintf_r+0x3f6>
    38aa:	003a      	movs	r2, r7
    38ac:	9906      	ldr	r1, [sp, #24]
    38ae:	9809      	ldr	r0, [sp, #36]	; 0x24
    38b0:	f002 fd4a 	bl	6348 <__ssprint_r>
    38b4:	2800      	cmp	r0, #0
    38b6:	d001      	beq.n	38bc <_svfprintf_r+0xa7c>
    38b8:	f7ff fb49 	bl	2f4e <_svfprintf_r+0x10e>
    38bc:	68bc      	ldr	r4, [r7, #8]
    38be:	ae32      	add	r6, sp, #200	; 0xc8
    38c0:	e6a2      	b.n	3608 <_svfprintf_r+0x7c8>
    38c2:	003a      	movs	r2, r7
    38c4:	9906      	ldr	r1, [sp, #24]
    38c6:	9809      	ldr	r0, [sp, #36]	; 0x24
    38c8:	f002 fd3e 	bl	6348 <__ssprint_r>
    38cc:	2800      	cmp	r0, #0
    38ce:	d001      	beq.n	38d4 <_svfprintf_r+0xa94>
    38d0:	f7ff fb3d 	bl	2f4e <_svfprintf_r+0x10e>
    38d4:	68bc      	ldr	r4, [r7, #8]
    38d6:	ae32      	add	r6, sp, #200	; 0xc8
    38d8:	e640      	b.n	355c <_svfprintf_r+0x71c>
    38da:	003a      	movs	r2, r7
    38dc:	9906      	ldr	r1, [sp, #24]
    38de:	9809      	ldr	r0, [sp, #36]	; 0x24
    38e0:	f002 fd32 	bl	6348 <__ssprint_r>
    38e4:	2800      	cmp	r0, #0
    38e6:	d001      	beq.n	38ec <_svfprintf_r+0xaac>
    38e8:	f7ff fb31 	bl	2f4e <_svfprintf_r+0x10e>
    38ec:	68bc      	ldr	r4, [r7, #8]
    38ee:	ae32      	add	r6, sp, #200	; 0xc8
    38f0:	e644      	b.n	357c <_svfprintf_r+0x73c>
    38f2:	9408      	str	r4, [sp, #32]
    38f4:	2300      	movs	r3, #0
    38f6:	2400      	movs	r4, #0
    38f8:	930c      	str	r3, [sp, #48]	; 0x30
    38fa:	940d      	str	r4, [sp, #52]	; 0x34
    38fc:	980c      	ldr	r0, [sp, #48]	; 0x30
    38fe:	990d      	ldr	r1, [sp, #52]	; 0x34
    3900:	465b      	mov	r3, fp
    3902:	aa32      	add	r2, sp, #200	; 0xc8
    3904:	9307      	str	r3, [sp, #28]
    3906:	4691      	mov	r9, r2
    3908:	46b3      	mov	fp, r6
    390a:	e000      	b.n	390e <_svfprintf_r+0xace>
    390c:	46a1      	mov	r9, r4
    390e:	074a      	lsls	r2, r1, #29
    3910:	4694      	mov	ip, r2
    3912:	464b      	mov	r3, r9
    3914:	4665      	mov	r5, ip
    3916:	1e5c      	subs	r4, r3, #1
    3918:	08c6      	lsrs	r6, r0, #3
    391a:	2307      	movs	r3, #7
    391c:	08ca      	lsrs	r2, r1, #3
    391e:	4335      	orrs	r5, r6
    3920:	0011      	movs	r1, r2
    3922:	002a      	movs	r2, r5
    3924:	4003      	ands	r3, r0
    3926:	3330      	adds	r3, #48	; 0x30
    3928:	7023      	strb	r3, [r4, #0]
    392a:	0028      	movs	r0, r5
    392c:	430a      	orrs	r2, r1
    392e:	d1ed      	bne.n	390c <_svfprintf_r+0xacc>
    3930:	900c      	str	r0, [sp, #48]	; 0x30
    3932:	910d      	str	r1, [sp, #52]	; 0x34
    3934:	9907      	ldr	r1, [sp, #28]
    3936:	465e      	mov	r6, fp
    3938:	468b      	mov	fp, r1
    393a:	9908      	ldr	r1, [sp, #32]
    393c:	464a      	mov	r2, r9
    393e:	9411      	str	r4, [sp, #68]	; 0x44
    3940:	07c9      	lsls	r1, r1, #31
    3942:	d500      	bpl.n	3946 <_svfprintf_r+0xb06>
    3944:	e13d      	b.n	3bc2 <_svfprintf_r+0xd82>
    3946:	ab32      	add	r3, sp, #200	; 0xc8
    3948:	1b1b      	subs	r3, r3, r4
    394a:	930e      	str	r3, [sp, #56]	; 0x38
    394c:	f7ff fb88 	bl	3060 <_svfprintf_r+0x220>
    3950:	00008ccc 	.word	0x00008ccc
    3954:	00008cc8 	.word	0x00008cc8
    3958:	00008cdc 	.word	0x00008cdc
    395c:	981f      	ldr	r0, [sp, #124]	; 0x7c
    395e:	2800      	cmp	r0, #0
    3960:	dc00      	bgt.n	3964 <_svfprintf_r+0xb24>
    3962:	e296      	b.n	3e92 <_svfprintf_r+0x1052>
    3964:	9a13      	ldr	r2, [sp, #76]	; 0x4c
    3966:	9914      	ldr	r1, [sp, #80]	; 0x50
    3968:	0013      	movs	r3, r2
    396a:	4690      	mov	r8, r2
    396c:	428b      	cmp	r3, r1
    396e:	dd00      	ble.n	3972 <_svfprintf_r+0xb32>
    3970:	4688      	mov	r8, r1
    3972:	4643      	mov	r3, r8
    3974:	2b00      	cmp	r3, #0
    3976:	dd0c      	ble.n	3992 <_svfprintf_r+0xb52>
    3978:	9b11      	ldr	r3, [sp, #68]	; 0x44
    397a:	4444      	add	r4, r8
    397c:	6033      	str	r3, [r6, #0]
    397e:	4643      	mov	r3, r8
    3980:	6073      	str	r3, [r6, #4]
    3982:	687b      	ldr	r3, [r7, #4]
    3984:	60bc      	str	r4, [r7, #8]
    3986:	3301      	adds	r3, #1
    3988:	607b      	str	r3, [r7, #4]
    398a:	2b07      	cmp	r3, #7
    398c:	dd00      	ble.n	3990 <_svfprintf_r+0xb50>
    398e:	e3b7      	b.n	4100 <_svfprintf_r+0x12c0>
    3990:	3608      	adds	r6, #8
    3992:	4643      	mov	r3, r8
    3994:	43db      	mvns	r3, r3
    3996:	4642      	mov	r2, r8
    3998:	17db      	asrs	r3, r3, #31
    399a:	4013      	ands	r3, r2
    399c:	9a13      	ldr	r2, [sp, #76]	; 0x4c
    399e:	1ad3      	subs	r3, r2, r3
    39a0:	4698      	mov	r8, r3
    39a2:	2b00      	cmp	r3, #0
    39a4:	dc00      	bgt.n	39a8 <_svfprintf_r+0xb68>
    39a6:	e128      	b.n	3bfa <_svfprintf_r+0xdba>
    39a8:	2b10      	cmp	r3, #16
    39aa:	dc01      	bgt.n	39b0 <_svfprintf_r+0xb70>
    39ac:	f000 fce7 	bl	437e <_svfprintf_r+0x153e>
    39b0:	4acf      	ldr	r2, [pc, #828]	; (3cf0 <_svfprintf_r+0xeb0>)
    39b2:	0021      	movs	r1, r4
    39b4:	4691      	mov	r9, r2
    39b6:	2210      	movs	r2, #16
    39b8:	687b      	ldr	r3, [r7, #4]
    39ba:	4692      	mov	sl, r2
    39bc:	9d09      	ldr	r5, [sp, #36]	; 0x24
    39be:	0032      	movs	r2, r6
    39c0:	464c      	mov	r4, r9
    39c2:	4646      	mov	r6, r8
    39c4:	e004      	b.n	39d0 <_svfprintf_r+0xb90>
    39c6:	3208      	adds	r2, #8
    39c8:	3e10      	subs	r6, #16
    39ca:	2e10      	cmp	r6, #16
    39cc:	dc00      	bgt.n	39d0 <_svfprintf_r+0xb90>
    39ce:	e104      	b.n	3bda <_svfprintf_r+0xd9a>
    39d0:	4650      	mov	r0, sl
    39d2:	3110      	adds	r1, #16
    39d4:	3301      	adds	r3, #1
    39d6:	6014      	str	r4, [r2, #0]
    39d8:	6050      	str	r0, [r2, #4]
    39da:	60b9      	str	r1, [r7, #8]
    39dc:	607b      	str	r3, [r7, #4]
    39de:	2b07      	cmp	r3, #7
    39e0:	ddf1      	ble.n	39c6 <_svfprintf_r+0xb86>
    39e2:	003a      	movs	r2, r7
    39e4:	9906      	ldr	r1, [sp, #24]
    39e6:	0028      	movs	r0, r5
    39e8:	f002 fcae 	bl	6348 <__ssprint_r>
    39ec:	2800      	cmp	r0, #0
    39ee:	d001      	beq.n	39f4 <_svfprintf_r+0xbb4>
    39f0:	f7ff faad 	bl	2f4e <_svfprintf_r+0x10e>
    39f4:	68b9      	ldr	r1, [r7, #8]
    39f6:	687b      	ldr	r3, [r7, #4]
    39f8:	aa32      	add	r2, sp, #200	; 0xc8
    39fa:	e7e5      	b.n	39c8 <_svfprintf_r+0xb88>
    39fc:	9b0d      	ldr	r3, [sp, #52]	; 0x34
    39fe:	2b00      	cmp	r3, #0
    3a00:	d100      	bne.n	3a04 <_svfprintf_r+0xbc4>
    3a02:	e0ca      	b.n	3b9a <_svfprintf_r+0xd5a>
    3a04:	9c0c      	ldr	r4, [sp, #48]	; 0x30
    3a06:	9d0d      	ldr	r5, [sp, #52]	; 0x34
    3a08:	ab32      	add	r3, sp, #200	; 0xc8
    3a0a:	46b1      	mov	r9, r6
    3a0c:	001e      	movs	r6, r3
    3a0e:	0020      	movs	r0, r4
    3a10:	0029      	movs	r1, r5
    3a12:	220a      	movs	r2, #10
    3a14:	2300      	movs	r3, #0
    3a16:	f7ff f879 	bl	2b0c <__aeabi_uldivmod>
    3a1a:	3e01      	subs	r6, #1
    3a1c:	3230      	adds	r2, #48	; 0x30
    3a1e:	7032      	strb	r2, [r6, #0]
    3a20:	2300      	movs	r3, #0
    3a22:	0020      	movs	r0, r4
    3a24:	0029      	movs	r1, r5
    3a26:	220a      	movs	r2, #10
    3a28:	f7ff f870 	bl	2b0c <__aeabi_uldivmod>
    3a2c:	0003      	movs	r3, r0
    3a2e:	0004      	movs	r4, r0
    3a30:	000d      	movs	r5, r1
    3a32:	430b      	orrs	r3, r1
    3a34:	d1eb      	bne.n	3a0e <_svfprintf_r+0xbce>
    3a36:	0032      	movs	r2, r6
    3a38:	ab32      	add	r3, sp, #200	; 0xc8
    3a3a:	1a9b      	subs	r3, r3, r2
    3a3c:	9611      	str	r6, [sp, #68]	; 0x44
    3a3e:	940c      	str	r4, [sp, #48]	; 0x30
    3a40:	950d      	str	r5, [sp, #52]	; 0x34
    3a42:	464e      	mov	r6, r9
    3a44:	930e      	str	r3, [sp, #56]	; 0x38
    3a46:	f7ff fb0b 	bl	3060 <_svfprintf_r+0x220>
    3a4a:	2300      	movs	r3, #0
    3a4c:	930e      	str	r3, [sp, #56]	; 0x38
    3a4e:	ab32      	add	r3, sp, #200	; 0xc8
    3a50:	9311      	str	r3, [sp, #68]	; 0x44
    3a52:	f7ff fb05 	bl	3060 <_svfprintf_r+0x220>
    3a56:	003a      	movs	r2, r7
    3a58:	9906      	ldr	r1, [sp, #24]
    3a5a:	9809      	ldr	r0, [sp, #36]	; 0x24
    3a5c:	f002 fc74 	bl	6348 <__ssprint_r>
    3a60:	2800      	cmp	r0, #0
    3a62:	d001      	beq.n	3a68 <_svfprintf_r+0xc28>
    3a64:	f7ff fa73 	bl	2f4e <_svfprintf_r+0x10e>
    3a68:	ab16      	add	r3, sp, #88	; 0x58
    3a6a:	7fdb      	ldrb	r3, [r3, #31]
    3a6c:	68bc      	ldr	r4, [r7, #8]
    3a6e:	4698      	mov	r8, r3
    3a70:	ae32      	add	r6, sp, #200	; 0xc8
    3a72:	e560      	b.n	3536 <_svfprintf_r+0x6f6>
    3a74:	9b14      	ldr	r3, [sp, #80]	; 0x50
    3a76:	1e5d      	subs	r5, r3, #1
    3a78:	2d00      	cmp	r5, #0
    3a7a:	dc00      	bgt.n	3a7e <_svfprintf_r+0xc3e>
    3a7c:	e666      	b.n	374c <_svfprintf_r+0x90c>
    3a7e:	4b9c      	ldr	r3, [pc, #624]	; (3cf0 <_svfprintf_r+0xeb0>)
    3a80:	4699      	mov	r9, r3
    3a82:	2d10      	cmp	r5, #16
    3a84:	dd29      	ble.n	3ada <_svfprintf_r+0xc9a>
    3a86:	2310      	movs	r3, #16
    3a88:	0032      	movs	r2, r6
    3a8a:	469a      	mov	sl, r3
    3a8c:	002e      	movs	r6, r5
    3a8e:	0021      	movs	r1, r4
    3a90:	4643      	mov	r3, r8
    3a92:	9c09      	ldr	r4, [sp, #36]	; 0x24
    3a94:	464d      	mov	r5, r9
    3a96:	e003      	b.n	3aa0 <_svfprintf_r+0xc60>
    3a98:	3e10      	subs	r6, #16
    3a9a:	3208      	adds	r2, #8
    3a9c:	2e10      	cmp	r6, #16
    3a9e:	dd17      	ble.n	3ad0 <_svfprintf_r+0xc90>
    3aa0:	4650      	mov	r0, sl
    3aa2:	3110      	adds	r1, #16
    3aa4:	3301      	adds	r3, #1
    3aa6:	6015      	str	r5, [r2, #0]
    3aa8:	6050      	str	r0, [r2, #4]
    3aaa:	60b9      	str	r1, [r7, #8]
    3aac:	607b      	str	r3, [r7, #4]
    3aae:	2b07      	cmp	r3, #7
    3ab0:	ddf2      	ble.n	3a98 <_svfprintf_r+0xc58>
    3ab2:	003a      	movs	r2, r7
    3ab4:	9906      	ldr	r1, [sp, #24]
    3ab6:	0020      	movs	r0, r4
    3ab8:	f002 fc46 	bl	6348 <__ssprint_r>
    3abc:	2800      	cmp	r0, #0
    3abe:	d001      	beq.n	3ac4 <_svfprintf_r+0xc84>
    3ac0:	f7ff fa45 	bl	2f4e <_svfprintf_r+0x10e>
    3ac4:	3e10      	subs	r6, #16
    3ac6:	68b9      	ldr	r1, [r7, #8]
    3ac8:	687b      	ldr	r3, [r7, #4]
    3aca:	aa32      	add	r2, sp, #200	; 0xc8
    3acc:	2e10      	cmp	r6, #16
    3ace:	dce7      	bgt.n	3aa0 <_svfprintf_r+0xc60>
    3ad0:	46a9      	mov	r9, r5
    3ad2:	000c      	movs	r4, r1
    3ad4:	0035      	movs	r5, r6
    3ad6:	4698      	mov	r8, r3
    3ad8:	0016      	movs	r6, r2
    3ada:	464b      	mov	r3, r9
    3adc:	6075      	str	r5, [r6, #4]
    3ade:	6033      	str	r3, [r6, #0]
    3ae0:	1964      	adds	r4, r4, r5
    3ae2:	e629      	b.n	3738 <_svfprintf_r+0x8f8>
    3ae4:	9b0f      	ldr	r3, [sp, #60]	; 0x3c
    3ae6:	681a      	ldr	r2, [r3, #0]
    3ae8:	f7ff fbfb 	bl	32e2 <_svfprintf_r+0x4a2>
    3aec:	6813      	ldr	r3, [r2, #0]
    3aee:	9307      	str	r3, [sp, #28]
    3af0:	f7ff fa82 	bl	2ff8 <_svfprintf_r+0x1b8>
    3af4:	9b0f      	ldr	r3, [sp, #60]	; 0x3c
    3af6:	681a      	ldr	r2, [r3, #0]
    3af8:	f7ff fb84 	bl	3204 <_svfprintf_r+0x3c4>
    3afc:	9b0f      	ldr	r3, [sp, #60]	; 0x3c
    3afe:	681a      	ldr	r2, [r3, #0]
    3b00:	f7ff fbd1 	bl	32a6 <_svfprintf_r+0x466>
    3b04:	9b19      	ldr	r3, [sp, #100]	; 0x64
    3b06:	68ba      	ldr	r2, [r7, #8]
    3b08:	6033      	str	r3, [r6, #0]
    3b0a:	9b18      	ldr	r3, [sp, #96]	; 0x60
    3b0c:	469c      	mov	ip, r3
    3b0e:	6073      	str	r3, [r6, #4]
    3b10:	687b      	ldr	r3, [r7, #4]
    3b12:	4462      	add	r2, ip
    3b14:	3301      	adds	r3, #1
    3b16:	0014      	movs	r4, r2
    3b18:	60ba      	str	r2, [r7, #8]
    3b1a:	607b      	str	r3, [r7, #4]
    3b1c:	2b07      	cmp	r3, #7
    3b1e:	dd00      	ble.n	3b22 <_svfprintf_r+0xce2>
    3b20:	e202      	b.n	3f28 <_svfprintf_r+0x10e8>
    3b22:	3608      	adds	r6, #8
    3b24:	9b14      	ldr	r3, [sp, #80]	; 0x50
    3b26:	1e5d      	subs	r5, r3, #1
    3b28:	2d00      	cmp	r5, #0
    3b2a:	dc00      	bgt.n	3b2e <_svfprintf_r+0xcee>
    3b2c:	e57e      	b.n	362c <_svfprintf_r+0x7ec>
    3b2e:	4a70      	ldr	r2, [pc, #448]	; (3cf0 <_svfprintf_r+0xeb0>)
    3b30:	687b      	ldr	r3, [r7, #4]
    3b32:	4691      	mov	r9, r2
    3b34:	2d10      	cmp	r5, #16
    3b36:	dd25      	ble.n	3b84 <_svfprintf_r+0xd44>
    3b38:	2210      	movs	r2, #16
    3b3a:	0021      	movs	r1, r4
    3b3c:	4690      	mov	r8, r2
    3b3e:	9c09      	ldr	r4, [sp, #36]	; 0x24
    3b40:	0032      	movs	r2, r6
    3b42:	002e      	movs	r6, r5
    3b44:	464d      	mov	r5, r9
    3b46:	e003      	b.n	3b50 <_svfprintf_r+0xd10>
    3b48:	3208      	adds	r2, #8
    3b4a:	3e10      	subs	r6, #16
    3b4c:	2e10      	cmp	r6, #16
    3b4e:	dd15      	ble.n	3b7c <_svfprintf_r+0xd3c>
    3b50:	4640      	mov	r0, r8
    3b52:	3110      	adds	r1, #16
    3b54:	3301      	adds	r3, #1
    3b56:	6015      	str	r5, [r2, #0]
    3b58:	6050      	str	r0, [r2, #4]
    3b5a:	60b9      	str	r1, [r7, #8]
    3b5c:	607b      	str	r3, [r7, #4]
    3b5e:	2b07      	cmp	r3, #7
    3b60:	ddf2      	ble.n	3b48 <_svfprintf_r+0xd08>
    3b62:	003a      	movs	r2, r7
    3b64:	9906      	ldr	r1, [sp, #24]
    3b66:	0020      	movs	r0, r4
    3b68:	f002 fbee 	bl	6348 <__ssprint_r>
    3b6c:	2800      	cmp	r0, #0
    3b6e:	d001      	beq.n	3b74 <_svfprintf_r+0xd34>
    3b70:	f7ff f9ed 	bl	2f4e <_svfprintf_r+0x10e>
    3b74:	68b9      	ldr	r1, [r7, #8]
    3b76:	687b      	ldr	r3, [r7, #4]
    3b78:	aa32      	add	r2, sp, #200	; 0xc8
    3b7a:	e7e6      	b.n	3b4a <_svfprintf_r+0xd0a>
    3b7c:	46a9      	mov	r9, r5
    3b7e:	000c      	movs	r4, r1
    3b80:	0035      	movs	r5, r6
    3b82:	0016      	movs	r6, r2
    3b84:	464a      	mov	r2, r9
    3b86:	1964      	adds	r4, r4, r5
    3b88:	3301      	adds	r3, #1
    3b8a:	6032      	str	r2, [r6, #0]
    3b8c:	6075      	str	r5, [r6, #4]
    3b8e:	60bc      	str	r4, [r7, #8]
    3b90:	607b      	str	r3, [r7, #4]
    3b92:	2b07      	cmp	r3, #7
    3b94:	dc00      	bgt.n	3b98 <_svfprintf_r+0xd58>
    3b96:	e548      	b.n	362a <_svfprintf_r+0x7ea>
    3b98:	e5e5      	b.n	3766 <_svfprintf_r+0x926>
    3b9a:	9b0c      	ldr	r3, [sp, #48]	; 0x30
    3b9c:	2b09      	cmp	r3, #9
    3b9e:	d900      	bls.n	3ba2 <_svfprintf_r+0xd62>
    3ba0:	e730      	b.n	3a04 <_svfprintf_r+0xbc4>
    3ba2:	9c08      	ldr	r4, [sp, #32]
    3ba4:	2227      	movs	r2, #39	; 0x27
    3ba6:	9b0c      	ldr	r3, [sp, #48]	; 0x30
    3ba8:	a928      	add	r1, sp, #160	; 0xa0
    3baa:	3330      	adds	r3, #48	; 0x30
    3bac:	548b      	strb	r3, [r1, r2]
    3bae:	2301      	movs	r3, #1
    3bb0:	aa16      	add	r2, sp, #88	; 0x58
    3bb2:	4694      	mov	ip, r2
    3bb4:	930e      	str	r3, [sp, #56]	; 0x38
    3bb6:	336e      	adds	r3, #110	; 0x6e
    3bb8:	4463      	add	r3, ip
    3bba:	9408      	str	r4, [sp, #32]
    3bbc:	9311      	str	r3, [sp, #68]	; 0x44
    3bbe:	f7ff fa4f 	bl	3060 <_svfprintf_r+0x220>
    3bc2:	2b30      	cmp	r3, #48	; 0x30
    3bc4:	d100      	bne.n	3bc8 <_svfprintf_r+0xd88>
    3bc6:	e20b      	b.n	3fe0 <_svfprintf_r+0x11a0>
    3bc8:	2330      	movs	r3, #48	; 0x30
    3bca:	3a02      	subs	r2, #2
    3bcc:	7013      	strb	r3, [r2, #0]
    3bce:	ab32      	add	r3, sp, #200	; 0xc8
    3bd0:	1a9b      	subs	r3, r3, r2
    3bd2:	930e      	str	r3, [sp, #56]	; 0x38
    3bd4:	9211      	str	r2, [sp, #68]	; 0x44
    3bd6:	f7ff fa43 	bl	3060 <_svfprintf_r+0x220>
    3bda:	46b0      	mov	r8, r6
    3bdc:	46a1      	mov	r9, r4
    3bde:	0016      	movs	r6, r2
    3be0:	000c      	movs	r4, r1
    3be2:	464a      	mov	r2, r9
    3be4:	6032      	str	r2, [r6, #0]
    3be6:	4642      	mov	r2, r8
    3be8:	4444      	add	r4, r8
    3bea:	3301      	adds	r3, #1
    3bec:	6072      	str	r2, [r6, #4]
    3bee:	60bc      	str	r4, [r7, #8]
    3bf0:	607b      	str	r3, [r7, #4]
    3bf2:	2b07      	cmp	r3, #7
    3bf4:	dd00      	ble.n	3bf8 <_svfprintf_r+0xdb8>
    3bf6:	e29c      	b.n	4132 <_svfprintf_r+0x12f2>
    3bf8:	3608      	adds	r6, #8
    3bfa:	9b1f      	ldr	r3, [sp, #124]	; 0x7c
    3bfc:	9a14      	ldr	r2, [sp, #80]	; 0x50
    3bfe:	4293      	cmp	r3, r2
    3c00:	db4c      	blt.n	3c9c <_svfprintf_r+0xe5c>
    3c02:	9a08      	ldr	r2, [sp, #32]
    3c04:	07d2      	lsls	r2, r2, #31
    3c06:	d449      	bmi.n	3c9c <_svfprintf_r+0xe5c>
    3c08:	9a14      	ldr	r2, [sp, #80]	; 0x50
    3c0a:	9913      	ldr	r1, [sp, #76]	; 0x4c
    3c0c:	1ad3      	subs	r3, r2, r3
    3c0e:	1a52      	subs	r2, r2, r1
    3c10:	4690      	mov	r8, r2
    3c12:	429a      	cmp	r2, r3
    3c14:	dd00      	ble.n	3c18 <_svfprintf_r+0xdd8>
    3c16:	4698      	mov	r8, r3
    3c18:	4642      	mov	r2, r8
    3c1a:	2a00      	cmp	r2, #0
    3c1c:	dd0f      	ble.n	3c3e <_svfprintf_r+0xdfe>
    3c1e:	9913      	ldr	r1, [sp, #76]	; 0x4c
    3c20:	9a11      	ldr	r2, [sp, #68]	; 0x44
    3c22:	468c      	mov	ip, r1
    3c24:	4462      	add	r2, ip
    3c26:	6032      	str	r2, [r6, #0]
    3c28:	4642      	mov	r2, r8
    3c2a:	6072      	str	r2, [r6, #4]
    3c2c:	687a      	ldr	r2, [r7, #4]
    3c2e:	4444      	add	r4, r8
    3c30:	3201      	adds	r2, #1
    3c32:	60bc      	str	r4, [r7, #8]
    3c34:	607a      	str	r2, [r7, #4]
    3c36:	2a07      	cmp	r2, #7
    3c38:	dd00      	ble.n	3c3c <_svfprintf_r+0xdfc>
    3c3a:	e286      	b.n	414a <_svfprintf_r+0x130a>
    3c3c:	3608      	adds	r6, #8
    3c3e:	4642      	mov	r2, r8
    3c40:	43d5      	mvns	r5, r2
    3c42:	17ed      	asrs	r5, r5, #31
    3c44:	4015      	ands	r5, r2
    3c46:	1b5d      	subs	r5, r3, r5
    3c48:	2d00      	cmp	r5, #0
    3c4a:	dc00      	bgt.n	3c4e <_svfprintf_r+0xe0e>
    3c4c:	e4ee      	b.n	362c <_svfprintf_r+0x7ec>
    3c4e:	4a28      	ldr	r2, [pc, #160]	; (3cf0 <_svfprintf_r+0xeb0>)
    3c50:	687b      	ldr	r3, [r7, #4]
    3c52:	4691      	mov	r9, r2
    3c54:	2d10      	cmp	r5, #16
    3c56:	dd95      	ble.n	3b84 <_svfprintf_r+0xd44>
    3c58:	2210      	movs	r2, #16
    3c5a:	0021      	movs	r1, r4
    3c5c:	4690      	mov	r8, r2
    3c5e:	9c09      	ldr	r4, [sp, #36]	; 0x24
    3c60:	0032      	movs	r2, r6
    3c62:	002e      	movs	r6, r5
    3c64:	464d      	mov	r5, r9
    3c66:	e003      	b.n	3c70 <_svfprintf_r+0xe30>
    3c68:	3208      	adds	r2, #8
    3c6a:	3e10      	subs	r6, #16
    3c6c:	2e10      	cmp	r6, #16
    3c6e:	dd85      	ble.n	3b7c <_svfprintf_r+0xd3c>
    3c70:	4640      	mov	r0, r8
    3c72:	3110      	adds	r1, #16
    3c74:	3301      	adds	r3, #1
    3c76:	6015      	str	r5, [r2, #0]
    3c78:	6050      	str	r0, [r2, #4]
    3c7a:	60b9      	str	r1, [r7, #8]
    3c7c:	607b      	str	r3, [r7, #4]
    3c7e:	2b07      	cmp	r3, #7
    3c80:	ddf2      	ble.n	3c68 <_svfprintf_r+0xe28>
    3c82:	003a      	movs	r2, r7
    3c84:	9906      	ldr	r1, [sp, #24]
    3c86:	0020      	movs	r0, r4
    3c88:	f002 fb5e 	bl	6348 <__ssprint_r>
    3c8c:	2800      	cmp	r0, #0
    3c8e:	d001      	beq.n	3c94 <_svfprintf_r+0xe54>
    3c90:	f7ff f95d 	bl	2f4e <_svfprintf_r+0x10e>
    3c94:	68b9      	ldr	r1, [r7, #8]
    3c96:	687b      	ldr	r3, [r7, #4]
    3c98:	aa32      	add	r2, sp, #200	; 0xc8
    3c9a:	e7e6      	b.n	3c6a <_svfprintf_r+0xe2a>
    3c9c:	9a19      	ldr	r2, [sp, #100]	; 0x64
    3c9e:	6032      	str	r2, [r6, #0]
    3ca0:	9a18      	ldr	r2, [sp, #96]	; 0x60
    3ca2:	4694      	mov	ip, r2
    3ca4:	6072      	str	r2, [r6, #4]
    3ca6:	687a      	ldr	r2, [r7, #4]
    3ca8:	4464      	add	r4, ip
    3caa:	3201      	adds	r2, #1
    3cac:	60bc      	str	r4, [r7, #8]
    3cae:	607a      	str	r2, [r7, #4]
    3cb0:	2a07      	cmp	r2, #7
    3cb2:	dd00      	ble.n	3cb6 <_svfprintf_r+0xe76>
    3cb4:	e230      	b.n	4118 <_svfprintf_r+0x12d8>
    3cb6:	3608      	adds	r6, #8
    3cb8:	e7a6      	b.n	3c08 <_svfprintf_r+0xdc8>
    3cba:	003a      	movs	r2, r7
    3cbc:	9906      	ldr	r1, [sp, #24]
    3cbe:	9809      	ldr	r0, [sp, #36]	; 0x24
    3cc0:	f002 fb42 	bl	6348 <__ssprint_r>
    3cc4:	2800      	cmp	r0, #0
    3cc6:	d001      	beq.n	3ccc <_svfprintf_r+0xe8c>
    3cc8:	f7ff f941 	bl	2f4e <_svfprintf_r+0x10e>
    3ccc:	68bc      	ldr	r4, [r7, #8]
    3cce:	687b      	ldr	r3, [r7, #4]
    3cd0:	ae32      	add	r6, sp, #200	; 0xc8
    3cd2:	e513      	b.n	36fc <_svfprintf_r+0x8bc>
    3cd4:	003a      	movs	r2, r7
    3cd6:	9906      	ldr	r1, [sp, #24]
    3cd8:	9809      	ldr	r0, [sp, #36]	; 0x24
    3cda:	f002 fb35 	bl	6348 <__ssprint_r>
    3cde:	2800      	cmp	r0, #0
    3ce0:	d001      	beq.n	3ce6 <_svfprintf_r+0xea6>
    3ce2:	f7ff f934 	bl	2f4e <_svfprintf_r+0x10e>
    3ce6:	687b      	ldr	r3, [r7, #4]
    3ce8:	68bc      	ldr	r4, [r7, #8]
    3cea:	4698      	mov	r8, r3
    3cec:	ae32      	add	r6, sp, #200	; 0xc8
    3cee:	e513      	b.n	3718 <_svfprintf_r+0x8d8>
    3cf0:	00008cdc 	.word	0x00008cdc
    3cf4:	2307      	movs	r3, #7
    3cf6:	3207      	adds	r2, #7
    3cf8:	439a      	bics	r2, r3
    3cfa:	3301      	adds	r3, #1
    3cfc:	469c      	mov	ip, r3
    3cfe:	4494      	add	ip, r2
    3d00:	4663      	mov	r3, ip
    3d02:	930f      	str	r3, [sp, #60]	; 0x3c
    3d04:	6853      	ldr	r3, [r2, #4]
    3d06:	6812      	ldr	r2, [r2, #0]
    3d08:	930d      	str	r3, [sp, #52]	; 0x34
    3d0a:	920c      	str	r2, [sp, #48]	; 0x30
    3d0c:	2b00      	cmp	r3, #0
    3d0e:	db01      	blt.n	3d14 <_svfprintf_r+0xed4>
    3d10:	f7ff f97a 	bl	3008 <_svfprintf_r+0x1c8>
    3d14:	980c      	ldr	r0, [sp, #48]	; 0x30
    3d16:	990d      	ldr	r1, [sp, #52]	; 0x34
    3d18:	2300      	movs	r3, #0
    3d1a:	4242      	negs	r2, r0
    3d1c:	418b      	sbcs	r3, r1
    3d1e:	0011      	movs	r1, r2
    3d20:	001a      	movs	r2, r3
    3d22:	232d      	movs	r3, #45	; 0x2d
    3d24:	a816      	add	r0, sp, #88	; 0x58
    3d26:	77c3      	strb	r3, [r0, #31]
    3d28:	0008      	movs	r0, r1
    3d2a:	4310      	orrs	r0, r2
    3d2c:	910c      	str	r1, [sp, #48]	; 0x30
    3d2e:	920d      	str	r2, [sp, #52]	; 0x34
    3d30:	4698      	mov	r8, r3
    3d32:	0002      	movs	r2, r0
    3d34:	3b2c      	subs	r3, #44	; 0x2c
    3d36:	f7ff f970 	bl	301a <_svfprintf_r+0x1da>
    3d3a:	003a      	movs	r2, r7
    3d3c:	9906      	ldr	r1, [sp, #24]
    3d3e:	9809      	ldr	r0, [sp, #36]	; 0x24
    3d40:	f002 fb02 	bl	6348 <__ssprint_r>
    3d44:	2800      	cmp	r0, #0
    3d46:	d001      	beq.n	3d4c <_svfprintf_r+0xf0c>
    3d48:	f7ff f901 	bl	2f4e <_svfprintf_r+0x10e>
    3d4c:	68bc      	ldr	r4, [r7, #8]
    3d4e:	ae32      	add	r6, sp, #200	; 0xc8
    3d50:	e418      	b.n	3584 <_svfprintf_r+0x744>
    3d52:	9916      	ldr	r1, [sp, #88]	; 0x58
    3d54:	9d15      	ldr	r5, [sp, #84]	; 0x54
    3d56:	000a      	movs	r2, r1
    3d58:	0008      	movs	r0, r1
    3d5a:	002b      	movs	r3, r5
    3d5c:	0029      	movs	r1, r5
    3d5e:	f004 fca1 	bl	86a4 <__aeabi_dcmpun>
    3d62:	2800      	cmp	r0, #0
    3d64:	d000      	beq.n	3d68 <_svfprintf_r+0xf28>
    3d66:	e2e6      	b.n	4336 <_svfprintf_r+0x14f6>
    3d68:	4653      	mov	r3, sl
    3d6a:	3301      	adds	r3, #1
    3d6c:	d100      	bne.n	3d70 <_svfprintf_r+0xf30>
    3d6e:	e20d      	b.n	418c <_svfprintf_r+0x134c>
    3d70:	2320      	movs	r3, #32
    3d72:	9a12      	ldr	r2, [sp, #72]	; 0x48
    3d74:	439a      	bics	r2, r3
    3d76:	920e      	str	r2, [sp, #56]	; 0x38
    3d78:	2a47      	cmp	r2, #71	; 0x47
    3d7a:	d100      	bne.n	3d7e <_svfprintf_r+0xf3e>
    3d7c:	e11c      	b.n	3fb8 <_svfprintf_r+0x1178>
    3d7e:	2380      	movs	r3, #128	; 0x80
    3d80:	005b      	lsls	r3, r3, #1
    3d82:	4323      	orrs	r3, r4
    3d84:	9308      	str	r3, [sp, #32]
    3d86:	9b15      	ldr	r3, [sp, #84]	; 0x54
    3d88:	2b00      	cmp	r3, #0
    3d8a:	da00      	bge.n	3d8e <_svfprintf_r+0xf4e>
    3d8c:	e221      	b.n	41d2 <_svfprintf_r+0x1392>
    3d8e:	9a16      	ldr	r2, [sp, #88]	; 0x58
    3d90:	9307      	str	r3, [sp, #28]
    3d92:	2300      	movs	r3, #0
    3d94:	4691      	mov	r9, r2
    3d96:	9310      	str	r3, [sp, #64]	; 0x40
    3d98:	9b12      	ldr	r3, [sp, #72]	; 0x48
    3d9a:	2b66      	cmp	r3, #102	; 0x66
    3d9c:	d100      	bne.n	3da0 <_svfprintf_r+0xf60>
    3d9e:	e1fc      	b.n	419a <_svfprintf_r+0x135a>
    3da0:	2b46      	cmp	r3, #70	; 0x46
    3da2:	d100      	bne.n	3da6 <_svfprintf_r+0xf66>
    3da4:	e0db      	b.n	3f5e <_svfprintf_r+0x111e>
    3da6:	9a0e      	ldr	r2, [sp, #56]	; 0x38
    3da8:	9809      	ldr	r0, [sp, #36]	; 0x24
    3daa:	3a45      	subs	r2, #69	; 0x45
    3dac:	0013      	movs	r3, r2
    3dae:	4259      	negs	r1, r3
    3db0:	4159      	adcs	r1, r3
    3db2:	ab20      	add	r3, sp, #128	; 0x80
    3db4:	000d      	movs	r5, r1
    3db6:	9303      	str	r3, [sp, #12]
    3db8:	ab1f      	add	r3, sp, #124	; 0x7c
    3dba:	9302      	str	r3, [sp, #8]
    3dbc:	2302      	movs	r3, #2
    3dbe:	aa23      	add	r2, sp, #140	; 0x8c
    3dc0:	4455      	add	r5, sl
    3dc2:	921b      	str	r2, [sp, #108]	; 0x6c
    3dc4:	9204      	str	r2, [sp, #16]
    3dc6:	9300      	str	r3, [sp, #0]
    3dc8:	9501      	str	r5, [sp, #4]
    3dca:	9b07      	ldr	r3, [sp, #28]
    3dcc:	464a      	mov	r2, r9
    3dce:	f000 fbf9 	bl	45c4 <_dtoa_r>
    3dd2:	9b12      	ldr	r3, [sp, #72]	; 0x48
    3dd4:	9011      	str	r0, [sp, #68]	; 0x44
    3dd6:	2b67      	cmp	r3, #103	; 0x67
    3dd8:	d000      	beq.n	3ddc <_svfprintf_r+0xf9c>
    3dda:	e239      	b.n	4250 <_svfprintf_r+0x1410>
    3ddc:	9b11      	ldr	r3, [sp, #68]	; 0x44
    3dde:	4698      	mov	r8, r3
    3de0:	44a8      	add	r8, r5
    3de2:	07e3      	lsls	r3, r4, #31
    3de4:	d400      	bmi.n	3de8 <_svfprintf_r+0xfa8>
    3de6:	e28b      	b.n	4300 <_svfprintf_r+0x14c0>
    3de8:	2300      	movs	r3, #0
    3dea:	2200      	movs	r2, #0
    3dec:	4648      	mov	r0, r9
    3dee:	9907      	ldr	r1, [sp, #28]
    3df0:	f002 ff50 	bl	6c94 <__aeabi_dcmpeq>
    3df4:	4643      	mov	r3, r8
    3df6:	2800      	cmp	r0, #0
    3df8:	d10a      	bne.n	3e10 <_svfprintf_r+0xfd0>
    3dfa:	9b23      	ldr	r3, [sp, #140]	; 0x8c
    3dfc:	4543      	cmp	r3, r8
    3dfe:	d207      	bcs.n	3e10 <_svfprintf_r+0xfd0>
    3e00:	2130      	movs	r1, #48	; 0x30
    3e02:	4640      	mov	r0, r8
    3e04:	1c5a      	adds	r2, r3, #1
    3e06:	9223      	str	r2, [sp, #140]	; 0x8c
    3e08:	7019      	strb	r1, [r3, #0]
    3e0a:	9b23      	ldr	r3, [sp, #140]	; 0x8c
    3e0c:	4298      	cmp	r0, r3
    3e0e:	d8f9      	bhi.n	3e04 <_svfprintf_r+0xfc4>
    3e10:	9a11      	ldr	r2, [sp, #68]	; 0x44
    3e12:	1a9b      	subs	r3, r3, r2
    3e14:	9314      	str	r3, [sp, #80]	; 0x50
    3e16:	9b0e      	ldr	r3, [sp, #56]	; 0x38
    3e18:	2b47      	cmp	r3, #71	; 0x47
    3e1a:	d100      	bne.n	3e1e <_svfprintf_r+0xfde>
    3e1c:	e0f6      	b.n	400c <_svfprintf_r+0x11cc>
    3e1e:	9b12      	ldr	r3, [sp, #72]	; 0x48
    3e20:	2b65      	cmp	r3, #101	; 0x65
    3e22:	dc00      	bgt.n	3e26 <_svfprintf_r+0xfe6>
    3e24:	e226      	b.n	4274 <_svfprintf_r+0x1434>
    3e26:	9b12      	ldr	r3, [sp, #72]	; 0x48
    3e28:	2b66      	cmp	r3, #102	; 0x66
    3e2a:	d100      	bne.n	3e2e <_svfprintf_r+0xfee>
    3e2c:	e1f4      	b.n	4218 <_svfprintf_r+0x13d8>
    3e2e:	9b1f      	ldr	r3, [sp, #124]	; 0x7c
    3e30:	9313      	str	r3, [sp, #76]	; 0x4c
    3e32:	9b14      	ldr	r3, [sp, #80]	; 0x50
    3e34:	9a13      	ldr	r2, [sp, #76]	; 0x4c
    3e36:	0019      	movs	r1, r3
    3e38:	4291      	cmp	r1, r2
    3e3a:	dd00      	ble.n	3e3e <_svfprintf_r+0xffe>
    3e3c:	e1d4      	b.n	41e8 <_svfprintf_r+0x13a8>
    3e3e:	07e3      	lsls	r3, r4, #31
    3e40:	d500      	bpl.n	3e44 <_svfprintf_r+0x1004>
    3e42:	e249      	b.n	42d8 <_svfprintf_r+0x1498>
    3e44:	43d3      	mvns	r3, r2
    3e46:	17db      	asrs	r3, r3, #31
    3e48:	0011      	movs	r1, r2
    3e4a:	401a      	ands	r2, r3
    3e4c:	2367      	movs	r3, #103	; 0x67
    3e4e:	9207      	str	r2, [sp, #28]
    3e50:	910e      	str	r1, [sp, #56]	; 0x38
    3e52:	9312      	str	r3, [sp, #72]	; 0x48
    3e54:	9b10      	ldr	r3, [sp, #64]	; 0x40
    3e56:	2b00      	cmp	r3, #0
    3e58:	d000      	beq.n	3e5c <_svfprintf_r+0x101c>
    3e5a:	e0cf      	b.n	3ffc <_svfprintf_r+0x11bc>
    3e5c:	ab16      	add	r3, sp, #88	; 0x58
    3e5e:	7fdb      	ldrb	r3, [r3, #31]
    3e60:	4698      	mov	r8, r3
    3e62:	2300      	movs	r3, #0
    3e64:	469a      	mov	sl, r3
    3e66:	f7ff f903 	bl	3070 <_svfprintf_r+0x230>
    3e6a:	9a0f      	ldr	r2, [sp, #60]	; 0x3c
    3e6c:	990a      	ldr	r1, [sp, #40]	; 0x28
    3e6e:	6813      	ldr	r3, [r2, #0]
    3e70:	6019      	str	r1, [r3, #0]
    3e72:	0013      	movs	r3, r2
    3e74:	3304      	adds	r3, #4
    3e76:	930f      	str	r3, [sp, #60]	; 0x3c
    3e78:	f7ff f80d 	bl	2e96 <_svfprintf_r+0x56>
    3e7c:	003a      	movs	r2, r7
    3e7e:	9906      	ldr	r1, [sp, #24]
    3e80:	9809      	ldr	r0, [sp, #36]	; 0x24
    3e82:	f002 fa61 	bl	6348 <__ssprint_r>
    3e86:	2800      	cmp	r0, #0
    3e88:	d001      	beq.n	3e8e <_svfprintf_r+0x104e>
    3e8a:	f7ff f860 	bl	2f4e <_svfprintf_r+0x10e>
    3e8e:	ae32      	add	r6, sp, #200	; 0xc8
    3e90:	e48e      	b.n	37b0 <_svfprintf_r+0x970>
    3e92:	4bde      	ldr	r3, [pc, #888]	; (420c <_svfprintf_r+0x13cc>)
    3e94:	3401      	adds	r4, #1
    3e96:	6033      	str	r3, [r6, #0]
    3e98:	2301      	movs	r3, #1
    3e9a:	6073      	str	r3, [r6, #4]
    3e9c:	687b      	ldr	r3, [r7, #4]
    3e9e:	60bc      	str	r4, [r7, #8]
    3ea0:	3301      	adds	r3, #1
    3ea2:	607b      	str	r3, [r7, #4]
    3ea4:	2b07      	cmp	r3, #7
    3ea6:	dc7a      	bgt.n	3f9e <_svfprintf_r+0x115e>
    3ea8:	3608      	adds	r6, #8
    3eaa:	2800      	cmp	r0, #0
    3eac:	d107      	bne.n	3ebe <_svfprintf_r+0x107e>
    3eae:	9b14      	ldr	r3, [sp, #80]	; 0x50
    3eb0:	2b00      	cmp	r3, #0
    3eb2:	d104      	bne.n	3ebe <_svfprintf_r+0x107e>
    3eb4:	9b08      	ldr	r3, [sp, #32]
    3eb6:	07db      	lsls	r3, r3, #31
    3eb8:	d401      	bmi.n	3ebe <_svfprintf_r+0x107e>
    3eba:	f7ff fbb7 	bl	362c <_svfprintf_r+0x7ec>
    3ebe:	9b19      	ldr	r3, [sp, #100]	; 0x64
    3ec0:	6033      	str	r3, [r6, #0]
    3ec2:	9b18      	ldr	r3, [sp, #96]	; 0x60
    3ec4:	1919      	adds	r1, r3, r4
    3ec6:	6073      	str	r3, [r6, #4]
    3ec8:	687b      	ldr	r3, [r7, #4]
    3eca:	60b9      	str	r1, [r7, #8]
    3ecc:	3301      	adds	r3, #1
    3ece:	607b      	str	r3, [r7, #4]
    3ed0:	2b07      	cmp	r3, #7
    3ed2:	dd00      	ble.n	3ed6 <_svfprintf_r+0x1096>
    3ed4:	e1f2      	b.n	42bc <_svfprintf_r+0x147c>
    3ed6:	0032      	movs	r2, r6
    3ed8:	3208      	adds	r2, #8
    3eda:	2800      	cmp	r0, #0
    3edc:	da00      	bge.n	3ee0 <_svfprintf_r+0x10a0>
    3ede:	e1cc      	b.n	427a <_svfprintf_r+0x143a>
    3ee0:	9811      	ldr	r0, [sp, #68]	; 0x44
    3ee2:	3301      	adds	r3, #1
    3ee4:	6010      	str	r0, [r2, #0]
    3ee6:	9814      	ldr	r0, [sp, #80]	; 0x50
    3ee8:	607b      	str	r3, [r7, #4]
    3eea:	1844      	adds	r4, r0, r1
    3eec:	6050      	str	r0, [r2, #4]
    3eee:	60bc      	str	r4, [r7, #8]
    3ef0:	2b07      	cmp	r3, #7
    3ef2:	dd00      	ble.n	3ef6 <_svfprintf_r+0x10b6>
    3ef4:	e437      	b.n	3766 <_svfprintf_r+0x926>
    3ef6:	3208      	adds	r2, #8
    3ef8:	0016      	movs	r6, r2
    3efa:	f7ff fb97 	bl	362c <_svfprintf_r+0x7ec>
    3efe:	990f      	ldr	r1, [sp, #60]	; 0x3c
    3f00:	9a0a      	ldr	r2, [sp, #40]	; 0x28
    3f02:	680b      	ldr	r3, [r1, #0]
    3f04:	601a      	str	r2, [r3, #0]
    3f06:	17d2      	asrs	r2, r2, #31
    3f08:	605a      	str	r2, [r3, #4]
    3f0a:	000b      	movs	r3, r1
    3f0c:	3304      	adds	r3, #4
    3f0e:	930f      	str	r3, [sp, #60]	; 0x3c
    3f10:	f7fe ffc1 	bl	2e96 <_svfprintf_r+0x56>
    3f14:	464b      	mov	r3, r9
    3f16:	3101      	adds	r1, #1
    3f18:	431c      	orrs	r4, r3
    3f1a:	780b      	ldrb	r3, [r1, #0]
    3f1c:	f7fe fff4 	bl	2f08 <_svfprintf_r+0xc8>
    3f20:	4bbb      	ldr	r3, [pc, #748]	; (4210 <_svfprintf_r+0x13d0>)
    3f22:	9311      	str	r3, [sp, #68]	; 0x44
    3f24:	f7ff f937 	bl	3196 <_svfprintf_r+0x356>
    3f28:	003a      	movs	r2, r7
    3f2a:	9906      	ldr	r1, [sp, #24]
    3f2c:	9809      	ldr	r0, [sp, #36]	; 0x24
    3f2e:	f002 fa0b 	bl	6348 <__ssprint_r>
    3f32:	2800      	cmp	r0, #0
    3f34:	d001      	beq.n	3f3a <_svfprintf_r+0x10fa>
    3f36:	f7ff f80a 	bl	2f4e <_svfprintf_r+0x10e>
    3f3a:	68bc      	ldr	r4, [r7, #8]
    3f3c:	ae32      	add	r6, sp, #200	; 0xc8
    3f3e:	e5f1      	b.n	3b24 <_svfprintf_r+0xce4>
    3f40:	2140      	movs	r1, #64	; 0x40
    3f42:	9809      	ldr	r0, [sp, #36]	; 0x24
    3f44:	f001 fb2e 	bl	55a4 <_malloc_r>
    3f48:	9b06      	ldr	r3, [sp, #24]
    3f4a:	6018      	str	r0, [r3, #0]
    3f4c:	6118      	str	r0, [r3, #16]
    3f4e:	2800      	cmp	r0, #0
    3f50:	d100      	bne.n	3f54 <_svfprintf_r+0x1114>
    3f52:	e24f      	b.n	43f4 <_svfprintf_r+0x15b4>
    3f54:	2340      	movs	r3, #64	; 0x40
    3f56:	9a06      	ldr	r2, [sp, #24]
    3f58:	6153      	str	r3, [r2, #20]
    3f5a:	f7fe ff8e 	bl	2e7a <_svfprintf_r+0x3a>
    3f5e:	ab23      	add	r3, sp, #140	; 0x8c
    3f60:	931b      	str	r3, [sp, #108]	; 0x6c
    3f62:	9304      	str	r3, [sp, #16]
    3f64:	ab20      	add	r3, sp, #128	; 0x80
    3f66:	9303      	str	r3, [sp, #12]
    3f68:	ab1f      	add	r3, sp, #124	; 0x7c
    3f6a:	9302      	str	r3, [sp, #8]
    3f6c:	4653      	mov	r3, sl
    3f6e:	9301      	str	r3, [sp, #4]
    3f70:	2303      	movs	r3, #3
    3f72:	464a      	mov	r2, r9
    3f74:	9300      	str	r3, [sp, #0]
    3f76:	9809      	ldr	r0, [sp, #36]	; 0x24
    3f78:	9b07      	ldr	r3, [sp, #28]
    3f7a:	f000 fb23 	bl	45c4 <_dtoa_r>
    3f7e:	4655      	mov	r5, sl
    3f80:	9011      	str	r0, [sp, #68]	; 0x44
    3f82:	9b11      	ldr	r3, [sp, #68]	; 0x44
    3f84:	4698      	mov	r8, r3
    3f86:	9b12      	ldr	r3, [sp, #72]	; 0x48
    3f88:	44a8      	add	r8, r5
    3f8a:	2b46      	cmp	r3, #70	; 0x46
    3f8c:	d000      	beq.n	3f90 <_svfprintf_r+0x1150>
    3f8e:	e72b      	b.n	3de8 <_svfprintf_r+0xfa8>
    3f90:	9b11      	ldr	r3, [sp, #68]	; 0x44
    3f92:	781b      	ldrb	r3, [r3, #0]
    3f94:	2b30      	cmp	r3, #48	; 0x30
    3f96:	d016      	beq.n	3fc6 <_svfprintf_r+0x1186>
    3f98:	9b1f      	ldr	r3, [sp, #124]	; 0x7c
    3f9a:	4498      	add	r8, r3
    3f9c:	e724      	b.n	3de8 <_svfprintf_r+0xfa8>
    3f9e:	003a      	movs	r2, r7
    3fa0:	9906      	ldr	r1, [sp, #24]
    3fa2:	9809      	ldr	r0, [sp, #36]	; 0x24
    3fa4:	f002 f9d0 	bl	6348 <__ssprint_r>
    3fa8:	2800      	cmp	r0, #0
    3faa:	d001      	beq.n	3fb0 <_svfprintf_r+0x1170>
    3fac:	f7fe ffcf 	bl	2f4e <_svfprintf_r+0x10e>
    3fb0:	981f      	ldr	r0, [sp, #124]	; 0x7c
    3fb2:	68bc      	ldr	r4, [r7, #8]
    3fb4:	ae32      	add	r6, sp, #200	; 0xc8
    3fb6:	e778      	b.n	3eaa <_svfprintf_r+0x106a>
    3fb8:	4653      	mov	r3, sl
    3fba:	2b00      	cmp	r3, #0
    3fbc:	d000      	beq.n	3fc0 <_svfprintf_r+0x1180>
    3fbe:	e6de      	b.n	3d7e <_svfprintf_r+0xf3e>
    3fc0:	3301      	adds	r3, #1
    3fc2:	469a      	mov	sl, r3
    3fc4:	e6db      	b.n	3d7e <_svfprintf_r+0xf3e>
    3fc6:	2200      	movs	r2, #0
    3fc8:	2300      	movs	r3, #0
    3fca:	4648      	mov	r0, r9
    3fcc:	9907      	ldr	r1, [sp, #28]
    3fce:	f002 fe61 	bl	6c94 <__aeabi_dcmpeq>
    3fd2:	2800      	cmp	r0, #0
    3fd4:	d1e0      	bne.n	3f98 <_svfprintf_r+0x1158>
    3fd6:	2301      	movs	r3, #1
    3fd8:	1b5b      	subs	r3, r3, r5
    3fda:	931f      	str	r3, [sp, #124]	; 0x7c
    3fdc:	4498      	add	r8, r3
    3fde:	e703      	b.n	3de8 <_svfprintf_r+0xfa8>
    3fe0:	9a11      	ldr	r2, [sp, #68]	; 0x44
    3fe2:	ab32      	add	r3, sp, #200	; 0xc8
    3fe4:	1a9b      	subs	r3, r3, r2
    3fe6:	930e      	str	r3, [sp, #56]	; 0x38
    3fe8:	f7ff f83a 	bl	3060 <_svfprintf_r+0x220>
    3fec:	9811      	ldr	r0, [sp, #68]	; 0x44
    3fee:	f002 f979 	bl	62e4 <strlen>
    3ff2:	0002      	movs	r2, r0
    3ff4:	900e      	str	r0, [sp, #56]	; 0x38
    3ff6:	0003      	movs	r3, r0
    3ff8:	f7ff f9cd 	bl	3396 <_svfprintf_r+0x556>
    3ffc:	232d      	movs	r3, #45	; 0x2d
    3ffe:	aa16      	add	r2, sp, #88	; 0x58
    4000:	77d3      	strb	r3, [r2, #31]
    4002:	4698      	mov	r8, r3
    4004:	2300      	movs	r3, #0
    4006:	469a      	mov	sl, r3
    4008:	f7ff f835 	bl	3076 <_svfprintf_r+0x236>
    400c:	9b1f      	ldr	r3, [sp, #124]	; 0x7c
    400e:	9313      	str	r3, [sp, #76]	; 0x4c
    4010:	1cda      	adds	r2, r3, #3
    4012:	db02      	blt.n	401a <_svfprintf_r+0x11da>
    4014:	459a      	cmp	sl, r3
    4016:	db00      	blt.n	401a <_svfprintf_r+0x11da>
    4018:	e70b      	b.n	3e32 <_svfprintf_r+0xff2>
    401a:	9b12      	ldr	r3, [sp, #72]	; 0x48
    401c:	3b02      	subs	r3, #2
    401e:	9312      	str	r3, [sp, #72]	; 0x48
    4020:	222c      	movs	r2, #44	; 0x2c
    4022:	9b13      	ldr	r3, [sp, #76]	; 0x4c
    4024:	2148      	movs	r1, #72	; 0x48
    4026:	1e5d      	subs	r5, r3, #1
    4028:	ab16      	add	r3, sp, #88	; 0x58
    402a:	189b      	adds	r3, r3, r2
    402c:	466a      	mov	r2, sp
    402e:	1852      	adds	r2, r2, r1
    4030:	7812      	ldrb	r2, [r2, #0]
    4032:	951f      	str	r5, [sp, #124]	; 0x7c
    4034:	701a      	strb	r2, [r3, #0]
    4036:	2d00      	cmp	r5, #0
    4038:	da00      	bge.n	403c <_svfprintf_r+0x11fc>
    403a:	e1a4      	b.n	4386 <_svfprintf_r+0x1546>
    403c:	212d      	movs	r1, #45	; 0x2d
    403e:	232b      	movs	r3, #43	; 0x2b
    4040:	aa16      	add	r2, sp, #88	; 0x58
    4042:	1852      	adds	r2, r2, r1
    4044:	7013      	strb	r3, [r2, #0]
    4046:	2d09      	cmp	r5, #9
    4048:	dc00      	bgt.n	404c <_svfprintf_r+0x120c>
    404a:	e14c      	b.n	42e6 <_svfprintf_r+0x14a6>
    404c:	aa16      	add	r2, sp, #88	; 0x58
    404e:	233b      	movs	r3, #59	; 0x3b
    4050:	4694      	mov	ip, r2
    4052:	4463      	add	r3, ip
    4054:	469a      	mov	sl, r3
    4056:	46b1      	mov	r9, r6
    4058:	46a0      	mov	r8, r4
    405a:	4656      	mov	r6, sl
    405c:	e000      	b.n	4060 <_svfprintf_r+0x1220>
    405e:	0026      	movs	r6, r4
    4060:	0028      	movs	r0, r5
    4062:	210a      	movs	r1, #10
    4064:	f7fe fd4c 	bl	2b00 <__aeabi_idivmod>
    4068:	1e74      	subs	r4, r6, #1
    406a:	3130      	adds	r1, #48	; 0x30
    406c:	7021      	strb	r1, [r4, #0]
    406e:	0028      	movs	r0, r5
    4070:	210a      	movs	r1, #10
    4072:	f7fe fc5f 	bl	2934 <__divsi3>
    4076:	0005      	movs	r5, r0
    4078:	2809      	cmp	r0, #9
    407a:	dcf0      	bgt.n	405e <_svfprintf_r+0x121e>
    407c:	0023      	movs	r3, r4
    407e:	4644      	mov	r4, r8
    4080:	46b0      	mov	r8, r6
    4082:	464e      	mov	r6, r9
    4084:	4699      	mov	r9, r3
    4086:	0003      	movs	r3, r0
    4088:	3330      	adds	r3, #48	; 0x30
    408a:	b2d8      	uxtb	r0, r3
    408c:	4643      	mov	r3, r8
    408e:	3b02      	subs	r3, #2
    4090:	7018      	strb	r0, [r3, #0]
    4092:	459a      	cmp	sl, r3
    4094:	d800      	bhi.n	4098 <_svfprintf_r+0x1258>
    4096:	e1b4      	b.n	4402 <_svfprintf_r+0x15c2>
    4098:	4642      	mov	r2, r8
    409a:	9b1b      	ldr	r3, [sp, #108]	; 0x6c
    409c:	4645      	mov	r5, r8
    409e:	1a99      	subs	r1, r3, r2
    40a0:	2301      	movs	r3, #1
    40a2:	3107      	adds	r1, #7
    40a4:	425b      	negs	r3, r3
    40a6:	e001      	b.n	40ac <_svfprintf_r+0x126c>
    40a8:	5ce8      	ldrb	r0, [r5, r3]
    40aa:	3301      	adds	r3, #1
    40ac:	aa21      	add	r2, sp, #132	; 0x84
    40ae:	18d2      	adds	r2, r2, r3
    40b0:	70d0      	strb	r0, [r2, #3]
    40b2:	428b      	cmp	r3, r1
    40b4:	d1f8      	bne.n	40a8 <_svfprintf_r+0x1268>
    40b6:	a916      	add	r1, sp, #88	; 0x58
    40b8:	468c      	mov	ip, r1
    40ba:	222e      	movs	r2, #46	; 0x2e
    40bc:	464b      	mov	r3, r9
    40be:	4462      	add	r2, ip
    40c0:	4694      	mov	ip, r2
    40c2:	1afb      	subs	r3, r7, r3
    40c4:	4463      	add	r3, ip
    40c6:	aa21      	add	r2, sp, #132	; 0x84
    40c8:	9914      	ldr	r1, [sp, #80]	; 0x50
    40ca:	1a9b      	subs	r3, r3, r2
    40cc:	469c      	mov	ip, r3
    40ce:	000a      	movs	r2, r1
    40d0:	4462      	add	r2, ip
    40d2:	931a      	str	r3, [sp, #104]	; 0x68
    40d4:	920e      	str	r2, [sp, #56]	; 0x38
    40d6:	2901      	cmp	r1, #1
    40d8:	dc00      	bgt.n	40dc <_svfprintf_r+0x129c>
    40da:	e145      	b.n	4368 <_svfprintf_r+0x1528>
    40dc:	9a18      	ldr	r2, [sp, #96]	; 0x60
    40de:	9b0e      	ldr	r3, [sp, #56]	; 0x38
    40e0:	4694      	mov	ip, r2
    40e2:	4463      	add	r3, ip
    40e4:	001a      	movs	r2, r3
    40e6:	930e      	str	r3, [sp, #56]	; 0x38
    40e8:	43db      	mvns	r3, r3
    40ea:	17db      	asrs	r3, r3, #31
    40ec:	401a      	ands	r2, r3
    40ee:	2300      	movs	r3, #0
    40f0:	9207      	str	r2, [sp, #28]
    40f2:	9313      	str	r3, [sp, #76]	; 0x4c
    40f4:	e6ae      	b.n	3e54 <_svfprintf_r+0x1014>
    40f6:	2301      	movs	r3, #1
    40f8:	425b      	negs	r3, r3
    40fa:	930a      	str	r3, [sp, #40]	; 0x28
    40fc:	f7fe ff2d 	bl	2f5a <_svfprintf_r+0x11a>
    4100:	003a      	movs	r2, r7
    4102:	9906      	ldr	r1, [sp, #24]
    4104:	9809      	ldr	r0, [sp, #36]	; 0x24
    4106:	f002 f91f 	bl	6348 <__ssprint_r>
    410a:	2800      	cmp	r0, #0
    410c:	d001      	beq.n	4112 <_svfprintf_r+0x12d2>
    410e:	f7fe ff1e 	bl	2f4e <_svfprintf_r+0x10e>
    4112:	68bc      	ldr	r4, [r7, #8]
    4114:	ae32      	add	r6, sp, #200	; 0xc8
    4116:	e43c      	b.n	3992 <_svfprintf_r+0xb52>
    4118:	003a      	movs	r2, r7
    411a:	9906      	ldr	r1, [sp, #24]
    411c:	9809      	ldr	r0, [sp, #36]	; 0x24
    411e:	f002 f913 	bl	6348 <__ssprint_r>
    4122:	2800      	cmp	r0, #0
    4124:	d001      	beq.n	412a <_svfprintf_r+0x12ea>
    4126:	f7fe ff12 	bl	2f4e <_svfprintf_r+0x10e>
    412a:	9b1f      	ldr	r3, [sp, #124]	; 0x7c
    412c:	68bc      	ldr	r4, [r7, #8]
    412e:	ae32      	add	r6, sp, #200	; 0xc8
    4130:	e56a      	b.n	3c08 <_svfprintf_r+0xdc8>
    4132:	003a      	movs	r2, r7
    4134:	9906      	ldr	r1, [sp, #24]
    4136:	9809      	ldr	r0, [sp, #36]	; 0x24
    4138:	f002 f906 	bl	6348 <__ssprint_r>
    413c:	2800      	cmp	r0, #0
    413e:	d001      	beq.n	4144 <_svfprintf_r+0x1304>
    4140:	f7fe ff05 	bl	2f4e <_svfprintf_r+0x10e>
    4144:	68bc      	ldr	r4, [r7, #8]
    4146:	ae32      	add	r6, sp, #200	; 0xc8
    4148:	e557      	b.n	3bfa <_svfprintf_r+0xdba>
    414a:	003a      	movs	r2, r7
    414c:	9906      	ldr	r1, [sp, #24]
    414e:	9809      	ldr	r0, [sp, #36]	; 0x24
    4150:	f002 f8fa 	bl	6348 <__ssprint_r>
    4154:	2800      	cmp	r0, #0
    4156:	d001      	beq.n	415c <_svfprintf_r+0x131c>
    4158:	f7fe fef9 	bl	2f4e <_svfprintf_r+0x10e>
    415c:	9b14      	ldr	r3, [sp, #80]	; 0x50
    415e:	9a1f      	ldr	r2, [sp, #124]	; 0x7c
    4160:	68bc      	ldr	r4, [r7, #8]
    4162:	1a9b      	subs	r3, r3, r2
    4164:	ae32      	add	r6, sp, #200	; 0xc8
    4166:	e56a      	b.n	3c3e <_svfprintf_r+0xdfe>
    4168:	4653      	mov	r3, sl
    416a:	9307      	str	r3, [sp, #28]
    416c:	2b06      	cmp	r3, #6
    416e:	d901      	bls.n	4174 <_svfprintf_r+0x1334>
    4170:	2306      	movs	r3, #6
    4172:	9307      	str	r3, [sp, #28]
    4174:	9b07      	ldr	r3, [sp, #28]
    4176:	950f      	str	r5, [sp, #60]	; 0x3c
    4178:	930e      	str	r3, [sp, #56]	; 0x38
    417a:	2300      	movs	r3, #0
    417c:	4698      	mov	r8, r3
    417e:	469a      	mov	sl, r3
    4180:	9313      	str	r3, [sp, #76]	; 0x4c
    4182:	4b24      	ldr	r3, [pc, #144]	; (4214 <_svfprintf_r+0x13d4>)
    4184:	9408      	str	r4, [sp, #32]
    4186:	9311      	str	r3, [sp, #68]	; 0x44
    4188:	f7fe ff78 	bl	307c <_svfprintf_r+0x23c>
    418c:	2320      	movs	r3, #32
    418e:	9a12      	ldr	r2, [sp, #72]	; 0x48
    4190:	439a      	bics	r2, r3
    4192:	3b1a      	subs	r3, #26
    4194:	920e      	str	r2, [sp, #56]	; 0x38
    4196:	469a      	mov	sl, r3
    4198:	e5f1      	b.n	3d7e <_svfprintf_r+0xf3e>
    419a:	ab23      	add	r3, sp, #140	; 0x8c
    419c:	931b      	str	r3, [sp, #108]	; 0x6c
    419e:	9304      	str	r3, [sp, #16]
    41a0:	ab20      	add	r3, sp, #128	; 0x80
    41a2:	9303      	str	r3, [sp, #12]
    41a4:	ab1f      	add	r3, sp, #124	; 0x7c
    41a6:	9302      	str	r3, [sp, #8]
    41a8:	4653      	mov	r3, sl
    41aa:	9301      	str	r3, [sp, #4]
    41ac:	2303      	movs	r3, #3
    41ae:	464a      	mov	r2, r9
    41b0:	9300      	str	r3, [sp, #0]
    41b2:	9809      	ldr	r0, [sp, #36]	; 0x24
    41b4:	9b07      	ldr	r3, [sp, #28]
    41b6:	f000 fa05 	bl	45c4 <_dtoa_r>
    41ba:	0003      	movs	r3, r0
    41bc:	4453      	add	r3, sl
    41be:	9011      	str	r0, [sp, #68]	; 0x44
    41c0:	4698      	mov	r8, r3
    41c2:	4655      	mov	r5, sl
    41c4:	e6e4      	b.n	3f90 <_svfprintf_r+0x1150>
    41c6:	232d      	movs	r3, #45	; 0x2d
    41c8:	aa16      	add	r2, sp, #88	; 0x58
    41ca:	77d3      	strb	r3, [r2, #31]
    41cc:	4698      	mov	r8, r3
    41ce:	f7fe ffdb 	bl	3188 <_svfprintf_r+0x348>
    41d2:	2280      	movs	r2, #128	; 0x80
    41d4:	0612      	lsls	r2, r2, #24
    41d6:	4694      	mov	ip, r2
    41d8:	9b16      	ldr	r3, [sp, #88]	; 0x58
    41da:	4699      	mov	r9, r3
    41dc:	9b15      	ldr	r3, [sp, #84]	; 0x54
    41de:	4463      	add	r3, ip
    41e0:	9307      	str	r3, [sp, #28]
    41e2:	232d      	movs	r3, #45	; 0x2d
    41e4:	9310      	str	r3, [sp, #64]	; 0x40
    41e6:	e5d7      	b.n	3d98 <_svfprintf_r+0xf58>
    41e8:	9a18      	ldr	r2, [sp, #96]	; 0x60
    41ea:	9b14      	ldr	r3, [sp, #80]	; 0x50
    41ec:	4694      	mov	ip, r2
    41ee:	9a13      	ldr	r2, [sp, #76]	; 0x4c
    41f0:	4463      	add	r3, ip
    41f2:	930e      	str	r3, [sp, #56]	; 0x38
    41f4:	2a00      	cmp	r2, #0
    41f6:	dc00      	bgt.n	41fa <_svfprintf_r+0x13ba>
    41f8:	e0ce      	b.n	4398 <_svfprintf_r+0x1558>
    41fa:	001a      	movs	r2, r3
    41fc:	43db      	mvns	r3, r3
    41fe:	17db      	asrs	r3, r3, #31
    4200:	401a      	ands	r2, r3
    4202:	2367      	movs	r3, #103	; 0x67
    4204:	9207      	str	r2, [sp, #28]
    4206:	9312      	str	r3, [sp, #72]	; 0x48
    4208:	e624      	b.n	3e54 <_svfprintf_r+0x1014>
    420a:	46c0      	nop			; (mov r8, r8)
    420c:	00008cc8 	.word	0x00008cc8
    4210:	00008c8c 	.word	0x00008c8c
    4214:	00008cc0 	.word	0x00008cc0
    4218:	9b1f      	ldr	r3, [sp, #124]	; 0x7c
    421a:	9313      	str	r3, [sp, #76]	; 0x4c
    421c:	2b00      	cmp	r3, #0
    421e:	dc00      	bgt.n	4222 <_svfprintf_r+0x13e2>
    4220:	e0d5      	b.n	43ce <_svfprintf_r+0x158e>
    4222:	4652      	mov	r2, sl
    4224:	2a00      	cmp	r2, #0
    4226:	d000      	beq.n	422a <_svfprintf_r+0x13ea>
    4228:	e092      	b.n	4350 <_svfprintf_r+0x1510>
    422a:	07e2      	lsls	r2, r4, #31
    422c:	d500      	bpl.n	4230 <_svfprintf_r+0x13f0>
    422e:	e08f      	b.n	4350 <_svfprintf_r+0x1510>
    4230:	9307      	str	r3, [sp, #28]
    4232:	930e      	str	r3, [sp, #56]	; 0x38
    4234:	e60e      	b.n	3e54 <_svfprintf_r+0x1014>
    4236:	ab16      	add	r3, sp, #88	; 0x58
    4238:	7fdb      	ldrb	r3, [r3, #31]
    423a:	950f      	str	r5, [sp, #60]	; 0x3c
    423c:	4698      	mov	r8, r3
    423e:	4653      	mov	r3, sl
    4240:	9307      	str	r3, [sp, #28]
    4242:	930e      	str	r3, [sp, #56]	; 0x38
    4244:	2300      	movs	r3, #0
    4246:	9408      	str	r4, [sp, #32]
    4248:	469a      	mov	sl, r3
    424a:	9313      	str	r3, [sp, #76]	; 0x4c
    424c:	f7fe ff10 	bl	3070 <_svfprintf_r+0x230>
    4250:	9b11      	ldr	r3, [sp, #68]	; 0x44
    4252:	4698      	mov	r8, r3
    4254:	9b12      	ldr	r3, [sp, #72]	; 0x48
    4256:	44a8      	add	r8, r5
    4258:	2b47      	cmp	r3, #71	; 0x47
    425a:	d000      	beq.n	425e <_svfprintf_r+0x141e>
    425c:	e5c4      	b.n	3de8 <_svfprintf_r+0xfa8>
    425e:	07e3      	lsls	r3, r4, #31
    4260:	d500      	bpl.n	4264 <_svfprintf_r+0x1424>
    4262:	e68e      	b.n	3f82 <_svfprintf_r+0x1142>
    4264:	9b23      	ldr	r3, [sp, #140]	; 0x8c
    4266:	9a11      	ldr	r2, [sp, #68]	; 0x44
    4268:	1a9b      	subs	r3, r3, r2
    426a:	9314      	str	r3, [sp, #80]	; 0x50
    426c:	9b0e      	ldr	r3, [sp, #56]	; 0x38
    426e:	2b47      	cmp	r3, #71	; 0x47
    4270:	d100      	bne.n	4274 <_svfprintf_r+0x1434>
    4272:	e6cb      	b.n	400c <_svfprintf_r+0x11cc>
    4274:	9b1f      	ldr	r3, [sp, #124]	; 0x7c
    4276:	9313      	str	r3, [sp, #76]	; 0x4c
    4278:	e6d2      	b.n	4020 <_svfprintf_r+0x11e0>
    427a:	4244      	negs	r4, r0
    427c:	3010      	adds	r0, #16
    427e:	db00      	blt.n	4282 <_svfprintf_r+0x1442>
    4280:	e0d0      	b.n	4424 <_svfprintf_r+0x15e4>
    4282:	486e      	ldr	r0, [pc, #440]	; (443c <_svfprintf_r+0x15fc>)
    4284:	2610      	movs	r6, #16
    4286:	0005      	movs	r5, r0
    4288:	e003      	b.n	4292 <_svfprintf_r+0x1452>
    428a:	3208      	adds	r2, #8
    428c:	3c10      	subs	r4, #16
    428e:	2c10      	cmp	r4, #16
    4290:	dd38      	ble.n	4304 <_svfprintf_r+0x14c4>
    4292:	3110      	adds	r1, #16
    4294:	3301      	adds	r3, #1
    4296:	6015      	str	r5, [r2, #0]
    4298:	6056      	str	r6, [r2, #4]
    429a:	60b9      	str	r1, [r7, #8]
    429c:	607b      	str	r3, [r7, #4]
    429e:	2b07      	cmp	r3, #7
    42a0:	ddf3      	ble.n	428a <_svfprintf_r+0x144a>
    42a2:	003a      	movs	r2, r7
    42a4:	9906      	ldr	r1, [sp, #24]
    42a6:	9809      	ldr	r0, [sp, #36]	; 0x24
    42a8:	f002 f84e 	bl	6348 <__ssprint_r>
    42ac:	2800      	cmp	r0, #0
    42ae:	d001      	beq.n	42b4 <_svfprintf_r+0x1474>
    42b0:	f7fe fe4d 	bl	2f4e <_svfprintf_r+0x10e>
    42b4:	68b9      	ldr	r1, [r7, #8]
    42b6:	687b      	ldr	r3, [r7, #4]
    42b8:	aa32      	add	r2, sp, #200	; 0xc8
    42ba:	e7e7      	b.n	428c <_svfprintf_r+0x144c>
    42bc:	003a      	movs	r2, r7
    42be:	9906      	ldr	r1, [sp, #24]
    42c0:	9809      	ldr	r0, [sp, #36]	; 0x24
    42c2:	f002 f841 	bl	6348 <__ssprint_r>
    42c6:	2800      	cmp	r0, #0
    42c8:	d001      	beq.n	42ce <_svfprintf_r+0x148e>
    42ca:	f7fe fe40 	bl	2f4e <_svfprintf_r+0x10e>
    42ce:	981f      	ldr	r0, [sp, #124]	; 0x7c
    42d0:	68b9      	ldr	r1, [r7, #8]
    42d2:	687b      	ldr	r3, [r7, #4]
    42d4:	aa32      	add	r2, sp, #200	; 0xc8
    42d6:	e600      	b.n	3eda <_svfprintf_r+0x109a>
    42d8:	9a18      	ldr	r2, [sp, #96]	; 0x60
    42da:	9b13      	ldr	r3, [sp, #76]	; 0x4c
    42dc:	4694      	mov	ip, r2
    42de:	4463      	add	r3, ip
    42e0:	001a      	movs	r2, r3
    42e2:	930e      	str	r3, [sp, #56]	; 0x38
    42e4:	e78a      	b.n	41fc <_svfprintf_r+0x13bc>
    42e6:	212e      	movs	r1, #46	; 0x2e
    42e8:	2330      	movs	r3, #48	; 0x30
    42ea:	aa16      	add	r2, sp, #88	; 0x58
    42ec:	1852      	adds	r2, r2, r1
    42ee:	7013      	strb	r3, [r2, #0]
    42f0:	002b      	movs	r3, r5
    42f2:	aa16      	add	r2, sp, #88	; 0x58
    42f4:	3101      	adds	r1, #1
    42f6:	3330      	adds	r3, #48	; 0x30
    42f8:	1852      	adds	r2, r2, r1
    42fa:	7013      	strb	r3, [r2, #0]
    42fc:	ab22      	add	r3, sp, #136	; 0x88
    42fe:	e6e2      	b.n	40c6 <_svfprintf_r+0x1286>
    4300:	9b23      	ldr	r3, [sp, #140]	; 0x8c
    4302:	e585      	b.n	3e10 <_svfprintf_r+0xfd0>
    4304:	46a9      	mov	r9, r5
    4306:	4648      	mov	r0, r9
    4308:	1909      	adds	r1, r1, r4
    430a:	3301      	adds	r3, #1
    430c:	6010      	str	r0, [r2, #0]
    430e:	6054      	str	r4, [r2, #4]
    4310:	60b9      	str	r1, [r7, #8]
    4312:	3208      	adds	r2, #8
    4314:	607b      	str	r3, [r7, #4]
    4316:	2b07      	cmp	r3, #7
    4318:	dc00      	bgt.n	431c <_svfprintf_r+0x14dc>
    431a:	e5e1      	b.n	3ee0 <_svfprintf_r+0x10a0>
    431c:	003a      	movs	r2, r7
    431e:	9906      	ldr	r1, [sp, #24]
    4320:	9809      	ldr	r0, [sp, #36]	; 0x24
    4322:	f002 f811 	bl	6348 <__ssprint_r>
    4326:	2800      	cmp	r0, #0
    4328:	d001      	beq.n	432e <_svfprintf_r+0x14ee>
    432a:	f7fe fe10 	bl	2f4e <_svfprintf_r+0x10e>
    432e:	68b9      	ldr	r1, [r7, #8]
    4330:	687b      	ldr	r3, [r7, #4]
    4332:	aa32      	add	r2, sp, #200	; 0xc8
    4334:	e5d4      	b.n	3ee0 <_svfprintf_r+0x10a0>
    4336:	9b15      	ldr	r3, [sp, #84]	; 0x54
    4338:	2b00      	cmp	r3, #0
    433a:	db38      	blt.n	43ae <_svfprintf_r+0x156e>
    433c:	ab16      	add	r3, sp, #88	; 0x58
    433e:	7fdb      	ldrb	r3, [r3, #31]
    4340:	4698      	mov	r8, r3
    4342:	9b12      	ldr	r3, [sp, #72]	; 0x48
    4344:	2b47      	cmp	r3, #71	; 0x47
    4346:	dc2e      	bgt.n	43a6 <_svfprintf_r+0x1566>
    4348:	4b3d      	ldr	r3, [pc, #244]	; (4440 <_svfprintf_r+0x1600>)
    434a:	9311      	str	r3, [sp, #68]	; 0x44
    434c:	f7fe ff23 	bl	3196 <_svfprintf_r+0x356>
    4350:	9a18      	ldr	r2, [sp, #96]	; 0x60
    4352:	9b13      	ldr	r3, [sp, #76]	; 0x4c
    4354:	4694      	mov	ip, r2
    4356:	4463      	add	r3, ip
    4358:	4453      	add	r3, sl
    435a:	001a      	movs	r2, r3
    435c:	930e      	str	r3, [sp, #56]	; 0x38
    435e:	43db      	mvns	r3, r3
    4360:	17db      	asrs	r3, r3, #31
    4362:	401a      	ands	r2, r3
    4364:	9207      	str	r2, [sp, #28]
    4366:	e575      	b.n	3e54 <_svfprintf_r+0x1014>
    4368:	2301      	movs	r3, #1
    436a:	4023      	ands	r3, r4
    436c:	9313      	str	r3, [sp, #76]	; 0x4c
    436e:	d000      	beq.n	4372 <_svfprintf_r+0x1532>
    4370:	e6b4      	b.n	40dc <_svfprintf_r+0x129c>
    4372:	9a0e      	ldr	r2, [sp, #56]	; 0x38
    4374:	43d3      	mvns	r3, r2
    4376:	17db      	asrs	r3, r3, #31
    4378:	401a      	ands	r2, r3
    437a:	9207      	str	r2, [sp, #28]
    437c:	e56a      	b.n	3e54 <_svfprintf_r+0x1014>
    437e:	4a2f      	ldr	r2, [pc, #188]	; (443c <_svfprintf_r+0x15fc>)
    4380:	687b      	ldr	r3, [r7, #4]
    4382:	4691      	mov	r9, r2
    4384:	e42d      	b.n	3be2 <_svfprintf_r+0xda2>
    4386:	2301      	movs	r3, #1
    4388:	9a13      	ldr	r2, [sp, #76]	; 0x4c
    438a:	391b      	subs	r1, #27
    438c:	1a9d      	subs	r5, r3, r2
    438e:	aa16      	add	r2, sp, #88	; 0x58
    4390:	332c      	adds	r3, #44	; 0x2c
    4392:	1852      	adds	r2, r2, r1
    4394:	7013      	strb	r3, [r2, #0]
    4396:	e656      	b.n	4046 <_svfprintf_r+0x1206>
    4398:	9b0e      	ldr	r3, [sp, #56]	; 0x38
    439a:	9a13      	ldr	r2, [sp, #76]	; 0x4c
    439c:	1a98      	subs	r0, r3, r2
    439e:	1c43      	adds	r3, r0, #1
    43a0:	001a      	movs	r2, r3
    43a2:	930e      	str	r3, [sp, #56]	; 0x38
    43a4:	e72a      	b.n	41fc <_svfprintf_r+0x13bc>
    43a6:	4b27      	ldr	r3, [pc, #156]	; (4444 <_svfprintf_r+0x1604>)
    43a8:	9311      	str	r3, [sp, #68]	; 0x44
    43aa:	f7fe fef4 	bl	3196 <_svfprintf_r+0x356>
    43ae:	232d      	movs	r3, #45	; 0x2d
    43b0:	aa16      	add	r2, sp, #88	; 0x58
    43b2:	77d3      	strb	r3, [r2, #31]
    43b4:	4698      	mov	r8, r3
    43b6:	e7c4      	b.n	4342 <_svfprintf_r+0x1502>
    43b8:	9b0f      	ldr	r3, [sp, #60]	; 0x3c
    43ba:	1d1a      	adds	r2, r3, #4
    43bc:	681b      	ldr	r3, [r3, #0]
    43be:	469a      	mov	sl, r3
    43c0:	2b00      	cmp	r3, #0
    43c2:	db36      	blt.n	4432 <_svfprintf_r+0x15f2>
    43c4:	784b      	ldrb	r3, [r1, #1]
    43c6:	920f      	str	r2, [sp, #60]	; 0x3c
    43c8:	4659      	mov	r1, fp
    43ca:	f7fe fd9d 	bl	2f08 <_svfprintf_r+0xc8>
    43ce:	4653      	mov	r3, sl
    43d0:	2b00      	cmp	r3, #0
    43d2:	d101      	bne.n	43d8 <_svfprintf_r+0x1598>
    43d4:	07e3      	lsls	r3, r4, #31
    43d6:	d503      	bpl.n	43e0 <_svfprintf_r+0x15a0>
    43d8:	9b18      	ldr	r3, [sp, #96]	; 0x60
    43da:	1c58      	adds	r0, r3, #1
    43dc:	0003      	movs	r3, r0
    43de:	e7bb      	b.n	4358 <_svfprintf_r+0x1518>
    43e0:	2301      	movs	r3, #1
    43e2:	e725      	b.n	4230 <_svfprintf_r+0x13f0>
    43e4:	ab16      	add	r3, sp, #88	; 0x58
    43e6:	77d8      	strb	r0, [r3, #31]
    43e8:	f7fe ff6c 	bl	32c4 <_svfprintf_r+0x484>
    43ec:	ab16      	add	r3, sp, #88	; 0x58
    43ee:	77d8      	strb	r0, [r3, #31]
    43f0:	f7ff f814 	bl	341c <_svfprintf_r+0x5dc>
    43f4:	230c      	movs	r3, #12
    43f6:	9a09      	ldr	r2, [sp, #36]	; 0x24
    43f8:	6013      	str	r3, [r2, #0]
    43fa:	3b0d      	subs	r3, #13
    43fc:	930a      	str	r3, [sp, #40]	; 0x28
    43fe:	f7fe fdac 	bl	2f5a <_svfprintf_r+0x11a>
    4402:	aa16      	add	r2, sp, #88	; 0x58
    4404:	232e      	movs	r3, #46	; 0x2e
    4406:	4694      	mov	ip, r2
    4408:	4463      	add	r3, ip
    440a:	e65c      	b.n	40c6 <_svfprintf_r+0x1286>
    440c:	ab16      	add	r3, sp, #88	; 0x58
    440e:	77d8      	strb	r0, [r3, #31]
    4410:	f7fe fe85 	bl	311e <_svfprintf_r+0x2de>
    4414:	ab16      	add	r3, sp, #88	; 0x58
    4416:	77d8      	strb	r0, [r3, #31]
    4418:	f7fe fddd 	bl	2fd6 <_svfprintf_r+0x196>
    441c:	ab16      	add	r3, sp, #88	; 0x58
    441e:	77d8      	strb	r0, [r3, #31]
    4420:	f7ff f87d 	bl	351e <_svfprintf_r+0x6de>
    4424:	4805      	ldr	r0, [pc, #20]	; (443c <_svfprintf_r+0x15fc>)
    4426:	4681      	mov	r9, r0
    4428:	e76d      	b.n	4306 <_svfprintf_r+0x14c6>
    442a:	ab16      	add	r3, sp, #88	; 0x58
    442c:	77d8      	strb	r0, [r3, #31]
    442e:	f7fe ff79 	bl	3324 <_svfprintf_r+0x4e4>
    4432:	2301      	movs	r3, #1
    4434:	425b      	negs	r3, r3
    4436:	469a      	mov	sl, r3
    4438:	e7c4      	b.n	43c4 <_svfprintf_r+0x1584>
    443a:	46c0      	nop			; (mov r8, r8)
    443c:	00008cdc 	.word	0x00008cdc
    4440:	00008c90 	.word	0x00008c90
    4444:	00008c94 	.word	0x00008c94

00004448 <register_fini>:
    4448:	4b03      	ldr	r3, [pc, #12]	; (4458 <register_fini+0x10>)
    444a:	b510      	push	{r4, lr}
    444c:	2b00      	cmp	r3, #0
    444e:	d002      	beq.n	4456 <register_fini+0xe>
    4450:	4802      	ldr	r0, [pc, #8]	; (445c <register_fini+0x14>)
    4452:	f000 f805 	bl	4460 <atexit>
    4456:	bd10      	pop	{r4, pc}
    4458:	00000000 	.word	0x00000000
    445c:	0000554d 	.word	0x0000554d

00004460 <atexit>:
    4460:	b510      	push	{r4, lr}
    4462:	0001      	movs	r1, r0
    4464:	2300      	movs	r3, #0
    4466:	2200      	movs	r2, #0
    4468:	2000      	movs	r0, #0
    446a:	f001 fffd 	bl	6468 <__register_exitproc>
    446e:	bd10      	pop	{r4, pc}

00004470 <quorem>:
    4470:	b5f0      	push	{r4, r5, r6, r7, lr}
    4472:	4645      	mov	r5, r8
    4474:	4680      	mov	r8, r0
    4476:	46de      	mov	lr, fp
    4478:	4657      	mov	r7, sl
    447a:	464e      	mov	r6, r9
    447c:	4642      	mov	r2, r8
    447e:	b5e0      	push	{r5, r6, r7, lr}
    4480:	690c      	ldr	r4, [r1, #16]
    4482:	6912      	ldr	r2, [r2, #16]
    4484:	b085      	sub	sp, #20
    4486:	000b      	movs	r3, r1
    4488:	9102      	str	r1, [sp, #8]
    448a:	2000      	movs	r0, #0
    448c:	4294      	cmp	r4, r2
    448e:	dd00      	ble.n	4492 <quorem+0x22>
    4490:	e090      	b.n	45b4 <quorem+0x144>
    4492:	2214      	movs	r2, #20
    4494:	4694      	mov	ip, r2
    4496:	4463      	add	r3, ip
    4498:	4699      	mov	r9, r3
    449a:	464a      	mov	r2, r9
    449c:	3c01      	subs	r4, #1
    449e:	00a3      	lsls	r3, r4, #2
    44a0:	18d6      	adds	r6, r2, r3
    44a2:	2214      	movs	r2, #20
    44a4:	4442      	add	r2, r8
    44a6:	4693      	mov	fp, r2
    44a8:	449b      	add	fp, r3
    44aa:	6833      	ldr	r3, [r6, #0]
    44ac:	0015      	movs	r5, r2
    44ae:	1c59      	adds	r1, r3, #1
    44b0:	465b      	mov	r3, fp
    44b2:	6818      	ldr	r0, [r3, #0]
    44b4:	9201      	str	r2, [sp, #4]
    44b6:	f7fe f9b3 	bl	2820 <__udivsi3>
    44ba:	1e03      	subs	r3, r0, #0
    44bc:	9000      	str	r0, [sp, #0]
    44be:	d042      	beq.n	4546 <quorem+0xd6>
    44c0:	0029      	movs	r1, r5
    44c2:	2700      	movs	r7, #0
    44c4:	464d      	mov	r5, r9
    44c6:	2000      	movs	r0, #0
    44c8:	46b1      	mov	r9, r6
    44ca:	46a2      	mov	sl, r4
    44cc:	003e      	movs	r6, r7
    44ce:	0004      	movs	r4, r0
    44d0:	469c      	mov	ip, r3
    44d2:	002f      	movs	r7, r5
    44d4:	0008      	movs	r0, r1
    44d6:	9503      	str	r5, [sp, #12]
    44d8:	4663      	mov	r3, ip
    44da:	cf04      	ldmia	r7!, {r2}
    44dc:	0415      	lsls	r5, r2, #16
    44de:	0c2d      	lsrs	r5, r5, #16
    44e0:	435d      	muls	r5, r3
    44e2:	0c12      	lsrs	r2, r2, #16
    44e4:	435a      	muls	r2, r3
    44e6:	19ad      	adds	r5, r5, r6
    44e8:	0c2b      	lsrs	r3, r5, #16
    44ea:	18d2      	adds	r2, r2, r3
    44ec:	6803      	ldr	r3, [r0, #0]
    44ee:	042d      	lsls	r5, r5, #16
    44f0:	0419      	lsls	r1, r3, #16
    44f2:	0c09      	lsrs	r1, r1, #16
    44f4:	1909      	adds	r1, r1, r4
    44f6:	0c16      	lsrs	r6, r2, #16
    44f8:	0c2d      	lsrs	r5, r5, #16
    44fa:	0412      	lsls	r2, r2, #16
    44fc:	1b49      	subs	r1, r1, r5
    44fe:	0c12      	lsrs	r2, r2, #16
    4500:	0c1b      	lsrs	r3, r3, #16
    4502:	1a9b      	subs	r3, r3, r2
    4504:	140a      	asrs	r2, r1, #16
    4506:	189b      	adds	r3, r3, r2
    4508:	0409      	lsls	r1, r1, #16
    450a:	141c      	asrs	r4, r3, #16
    450c:	0c09      	lsrs	r1, r1, #16
    450e:	041b      	lsls	r3, r3, #16
    4510:	4319      	orrs	r1, r3
    4512:	c002      	stmia	r0!, {r1}
    4514:	45b9      	cmp	r9, r7
    4516:	d2df      	bcs.n	44d8 <quorem+0x68>
    4518:	9b03      	ldr	r3, [sp, #12]
    451a:	464e      	mov	r6, r9
    451c:	4699      	mov	r9, r3
    451e:	465b      	mov	r3, fp
    4520:	681b      	ldr	r3, [r3, #0]
    4522:	4654      	mov	r4, sl
    4524:	2b00      	cmp	r3, #0
    4526:	d10e      	bne.n	4546 <quorem+0xd6>
    4528:	465b      	mov	r3, fp
    452a:	9a01      	ldr	r2, [sp, #4]
    452c:	3b04      	subs	r3, #4
    452e:	429a      	cmp	r2, r3
    4530:	d304      	bcc.n	453c <quorem+0xcc>
    4532:	e006      	b.n	4542 <quorem+0xd2>
    4534:	3b04      	subs	r3, #4
    4536:	3c01      	subs	r4, #1
    4538:	429a      	cmp	r2, r3
    453a:	d202      	bcs.n	4542 <quorem+0xd2>
    453c:	6819      	ldr	r1, [r3, #0]
    453e:	2900      	cmp	r1, #0
    4540:	d0f8      	beq.n	4534 <quorem+0xc4>
    4542:	4643      	mov	r3, r8
    4544:	611c      	str	r4, [r3, #16]
    4546:	9902      	ldr	r1, [sp, #8]
    4548:	4640      	mov	r0, r8
    454a:	f001 fda5 	bl	6098 <__mcmp>
    454e:	2800      	cmp	r0, #0
    4550:	db2f      	blt.n	45b2 <quorem+0x142>
    4552:	464f      	mov	r7, r9
    4554:	2000      	movs	r0, #0
    4556:	9b00      	ldr	r3, [sp, #0]
    4558:	9d01      	ldr	r5, [sp, #4]
    455a:	3301      	adds	r3, #1
    455c:	9300      	str	r3, [sp, #0]
    455e:	682b      	ldr	r3, [r5, #0]
    4560:	cf02      	ldmia	r7!, {r1}
    4562:	041a      	lsls	r2, r3, #16
    4564:	0c12      	lsrs	r2, r2, #16
    4566:	1810      	adds	r0, r2, r0
    4568:	040a      	lsls	r2, r1, #16
    456a:	0c12      	lsrs	r2, r2, #16
    456c:	1a82      	subs	r2, r0, r2
    456e:	0c09      	lsrs	r1, r1, #16
    4570:	0c1b      	lsrs	r3, r3, #16
    4572:	1a5b      	subs	r3, r3, r1
    4574:	1411      	asrs	r1, r2, #16
    4576:	185b      	adds	r3, r3, r1
    4578:	0412      	lsls	r2, r2, #16
    457a:	1418      	asrs	r0, r3, #16
    457c:	0c12      	lsrs	r2, r2, #16
    457e:	041b      	lsls	r3, r3, #16
    4580:	4313      	orrs	r3, r2
    4582:	c508      	stmia	r5!, {r3}
    4584:	42be      	cmp	r6, r7
    4586:	d2ea      	bcs.n	455e <quorem+0xee>
    4588:	9901      	ldr	r1, [sp, #4]
    458a:	00a3      	lsls	r3, r4, #2
    458c:	468c      	mov	ip, r1
    458e:	4463      	add	r3, ip
    4590:	681a      	ldr	r2, [r3, #0]
    4592:	2a00      	cmp	r2, #0
    4594:	d10d      	bne.n	45b2 <quorem+0x142>
    4596:	3b04      	subs	r3, #4
    4598:	000a      	movs	r2, r1
    459a:	4299      	cmp	r1, r3
    459c:	d304      	bcc.n	45a8 <quorem+0x138>
    459e:	e006      	b.n	45ae <quorem+0x13e>
    45a0:	3b04      	subs	r3, #4
    45a2:	3c01      	subs	r4, #1
    45a4:	429a      	cmp	r2, r3
    45a6:	d202      	bcs.n	45ae <quorem+0x13e>
    45a8:	6819      	ldr	r1, [r3, #0]
    45aa:	2900      	cmp	r1, #0
    45ac:	d0f8      	beq.n	45a0 <quorem+0x130>
    45ae:	4643      	mov	r3, r8
    45b0:	611c      	str	r4, [r3, #16]
    45b2:	9800      	ldr	r0, [sp, #0]
    45b4:	b005      	add	sp, #20
    45b6:	bc3c      	pop	{r2, r3, r4, r5}
    45b8:	4690      	mov	r8, r2
    45ba:	4699      	mov	r9, r3
    45bc:	46a2      	mov	sl, r4
    45be:	46ab      	mov	fp, r5
    45c0:	bdf0      	pop	{r4, r5, r6, r7, pc}
    45c2:	46c0      	nop			; (mov r8, r8)

000045c4 <_dtoa_r>:
    45c4:	b5f0      	push	{r4, r5, r6, r7, lr}
    45c6:	4657      	mov	r7, sl
    45c8:	464e      	mov	r6, r9
    45ca:	4645      	mov	r5, r8
    45cc:	46de      	mov	lr, fp
    45ce:	b5e0      	push	{r5, r6, r7, lr}
    45d0:	6c01      	ldr	r1, [r0, #64]	; 0x40
    45d2:	b099      	sub	sp, #100	; 0x64
    45d4:	4682      	mov	sl, r0
    45d6:	001d      	movs	r5, r3
    45d8:	0016      	movs	r6, r2
    45da:	001f      	movs	r7, r3
    45dc:	2900      	cmp	r1, #0
    45de:	d009      	beq.n	45f4 <_dtoa_r+0x30>
    45e0:	2301      	movs	r3, #1
    45e2:	6c42      	ldr	r2, [r0, #68]	; 0x44
    45e4:	4093      	lsls	r3, r2
    45e6:	604a      	str	r2, [r1, #4]
    45e8:	608b      	str	r3, [r1, #8]
    45ea:	f001 fb49 	bl	5c80 <_Bfree>
    45ee:	2300      	movs	r3, #0
    45f0:	4652      	mov	r2, sl
    45f2:	6413      	str	r3, [r2, #64]	; 0x40
    45f4:	46b8      	mov	r8, r7
    45f6:	2f00      	cmp	r7, #0
    45f8:	db37      	blt.n	466a <_dtoa_r+0xa6>
    45fa:	2300      	movs	r3, #0
    45fc:	9a25      	ldr	r2, [sp, #148]	; 0x94
    45fe:	6013      	str	r3, [r2, #0]
    4600:	4642      	mov	r2, r8
    4602:	4bd6      	ldr	r3, [pc, #856]	; (495c <_dtoa_r+0x398>)
    4604:	401a      	ands	r2, r3
    4606:	429a      	cmp	r2, r3
    4608:	d018      	beq.n	463c <_dtoa_r+0x78>
    460a:	2200      	movs	r2, #0
    460c:	2300      	movs	r3, #0
    460e:	0030      	movs	r0, r6
    4610:	0039      	movs	r1, r7
    4612:	f002 fb3f 	bl	6c94 <__aeabi_dcmpeq>
    4616:	2800      	cmp	r0, #0
    4618:	d02f      	beq.n	467a <_dtoa_r+0xb6>
    461a:	2301      	movs	r3, #1
    461c:	9a24      	ldr	r2, [sp, #144]	; 0x90
    461e:	6013      	str	r3, [r2, #0]
    4620:	9b26      	ldr	r3, [sp, #152]	; 0x98
    4622:	2b00      	cmp	r3, #0
    4624:	d100      	bne.n	4628 <_dtoa_r+0x64>
    4626:	e22a      	b.n	4a7e <_dtoa_r+0x4ba>
    4628:	48cd      	ldr	r0, [pc, #820]	; (4960 <_dtoa_r+0x39c>)
    462a:	6018      	str	r0, [r3, #0]
    462c:	3801      	subs	r0, #1
    462e:	b019      	add	sp, #100	; 0x64
    4630:	bc3c      	pop	{r2, r3, r4, r5}
    4632:	4690      	mov	r8, r2
    4634:	4699      	mov	r9, r3
    4636:	46a2      	mov	sl, r4
    4638:	46ab      	mov	fp, r5
    463a:	bdf0      	pop	{r4, r5, r6, r7, pc}
    463c:	4bc9      	ldr	r3, [pc, #804]	; (4964 <_dtoa_r+0x3a0>)
    463e:	9a24      	ldr	r2, [sp, #144]	; 0x90
    4640:	6013      	str	r3, [r2, #0]
    4642:	2e00      	cmp	r6, #0
    4644:	d10b      	bne.n	465e <_dtoa_r+0x9a>
    4646:	4643      	mov	r3, r8
    4648:	0318      	lsls	r0, r3, #12
    464a:	d108      	bne.n	465e <_dtoa_r+0x9a>
    464c:	9b26      	ldr	r3, [sp, #152]	; 0x98
    464e:	48c6      	ldr	r0, [pc, #792]	; (4968 <_dtoa_r+0x3a4>)
    4650:	2b00      	cmp	r3, #0
    4652:	d0ec      	beq.n	462e <_dtoa_r+0x6a>
    4654:	0003      	movs	r3, r0
    4656:	3308      	adds	r3, #8
    4658:	9a26      	ldr	r2, [sp, #152]	; 0x98
    465a:	6013      	str	r3, [r2, #0]
    465c:	e7e7      	b.n	462e <_dtoa_r+0x6a>
    465e:	9b26      	ldr	r3, [sp, #152]	; 0x98
    4660:	48c2      	ldr	r0, [pc, #776]	; (496c <_dtoa_r+0x3a8>)
    4662:	2b00      	cmp	r3, #0
    4664:	d0e3      	beq.n	462e <_dtoa_r+0x6a>
    4666:	1cc3      	adds	r3, r0, #3
    4668:	e7f6      	b.n	4658 <_dtoa_r+0x94>
    466a:	2301      	movs	r3, #1
    466c:	9a25      	ldr	r2, [sp, #148]	; 0x94
    466e:	0068      	lsls	r0, r5, #1
    4670:	6013      	str	r3, [r2, #0]
    4672:	0843      	lsrs	r3, r0, #1
    4674:	4698      	mov	r8, r3
    4676:	001f      	movs	r7, r3
    4678:	e7c2      	b.n	4600 <_dtoa_r+0x3c>
    467a:	ab16      	add	r3, sp, #88	; 0x58
    467c:	9301      	str	r3, [sp, #4]
    467e:	ab17      	add	r3, sp, #92	; 0x5c
    4680:	9300      	str	r3, [sp, #0]
    4682:	0032      	movs	r2, r6
    4684:	003b      	movs	r3, r7
    4686:	4650      	mov	r0, sl
    4688:	f001 fdbc 	bl	6204 <__d2b>
    468c:	4643      	mov	r3, r8
    468e:	4683      	mov	fp, r0
    4690:	0d1a      	lsrs	r2, r3, #20
    4692:	d100      	bne.n	4696 <_dtoa_r+0xd2>
    4694:	e1d6      	b.n	4a44 <_dtoa_r+0x480>
    4696:	033b      	lsls	r3, r7, #12
    4698:	4cb5      	ldr	r4, [pc, #724]	; (4970 <_dtoa_r+0x3ac>)
    469a:	0b1b      	lsrs	r3, r3, #12
    469c:	431c      	orrs	r4, r3
    469e:	4bb5      	ldr	r3, [pc, #724]	; (4974 <_dtoa_r+0x3b0>)
    46a0:	0030      	movs	r0, r6
    46a2:	4698      	mov	r8, r3
    46a4:	9b16      	ldr	r3, [sp, #88]	; 0x58
    46a6:	0021      	movs	r1, r4
    46a8:	4699      	mov	r9, r3
    46aa:	2300      	movs	r3, #0
    46ac:	4490      	add	r8, r2
    46ae:	930f      	str	r3, [sp, #60]	; 0x3c
    46b0:	2200      	movs	r2, #0
    46b2:	4bb1      	ldr	r3, [pc, #708]	; (4978 <_dtoa_r+0x3b4>)
    46b4:	f003 fce0 	bl	8078 <__aeabi_dsub>
    46b8:	4ab0      	ldr	r2, [pc, #704]	; (497c <_dtoa_r+0x3b8>)
    46ba:	4bb1      	ldr	r3, [pc, #708]	; (4980 <_dtoa_r+0x3bc>)
    46bc:	f003 fa5c 	bl	7b78 <__aeabi_dmul>
    46c0:	4ab0      	ldr	r2, [pc, #704]	; (4984 <_dtoa_r+0x3c0>)
    46c2:	4bb1      	ldr	r3, [pc, #708]	; (4988 <_dtoa_r+0x3c4>)
    46c4:	f002 fb14 	bl	6cf0 <__aeabi_dadd>
    46c8:	0004      	movs	r4, r0
    46ca:	4640      	mov	r0, r8
    46cc:	000d      	movs	r5, r1
    46ce:	f004 f83d 	bl	874c <__aeabi_i2d>
    46d2:	4aae      	ldr	r2, [pc, #696]	; (498c <_dtoa_r+0x3c8>)
    46d4:	4bae      	ldr	r3, [pc, #696]	; (4990 <_dtoa_r+0x3cc>)
    46d6:	f003 fa4f 	bl	7b78 <__aeabi_dmul>
    46da:	0002      	movs	r2, r0
    46dc:	000b      	movs	r3, r1
    46de:	0020      	movs	r0, r4
    46e0:	0029      	movs	r1, r5
    46e2:	f002 fb05 	bl	6cf0 <__aeabi_dadd>
    46e6:	0004      	movs	r4, r0
    46e8:	000d      	movs	r5, r1
    46ea:	f003 fffb 	bl	86e4 <__aeabi_d2iz>
    46ee:	2200      	movs	r2, #0
    46f0:	9003      	str	r0, [sp, #12]
    46f2:	2300      	movs	r3, #0
    46f4:	0020      	movs	r0, r4
    46f6:	0029      	movs	r1, r5
    46f8:	f002 fad2 	bl	6ca0 <__aeabi_dcmplt>
    46fc:	2800      	cmp	r0, #0
    46fe:	d000      	beq.n	4702 <_dtoa_r+0x13e>
    4700:	e2b1      	b.n	4c66 <_dtoa_r+0x6a2>
    4702:	2301      	movs	r3, #1
    4704:	9c03      	ldr	r4, [sp, #12]
    4706:	930c      	str	r3, [sp, #48]	; 0x30
    4708:	2c16      	cmp	r4, #22
    470a:	d810      	bhi.n	472e <_dtoa_r+0x16a>
    470c:	49a1      	ldr	r1, [pc, #644]	; (4994 <_dtoa_r+0x3d0>)
    470e:	00e3      	lsls	r3, r4, #3
    4710:	18c9      	adds	r1, r1, r3
    4712:	0032      	movs	r2, r6
    4714:	6808      	ldr	r0, [r1, #0]
    4716:	6849      	ldr	r1, [r1, #4]
    4718:	003b      	movs	r3, r7
    471a:	f002 fad5 	bl	6cc8 <__aeabi_dcmpgt>
    471e:	2800      	cmp	r0, #0
    4720:	d100      	bne.n	4724 <_dtoa_r+0x160>
    4722:	e31d      	b.n	4d60 <_dtoa_r+0x79c>
    4724:	0023      	movs	r3, r4
    4726:	3b01      	subs	r3, #1
    4728:	9303      	str	r3, [sp, #12]
    472a:	2300      	movs	r3, #0
    472c:	930c      	str	r3, [sp, #48]	; 0x30
    472e:	464b      	mov	r3, r9
    4730:	4642      	mov	r2, r8
    4732:	1a9a      	subs	r2, r3, r2
    4734:	2300      	movs	r3, #0
    4736:	9306      	str	r3, [sp, #24]
    4738:	0013      	movs	r3, r2
    473a:	3b01      	subs	r3, #1
    473c:	9304      	str	r3, [sp, #16]
    473e:	d500      	bpl.n	4742 <_dtoa_r+0x17e>
    4740:	e2a1      	b.n	4c86 <_dtoa_r+0x6c2>
    4742:	9b03      	ldr	r3, [sp, #12]
    4744:	2b00      	cmp	r3, #0
    4746:	da00      	bge.n	474a <_dtoa_r+0x186>
    4748:	e284      	b.n	4c54 <_dtoa_r+0x690>
    474a:	469c      	mov	ip, r3
    474c:	930d      	str	r3, [sp, #52]	; 0x34
    474e:	2300      	movs	r3, #0
    4750:	9a04      	ldr	r2, [sp, #16]
    4752:	4699      	mov	r9, r3
    4754:	0011      	movs	r1, r2
    4756:	4461      	add	r1, ip
    4758:	9104      	str	r1, [sp, #16]
    475a:	9b22      	ldr	r3, [sp, #136]	; 0x88
    475c:	2b09      	cmp	r3, #9
    475e:	d900      	bls.n	4762 <_dtoa_r+0x19e>
    4760:	e18f      	b.n	4a82 <_dtoa_r+0x4be>
    4762:	2401      	movs	r4, #1
    4764:	2b05      	cmp	r3, #5
    4766:	dd02      	ble.n	476e <_dtoa_r+0x1aa>
    4768:	2400      	movs	r4, #0
    476a:	3b04      	subs	r3, #4
    476c:	9322      	str	r3, [sp, #136]	; 0x88
    476e:	9b22      	ldr	r3, [sp, #136]	; 0x88
    4770:	2b03      	cmp	r3, #3
    4772:	d101      	bne.n	4778 <_dtoa_r+0x1b4>
    4774:	f000 fcce 	bl	5114 <_dtoa_r+0xb50>
    4778:	dc01      	bgt.n	477e <_dtoa_r+0x1ba>
    477a:	f000 fc92 	bl	50a2 <_dtoa_r+0xade>
    477e:	9b22      	ldr	r3, [sp, #136]	; 0x88
    4780:	2b04      	cmp	r3, #4
    4782:	d101      	bne.n	4788 <_dtoa_r+0x1c4>
    4784:	f000 fc40 	bl	5008 <_dtoa_r+0xa44>
    4788:	2301      	movs	r3, #1
    478a:	930b      	str	r3, [sp, #44]	; 0x2c
    478c:	9b22      	ldr	r3, [sp, #136]	; 0x88
    478e:	2b05      	cmp	r3, #5
    4790:	d001      	beq.n	4796 <_dtoa_r+0x1d2>
    4792:	f000 fc8b 	bl	50ac <_dtoa_r+0xae8>
    4796:	9a23      	ldr	r2, [sp, #140]	; 0x8c
    4798:	9b03      	ldr	r3, [sp, #12]
    479a:	4694      	mov	ip, r2
    479c:	4463      	add	r3, ip
    479e:	930e      	str	r3, [sp, #56]	; 0x38
    47a0:	3301      	adds	r3, #1
    47a2:	9307      	str	r3, [sp, #28]
    47a4:	1e1d      	subs	r5, r3, #0
    47a6:	dc01      	bgt.n	47ac <_dtoa_r+0x1e8>
    47a8:	f000 fd49 	bl	523e <_dtoa_r+0xc7a>
    47ac:	9b07      	ldr	r3, [sp, #28]
    47ae:	4698      	mov	r8, r3
    47b0:	2300      	movs	r3, #0
    47b2:	4652      	mov	r2, sl
    47b4:	2100      	movs	r1, #0
    47b6:	6453      	str	r3, [r2, #68]	; 0x44
    47b8:	2d17      	cmp	r5, #23
    47ba:	d90a      	bls.n	47d2 <_dtoa_r+0x20e>
    47bc:	2201      	movs	r2, #1
    47be:	3304      	adds	r3, #4
    47c0:	005b      	lsls	r3, r3, #1
    47c2:	0018      	movs	r0, r3
    47c4:	3014      	adds	r0, #20
    47c6:	0011      	movs	r1, r2
    47c8:	3201      	adds	r2, #1
    47ca:	4285      	cmp	r5, r0
    47cc:	d2f8      	bcs.n	47c0 <_dtoa_r+0x1fc>
    47ce:	4653      	mov	r3, sl
    47d0:	6459      	str	r1, [r3, #68]	; 0x44
    47d2:	4650      	mov	r0, sl
    47d4:	f001 fa2c 	bl	5c30 <_Balloc>
    47d8:	4653      	mov	r3, sl
    47da:	6418      	str	r0, [r3, #64]	; 0x40
    47dc:	4643      	mov	r3, r8
    47de:	900a      	str	r0, [sp, #40]	; 0x28
    47e0:	2b0e      	cmp	r3, #14
    47e2:	d900      	bls.n	47e6 <_dtoa_r+0x222>
    47e4:	e161      	b.n	4aaa <_dtoa_r+0x4e6>
    47e6:	2c00      	cmp	r4, #0
    47e8:	d100      	bne.n	47ec <_dtoa_r+0x228>
    47ea:	e15e      	b.n	4aaa <_dtoa_r+0x4e6>
    47ec:	9610      	str	r6, [sp, #64]	; 0x40
    47ee:	9711      	str	r7, [sp, #68]	; 0x44
    47f0:	9e03      	ldr	r6, [sp, #12]
    47f2:	2e00      	cmp	r6, #0
    47f4:	dc01      	bgt.n	47fa <_dtoa_r+0x236>
    47f6:	f000 fd25 	bl	5244 <_dtoa_r+0xc80>
    47fa:	0032      	movs	r2, r6
    47fc:	210f      	movs	r1, #15
    47fe:	4b65      	ldr	r3, [pc, #404]	; (4994 <_dtoa_r+0x3d0>)
    4800:	400a      	ands	r2, r1
    4802:	00d2      	lsls	r2, r2, #3
    4804:	189b      	adds	r3, r3, r2
    4806:	1136      	asrs	r6, r6, #4
    4808:	681c      	ldr	r4, [r3, #0]
    480a:	685d      	ldr	r5, [r3, #4]
    480c:	06f3      	lsls	r3, r6, #27
    480e:	d401      	bmi.n	4814 <_dtoa_r+0x250>
    4810:	f000 fcca 	bl	51a8 <_dtoa_r+0xbe4>
    4814:	4b60      	ldr	r3, [pc, #384]	; (4998 <_dtoa_r+0x3d4>)
    4816:	400e      	ands	r6, r1
    4818:	6a1a      	ldr	r2, [r3, #32]
    481a:	6a5b      	ldr	r3, [r3, #36]	; 0x24
    481c:	9810      	ldr	r0, [sp, #64]	; 0x40
    481e:	9911      	ldr	r1, [sp, #68]	; 0x44
    4820:	f002 fd76 	bl	7310 <__aeabi_ddiv>
    4824:	2303      	movs	r3, #3
    4826:	4698      	mov	r8, r3
    4828:	9008      	str	r0, [sp, #32]
    482a:	9109      	str	r1, [sp, #36]	; 0x24
    482c:	2e00      	cmp	r6, #0
    482e:	d011      	beq.n	4854 <_dtoa_r+0x290>
    4830:	4f59      	ldr	r7, [pc, #356]	; (4998 <_dtoa_r+0x3d4>)
    4832:	2301      	movs	r3, #1
    4834:	4233      	tst	r3, r6
    4836:	d009      	beq.n	484c <_dtoa_r+0x288>
    4838:	469c      	mov	ip, r3
    483a:	683a      	ldr	r2, [r7, #0]
    483c:	687b      	ldr	r3, [r7, #4]
    483e:	0020      	movs	r0, r4
    4840:	0029      	movs	r1, r5
    4842:	44e0      	add	r8, ip
    4844:	f003 f998 	bl	7b78 <__aeabi_dmul>
    4848:	0004      	movs	r4, r0
    484a:	000d      	movs	r5, r1
    484c:	1076      	asrs	r6, r6, #1
    484e:	3708      	adds	r7, #8
    4850:	2e00      	cmp	r6, #0
    4852:	d1ee      	bne.n	4832 <_dtoa_r+0x26e>
    4854:	0022      	movs	r2, r4
    4856:	9808      	ldr	r0, [sp, #32]
    4858:	9909      	ldr	r1, [sp, #36]	; 0x24
    485a:	002b      	movs	r3, r5
    485c:	f002 fd58 	bl	7310 <__aeabi_ddiv>
    4860:	0006      	movs	r6, r0
    4862:	000f      	movs	r7, r1
    4864:	9b0c      	ldr	r3, [sp, #48]	; 0x30
    4866:	2b00      	cmp	r3, #0
    4868:	d009      	beq.n	487e <_dtoa_r+0x2ba>
    486a:	2200      	movs	r2, #0
    486c:	4b40      	ldr	r3, [pc, #256]	; (4970 <_dtoa_r+0x3ac>)
    486e:	0030      	movs	r0, r6
    4870:	0039      	movs	r1, r7
    4872:	f002 fa15 	bl	6ca0 <__aeabi_dcmplt>
    4876:	2800      	cmp	r0, #0
    4878:	d001      	beq.n	487e <_dtoa_r+0x2ba>
    487a:	f000 fdc2 	bl	5402 <_dtoa_r+0xe3e>
    487e:	4640      	mov	r0, r8
    4880:	f003 ff64 	bl	874c <__aeabi_i2d>
    4884:	0032      	movs	r2, r6
    4886:	003b      	movs	r3, r7
    4888:	f003 f976 	bl	7b78 <__aeabi_dmul>
    488c:	2200      	movs	r2, #0
    488e:	4b43      	ldr	r3, [pc, #268]	; (499c <_dtoa_r+0x3d8>)
    4890:	f002 fa2e 	bl	6cf0 <__aeabi_dadd>
    4894:	4a42      	ldr	r2, [pc, #264]	; (49a0 <_dtoa_r+0x3dc>)
    4896:	000b      	movs	r3, r1
    4898:	4694      	mov	ip, r2
    489a:	4463      	add	r3, ip
    489c:	9008      	str	r0, [sp, #32]
    489e:	9109      	str	r1, [sp, #36]	; 0x24
    48a0:	9309      	str	r3, [sp, #36]	; 0x24
    48a2:	9b07      	ldr	r3, [sp, #28]
    48a4:	2b00      	cmp	r3, #0
    48a6:	d101      	bne.n	48ac <_dtoa_r+0x2e8>
    48a8:	f000 fc50 	bl	514c <_dtoa_r+0xb88>
    48ac:	9b03      	ldr	r3, [sp, #12]
    48ae:	9313      	str	r3, [sp, #76]	; 0x4c
    48b0:	9b07      	ldr	r3, [sp, #28]
    48b2:	9312      	str	r3, [sp, #72]	; 0x48
    48b4:	9b0b      	ldr	r3, [sp, #44]	; 0x2c
    48b6:	2b00      	cmp	r3, #0
    48b8:	d101      	bne.n	48be <_dtoa_r+0x2fa>
    48ba:	f000 fd1d 	bl	52f8 <_dtoa_r+0xd34>
    48be:	9b12      	ldr	r3, [sp, #72]	; 0x48
    48c0:	2000      	movs	r0, #0
    48c2:	1e5a      	subs	r2, r3, #1
    48c4:	4b33      	ldr	r3, [pc, #204]	; (4994 <_dtoa_r+0x3d0>)
    48c6:	00d2      	lsls	r2, r2, #3
    48c8:	189b      	adds	r3, r3, r2
    48ca:	681a      	ldr	r2, [r3, #0]
    48cc:	685b      	ldr	r3, [r3, #4]
    48ce:	4935      	ldr	r1, [pc, #212]	; (49a4 <_dtoa_r+0x3e0>)
    48d0:	f002 fd1e 	bl	7310 <__aeabi_ddiv>
    48d4:	9a08      	ldr	r2, [sp, #32]
    48d6:	9b09      	ldr	r3, [sp, #36]	; 0x24
    48d8:	f003 fbce 	bl	8078 <__aeabi_dsub>
    48dc:	9008      	str	r0, [sp, #32]
    48de:	9109      	str	r1, [sp, #36]	; 0x24
    48e0:	0039      	movs	r1, r7
    48e2:	0030      	movs	r0, r6
    48e4:	f003 fefe 	bl	86e4 <__aeabi_d2iz>
    48e8:	0004      	movs	r4, r0
    48ea:	f003 ff2f 	bl	874c <__aeabi_i2d>
    48ee:	0002      	movs	r2, r0
    48f0:	000b      	movs	r3, r1
    48f2:	0030      	movs	r0, r6
    48f4:	0039      	movs	r1, r7
    48f6:	f003 fbbf 	bl	8078 <__aeabi_dsub>
    48fa:	0005      	movs	r5, r0
    48fc:	000e      	movs	r6, r1
    48fe:	9a0a      	ldr	r2, [sp, #40]	; 0x28
    4900:	3430      	adds	r4, #48	; 0x30
    4902:	1c51      	adds	r1, r2, #1
    4904:	b2e7      	uxtb	r7, r4
    4906:	9114      	str	r1, [sp, #80]	; 0x50
    4908:	7017      	strb	r7, [r2, #0]
    490a:	0033      	movs	r3, r6
    490c:	9808      	ldr	r0, [sp, #32]
    490e:	9909      	ldr	r1, [sp, #36]	; 0x24
    4910:	002a      	movs	r2, r5
    4912:	f002 f9d9 	bl	6cc8 <__aeabi_dcmpgt>
    4916:	2800      	cmp	r0, #0
    4918:	d001      	beq.n	491e <_dtoa_r+0x35a>
    491a:	f000 fdfe 	bl	551a <_dtoa_r+0xf56>
    491e:	002a      	movs	r2, r5
    4920:	0033      	movs	r3, r6
    4922:	2000      	movs	r0, #0
    4924:	4912      	ldr	r1, [pc, #72]	; (4970 <_dtoa_r+0x3ac>)
    4926:	f003 fba7 	bl	8078 <__aeabi_dsub>
    492a:	0002      	movs	r2, r0
    492c:	000b      	movs	r3, r1
    492e:	9808      	ldr	r0, [sp, #32]
    4930:	9909      	ldr	r1, [sp, #36]	; 0x24
    4932:	f002 f9c9 	bl	6cc8 <__aeabi_dcmpgt>
    4936:	2800      	cmp	r0, #0
    4938:	d001      	beq.n	493e <_dtoa_r+0x37a>
    493a:	f000 fde7 	bl	550c <_dtoa_r+0xf48>
    493e:	9b12      	ldr	r3, [sp, #72]	; 0x48
    4940:	2b01      	cmp	r3, #1
    4942:	d101      	bne.n	4948 <_dtoa_r+0x384>
    4944:	f000 fc78 	bl	5238 <_dtoa_r+0xc74>
    4948:	9a0a      	ldr	r2, [sp, #40]	; 0x28
    494a:	9b12      	ldr	r3, [sp, #72]	; 0x48
    494c:	4694      	mov	ip, r2
    494e:	4463      	add	r3, ip
    4950:	4698      	mov	r8, r3
    4952:	464b      	mov	r3, r9
    4954:	9312      	str	r3, [sp, #72]	; 0x48
    4956:	9b14      	ldr	r3, [sp, #80]	; 0x50
    4958:	4699      	mov	r9, r3
    495a:	e038      	b.n	49ce <_dtoa_r+0x40a>
    495c:	7ff00000 	.word	0x7ff00000
    4960:	00008cc9 	.word	0x00008cc9
    4964:	0000270f 	.word	0x0000270f
    4968:	00008cec 	.word	0x00008cec
    496c:	00008cf8 	.word	0x00008cf8
    4970:	3ff00000 	.word	0x3ff00000
    4974:	fffffc01 	.word	0xfffffc01
    4978:	3ff80000 	.word	0x3ff80000
    497c:	636f4361 	.word	0x636f4361
    4980:	3fd287a7 	.word	0x3fd287a7
    4984:	8b60c8b3 	.word	0x8b60c8b3
    4988:	3fc68a28 	.word	0x3fc68a28
    498c:	509f79fb 	.word	0x509f79fb
    4990:	3fd34413 	.word	0x3fd34413
    4994:	00008d28 	.word	0x00008d28
    4998:	00008d00 	.word	0x00008d00
    499c:	401c0000 	.word	0x401c0000
    49a0:	fcc00000 	.word	0xfcc00000
    49a4:	3fe00000 	.word	0x3fe00000
    49a8:	002a      	movs	r2, r5
    49aa:	0033      	movs	r3, r6
    49ac:	2000      	movs	r0, #0
    49ae:	49b9      	ldr	r1, [pc, #740]	; (4c94 <_dtoa_r+0x6d0>)
    49b0:	f003 fb62 	bl	8078 <__aeabi_dsub>
    49b4:	9a08      	ldr	r2, [sp, #32]
    49b6:	9b09      	ldr	r3, [sp, #36]	; 0x24
    49b8:	f002 f972 	bl	6ca0 <__aeabi_dcmplt>
    49bc:	2800      	cmp	r0, #0
    49be:	d001      	beq.n	49c4 <_dtoa_r+0x400>
    49c0:	f000 fd74 	bl	54ac <_dtoa_r+0xee8>
    49c4:	46a1      	mov	r9, r4
    49c6:	4544      	cmp	r4, r8
    49c8:	d101      	bne.n	49ce <_dtoa_r+0x40a>
    49ca:	f000 fc33 	bl	5234 <_dtoa_r+0xc70>
    49ce:	9808      	ldr	r0, [sp, #32]
    49d0:	9909      	ldr	r1, [sp, #36]	; 0x24
    49d2:	2200      	movs	r2, #0
    49d4:	4bb0      	ldr	r3, [pc, #704]	; (4c98 <_dtoa_r+0x6d4>)
    49d6:	f003 f8cf 	bl	7b78 <__aeabi_dmul>
    49da:	2200      	movs	r2, #0
    49dc:	4bae      	ldr	r3, [pc, #696]	; (4c98 <_dtoa_r+0x6d4>)
    49de:	9008      	str	r0, [sp, #32]
    49e0:	9109      	str	r1, [sp, #36]	; 0x24
    49e2:	0028      	movs	r0, r5
    49e4:	0031      	movs	r1, r6
    49e6:	f003 f8c7 	bl	7b78 <__aeabi_dmul>
    49ea:	000d      	movs	r5, r1
    49ec:	0004      	movs	r4, r0
    49ee:	f003 fe79 	bl	86e4 <__aeabi_d2iz>
    49f2:	0007      	movs	r7, r0
    49f4:	f003 feaa 	bl	874c <__aeabi_i2d>
    49f8:	0002      	movs	r2, r0
    49fa:	000b      	movs	r3, r1
    49fc:	0020      	movs	r0, r4
    49fe:	0029      	movs	r1, r5
    4a00:	f003 fb3a 	bl	8078 <__aeabi_dsub>
    4a04:	464b      	mov	r3, r9
    4a06:	3730      	adds	r7, #48	; 0x30
    4a08:	b2ff      	uxtb	r7, r7
    4a0a:	1c5c      	adds	r4, r3, #1
    4a0c:	701f      	strb	r7, [r3, #0]
    4a0e:	9a08      	ldr	r2, [sp, #32]
    4a10:	9b09      	ldr	r3, [sp, #36]	; 0x24
    4a12:	0005      	movs	r5, r0
    4a14:	000e      	movs	r6, r1
    4a16:	f002 f943 	bl	6ca0 <__aeabi_dcmplt>
    4a1a:	2800      	cmp	r0, #0
    4a1c:	d0c4      	beq.n	49a8 <_dtoa_r+0x3e4>
    4a1e:	9b13      	ldr	r3, [sp, #76]	; 0x4c
    4a20:	9303      	str	r3, [sp, #12]
    4a22:	4659      	mov	r1, fp
    4a24:	4650      	mov	r0, sl
    4a26:	f001 f92b 	bl	5c80 <_Bfree>
    4a2a:	2300      	movs	r3, #0
    4a2c:	7023      	strb	r3, [r4, #0]
    4a2e:	9b03      	ldr	r3, [sp, #12]
    4a30:	9a24      	ldr	r2, [sp, #144]	; 0x90
    4a32:	3301      	adds	r3, #1
    4a34:	6013      	str	r3, [r2, #0]
    4a36:	9b26      	ldr	r3, [sp, #152]	; 0x98
    4a38:	2b00      	cmp	r3, #0
    4a3a:	d100      	bne.n	4a3e <_dtoa_r+0x47a>
    4a3c:	e3a8      	b.n	5190 <_dtoa_r+0xbcc>
    4a3e:	601c      	str	r4, [r3, #0]
    4a40:	980a      	ldr	r0, [sp, #40]	; 0x28
    4a42:	e5f4      	b.n	462e <_dtoa_r+0x6a>
    4a44:	9b16      	ldr	r3, [sp, #88]	; 0x58
    4a46:	4699      	mov	r9, r3
    4a48:	9b17      	ldr	r3, [sp, #92]	; 0x5c
    4a4a:	444b      	add	r3, r9
    4a4c:	001c      	movs	r4, r3
    4a4e:	4b93      	ldr	r3, [pc, #588]	; (4c9c <_dtoa_r+0x6d8>)
    4a50:	18e3      	adds	r3, r4, r3
    4a52:	2b20      	cmp	r3, #32
    4a54:	dc00      	bgt.n	4a58 <_dtoa_r+0x494>
    4a56:	e17e      	b.n	4d56 <_dtoa_r+0x792>
    4a58:	0031      	movs	r1, r6
    4a5a:	4a91      	ldr	r2, [pc, #580]	; (4ca0 <_dtoa_r+0x6dc>)
    4a5c:	4640      	mov	r0, r8
    4a5e:	18a2      	adds	r2, r4, r2
    4a60:	40d1      	lsrs	r1, r2
    4a62:	000a      	movs	r2, r1
    4a64:	2140      	movs	r1, #64	; 0x40
    4a66:	1acb      	subs	r3, r1, r3
    4a68:	4098      	lsls	r0, r3
    4a6a:	4310      	orrs	r0, r2
    4a6c:	f003 feb0 	bl	87d0 <__aeabi_ui2d>
    4a70:	1e63      	subs	r3, r4, #1
    4a72:	4698      	mov	r8, r3
    4a74:	2301      	movs	r3, #1
    4a76:	4d8b      	ldr	r5, [pc, #556]	; (4ca4 <_dtoa_r+0x6e0>)
    4a78:	930f      	str	r3, [sp, #60]	; 0x3c
    4a7a:	1949      	adds	r1, r1, r5
    4a7c:	e618      	b.n	46b0 <_dtoa_r+0xec>
    4a7e:	488a      	ldr	r0, [pc, #552]	; (4ca8 <_dtoa_r+0x6e4>)
    4a80:	e5d5      	b.n	462e <_dtoa_r+0x6a>
    4a82:	2300      	movs	r3, #0
    4a84:	4652      	mov	r2, sl
    4a86:	2100      	movs	r1, #0
    4a88:	6453      	str	r3, [r2, #68]	; 0x44
    4a8a:	4650      	mov	r0, sl
    4a8c:	f001 f8d0 	bl	5c30 <_Balloc>
    4a90:	4653      	mov	r3, sl
    4a92:	6418      	str	r0, [r3, #64]	; 0x40
    4a94:	2301      	movs	r3, #1
    4a96:	425b      	negs	r3, r3
    4a98:	9307      	str	r3, [sp, #28]
    4a9a:	930e      	str	r3, [sp, #56]	; 0x38
    4a9c:	3302      	adds	r3, #2
    4a9e:	2200      	movs	r2, #0
    4aa0:	930b      	str	r3, [sp, #44]	; 0x2c
    4aa2:	2300      	movs	r3, #0
    4aa4:	900a      	str	r0, [sp, #40]	; 0x28
    4aa6:	9223      	str	r2, [sp, #140]	; 0x8c
    4aa8:	9322      	str	r3, [sp, #136]	; 0x88
    4aaa:	9b17      	ldr	r3, [sp, #92]	; 0x5c
    4aac:	2b00      	cmp	r3, #0
    4aae:	da00      	bge.n	4ab2 <_dtoa_r+0x4ee>
    4ab0:	e0ab      	b.n	4c0a <_dtoa_r+0x646>
    4ab2:	9a03      	ldr	r2, [sp, #12]
    4ab4:	2a0e      	cmp	r2, #14
    4ab6:	dd00      	ble.n	4aba <_dtoa_r+0x4f6>
    4ab8:	e0a7      	b.n	4c0a <_dtoa_r+0x646>
    4aba:	4b7c      	ldr	r3, [pc, #496]	; (4cac <_dtoa_r+0x6e8>)
    4abc:	00d2      	lsls	r2, r2, #3
    4abe:	189b      	adds	r3, r3, r2
    4ac0:	685c      	ldr	r4, [r3, #4]
    4ac2:	681b      	ldr	r3, [r3, #0]
    4ac4:	9304      	str	r3, [sp, #16]
    4ac6:	9405      	str	r4, [sp, #20]
    4ac8:	9b23      	ldr	r3, [sp, #140]	; 0x8c
    4aca:	2b00      	cmp	r3, #0
    4acc:	da00      	bge.n	4ad0 <_dtoa_r+0x50c>
    4ace:	e2a7      	b.n	5020 <_dtoa_r+0xa5c>
    4ad0:	9c04      	ldr	r4, [sp, #16]
    4ad2:	9d05      	ldr	r5, [sp, #20]
    4ad4:	0030      	movs	r0, r6
    4ad6:	0022      	movs	r2, r4
    4ad8:	002b      	movs	r3, r5
    4ada:	0039      	movs	r1, r7
    4adc:	f002 fc18 	bl	7310 <__aeabi_ddiv>
    4ae0:	f003 fe00 	bl	86e4 <__aeabi_d2iz>
    4ae4:	4680      	mov	r8, r0
    4ae6:	f003 fe31 	bl	874c <__aeabi_i2d>
    4aea:	0022      	movs	r2, r4
    4aec:	002b      	movs	r3, r5
    4aee:	f003 f843 	bl	7b78 <__aeabi_dmul>
    4af2:	0002      	movs	r2, r0
    4af4:	000b      	movs	r3, r1
    4af6:	0030      	movs	r0, r6
    4af8:	0039      	movs	r1, r7
    4afa:	f003 fabd 	bl	8078 <__aeabi_dsub>
    4afe:	4643      	mov	r3, r8
    4b00:	9a0a      	ldr	r2, [sp, #40]	; 0x28
    4b02:	3330      	adds	r3, #48	; 0x30
    4b04:	7013      	strb	r3, [r2, #0]
    4b06:	9b07      	ldr	r3, [sp, #28]
    4b08:	0006      	movs	r6, r0
    4b0a:	000f      	movs	r7, r1
    4b0c:	1c54      	adds	r4, r2, #1
    4b0e:	2b01      	cmp	r3, #1
    4b10:	d04e      	beq.n	4bb0 <_dtoa_r+0x5ec>
    4b12:	2200      	movs	r2, #0
    4b14:	4b60      	ldr	r3, [pc, #384]	; (4c98 <_dtoa_r+0x6d4>)
    4b16:	f003 f82f 	bl	7b78 <__aeabi_dmul>
    4b1a:	2200      	movs	r2, #0
    4b1c:	2300      	movs	r3, #0
    4b1e:	0006      	movs	r6, r0
    4b20:	000f      	movs	r7, r1
    4b22:	f002 f8b7 	bl	6c94 <__aeabi_dcmpeq>
    4b26:	2800      	cmp	r0, #0
    4b28:	d000      	beq.n	4b2c <_dtoa_r+0x568>
    4b2a:	e77a      	b.n	4a22 <_dtoa_r+0x45e>
    4b2c:	9b0a      	ldr	r3, [sp, #40]	; 0x28
    4b2e:	9a07      	ldr	r2, [sp, #28]
    4b30:	1c9d      	adds	r5, r3, #2
    4b32:	469c      	mov	ip, r3
    4b34:	465b      	mov	r3, fp
    4b36:	9306      	str	r3, [sp, #24]
    4b38:	4653      	mov	r3, sl
    4b3a:	4462      	add	r2, ip
    4b3c:	46aa      	mov	sl, r5
    4b3e:	9c04      	ldr	r4, [sp, #16]
    4b40:	9d05      	ldr	r5, [sp, #20]
    4b42:	4691      	mov	r9, r2
    4b44:	9307      	str	r3, [sp, #28]
    4b46:	e00f      	b.n	4b68 <_dtoa_r+0x5a4>
    4b48:	2200      	movs	r2, #0
    4b4a:	4b53      	ldr	r3, [pc, #332]	; (4c98 <_dtoa_r+0x6d4>)
    4b4c:	f003 f814 	bl	7b78 <__aeabi_dmul>
    4b50:	2301      	movs	r3, #1
    4b52:	469c      	mov	ip, r3
    4b54:	2200      	movs	r2, #0
    4b56:	2300      	movs	r3, #0
    4b58:	0006      	movs	r6, r0
    4b5a:	000f      	movs	r7, r1
    4b5c:	44e2      	add	sl, ip
    4b5e:	f002 f899 	bl	6c94 <__aeabi_dcmpeq>
    4b62:	2800      	cmp	r0, #0
    4b64:	d000      	beq.n	4b68 <_dtoa_r+0x5a4>
    4b66:	e2d9      	b.n	511c <_dtoa_r+0xb58>
    4b68:	0022      	movs	r2, r4
    4b6a:	002b      	movs	r3, r5
    4b6c:	0030      	movs	r0, r6
    4b6e:	0039      	movs	r1, r7
    4b70:	f002 fbce 	bl	7310 <__aeabi_ddiv>
    4b74:	f003 fdb6 	bl	86e4 <__aeabi_d2iz>
    4b78:	4680      	mov	r8, r0
    4b7a:	f003 fde7 	bl	874c <__aeabi_i2d>
    4b7e:	0022      	movs	r2, r4
    4b80:	002b      	movs	r3, r5
    4b82:	f002 fff9 	bl	7b78 <__aeabi_dmul>
    4b86:	0002      	movs	r2, r0
    4b88:	000b      	movs	r3, r1
    4b8a:	0030      	movs	r0, r6
    4b8c:	0039      	movs	r1, r7
    4b8e:	f003 fa73 	bl	8078 <__aeabi_dsub>
    4b92:	4653      	mov	r3, sl
    4b94:	4642      	mov	r2, r8
    4b96:	3b01      	subs	r3, #1
    4b98:	3230      	adds	r2, #48	; 0x30
    4b9a:	0006      	movs	r6, r0
    4b9c:	000f      	movs	r7, r1
    4b9e:	46d3      	mov	fp, sl
    4ba0:	701a      	strb	r2, [r3, #0]
    4ba2:	45d1      	cmp	r9, sl
    4ba4:	d1d0      	bne.n	4b48 <_dtoa_r+0x584>
    4ba6:	9b06      	ldr	r3, [sp, #24]
    4ba8:	4654      	mov	r4, sl
    4baa:	469b      	mov	fp, r3
    4bac:	9b07      	ldr	r3, [sp, #28]
    4bae:	469a      	mov	sl, r3
    4bb0:	0032      	movs	r2, r6
    4bb2:	003b      	movs	r3, r7
    4bb4:	0030      	movs	r0, r6
    4bb6:	0039      	movs	r1, r7
    4bb8:	f002 f89a 	bl	6cf0 <__aeabi_dadd>
    4bbc:	0006      	movs	r6, r0
    4bbe:	000f      	movs	r7, r1
    4bc0:	0002      	movs	r2, r0
    4bc2:	000b      	movs	r3, r1
    4bc4:	9804      	ldr	r0, [sp, #16]
    4bc6:	9905      	ldr	r1, [sp, #20]
    4bc8:	f002 f86a 	bl	6ca0 <__aeabi_dcmplt>
    4bcc:	2800      	cmp	r0, #0
    4bce:	d10c      	bne.n	4bea <_dtoa_r+0x626>
    4bd0:	9804      	ldr	r0, [sp, #16]
    4bd2:	9905      	ldr	r1, [sp, #20]
    4bd4:	0032      	movs	r2, r6
    4bd6:	003b      	movs	r3, r7
    4bd8:	f002 f85c 	bl	6c94 <__aeabi_dcmpeq>
    4bdc:	2800      	cmp	r0, #0
    4bde:	d100      	bne.n	4be2 <_dtoa_r+0x61e>
    4be0:	e71f      	b.n	4a22 <_dtoa_r+0x45e>
    4be2:	4643      	mov	r3, r8
    4be4:	07db      	lsls	r3, r3, #31
    4be6:	d400      	bmi.n	4bea <_dtoa_r+0x626>
    4be8:	e71b      	b.n	4a22 <_dtoa_r+0x45e>
    4bea:	1e65      	subs	r5, r4, #1
    4bec:	782f      	ldrb	r7, [r5, #0]
    4bee:	9b0a      	ldr	r3, [sp, #40]	; 0x28
    4bf0:	e006      	b.n	4c00 <_dtoa_r+0x63c>
    4bf2:	429d      	cmp	r5, r3
    4bf4:	d100      	bne.n	4bf8 <_dtoa_r+0x634>
    4bf6:	e351      	b.n	529c <_dtoa_r+0xcd8>
    4bf8:	3c02      	subs	r4, #2
    4bfa:	7827      	ldrb	r7, [r4, #0]
    4bfc:	002c      	movs	r4, r5
    4bfe:	3d01      	subs	r5, #1
    4c00:	2f39      	cmp	r7, #57	; 0x39
    4c02:	d0f6      	beq.n	4bf2 <_dtoa_r+0x62e>
    4c04:	3701      	adds	r7, #1
    4c06:	702f      	strb	r7, [r5, #0]
    4c08:	e70b      	b.n	4a22 <_dtoa_r+0x45e>
    4c0a:	9a0b      	ldr	r2, [sp, #44]	; 0x2c
    4c0c:	2a00      	cmp	r2, #0
    4c0e:	d04f      	beq.n	4cb0 <_dtoa_r+0x6ec>
    4c10:	9a22      	ldr	r2, [sp, #136]	; 0x88
    4c12:	2a01      	cmp	r2, #1
    4c14:	dc00      	bgt.n	4c18 <_dtoa_r+0x654>
    4c16:	e22c      	b.n	5072 <_dtoa_r+0xaae>
    4c18:	9b07      	ldr	r3, [sp, #28]
    4c1a:	1e5c      	subs	r4, r3, #1
    4c1c:	464b      	mov	r3, r9
    4c1e:	45a1      	cmp	r9, r4
    4c20:	da00      	bge.n	4c24 <_dtoa_r+0x660>
    4c22:	e2b8      	b.n	5196 <_dtoa_r+0xbd2>
    4c24:	1b1c      	subs	r4, r3, r4
    4c26:	9b07      	ldr	r3, [sp, #28]
    4c28:	2b00      	cmp	r3, #0
    4c2a:	da00      	bge.n	4c2e <_dtoa_r+0x66a>
    4c2c:	e3d4      	b.n	53d8 <_dtoa_r+0xe14>
    4c2e:	9b06      	ldr	r3, [sp, #24]
    4c30:	9308      	str	r3, [sp, #32]
    4c32:	9b07      	ldr	r3, [sp, #28]
    4c34:	9a06      	ldr	r2, [sp, #24]
    4c36:	2101      	movs	r1, #1
    4c38:	4694      	mov	ip, r2
    4c3a:	449c      	add	ip, r3
    4c3c:	4662      	mov	r2, ip
    4c3e:	9206      	str	r2, [sp, #24]
    4c40:	9a04      	ldr	r2, [sp, #16]
    4c42:	4650      	mov	r0, sl
    4c44:	4694      	mov	ip, r2
    4c46:	449c      	add	ip, r3
    4c48:	4663      	mov	r3, ip
    4c4a:	9304      	str	r3, [sp, #16]
    4c4c:	f001 f8b0 	bl	5db0 <__i2b>
    4c50:	4680      	mov	r8, r0
    4c52:	e032      	b.n	4cba <_dtoa_r+0x6f6>
    4c54:	9a06      	ldr	r2, [sp, #24]
    4c56:	9b03      	ldr	r3, [sp, #12]
    4c58:	1ad2      	subs	r2, r2, r3
    4c5a:	425b      	negs	r3, r3
    4c5c:	4699      	mov	r9, r3
    4c5e:	2300      	movs	r3, #0
    4c60:	9206      	str	r2, [sp, #24]
    4c62:	930d      	str	r3, [sp, #52]	; 0x34
    4c64:	e579      	b.n	475a <_dtoa_r+0x196>
    4c66:	9803      	ldr	r0, [sp, #12]
    4c68:	f003 fd70 	bl	874c <__aeabi_i2d>
    4c6c:	000b      	movs	r3, r1
    4c6e:	0002      	movs	r2, r0
    4c70:	0029      	movs	r1, r5
    4c72:	0020      	movs	r0, r4
    4c74:	f002 f80e 	bl	6c94 <__aeabi_dcmpeq>
    4c78:	0002      	movs	r2, r0
    4c7a:	4250      	negs	r0, r2
    4c7c:	4150      	adcs	r0, r2
    4c7e:	9b03      	ldr	r3, [sp, #12]
    4c80:	1a1b      	subs	r3, r3, r0
    4c82:	9303      	str	r3, [sp, #12]
    4c84:	e53d      	b.n	4702 <_dtoa_r+0x13e>
    4c86:	2301      	movs	r3, #1
    4c88:	1a9b      	subs	r3, r3, r2
    4c8a:	9306      	str	r3, [sp, #24]
    4c8c:	2300      	movs	r3, #0
    4c8e:	9304      	str	r3, [sp, #16]
    4c90:	e557      	b.n	4742 <_dtoa_r+0x17e>
    4c92:	46c0      	nop			; (mov r8, r8)
    4c94:	3ff00000 	.word	0x3ff00000
    4c98:	40240000 	.word	0x40240000
    4c9c:	00000432 	.word	0x00000432
    4ca0:	00000412 	.word	0x00000412
    4ca4:	fe100000 	.word	0xfe100000
    4ca8:	00008cc8 	.word	0x00008cc8
    4cac:	00008d28 	.word	0x00008d28
    4cb0:	9b06      	ldr	r3, [sp, #24]
    4cb2:	464c      	mov	r4, r9
    4cb4:	9308      	str	r3, [sp, #32]
    4cb6:	2300      	movs	r3, #0
    4cb8:	4698      	mov	r8, r3
    4cba:	9908      	ldr	r1, [sp, #32]
    4cbc:	1e0b      	subs	r3, r1, #0
    4cbe:	dd0e      	ble.n	4cde <_dtoa_r+0x71a>
    4cc0:	9a04      	ldr	r2, [sp, #16]
    4cc2:	2a00      	cmp	r2, #0
    4cc4:	dd0b      	ble.n	4cde <_dtoa_r+0x71a>
    4cc6:	4293      	cmp	r3, r2
    4cc8:	dd00      	ble.n	4ccc <_dtoa_r+0x708>
    4cca:	e187      	b.n	4fdc <_dtoa_r+0xa18>
    4ccc:	9a06      	ldr	r2, [sp, #24]
    4cce:	1ad2      	subs	r2, r2, r3
    4cd0:	9206      	str	r2, [sp, #24]
    4cd2:	9a08      	ldr	r2, [sp, #32]
    4cd4:	1ad2      	subs	r2, r2, r3
    4cd6:	9208      	str	r2, [sp, #32]
    4cd8:	9a04      	ldr	r2, [sp, #16]
    4cda:	1ad3      	subs	r3, r2, r3
    4cdc:	9304      	str	r3, [sp, #16]
    4cde:	464b      	mov	r3, r9
    4ce0:	2b00      	cmp	r3, #0
    4ce2:	d01a      	beq.n	4d1a <_dtoa_r+0x756>
    4ce4:	9b0b      	ldr	r3, [sp, #44]	; 0x2c
    4ce6:	2b00      	cmp	r3, #0
    4ce8:	d100      	bne.n	4cec <_dtoa_r+0x728>
    4cea:	e1bb      	b.n	5064 <_dtoa_r+0xaa0>
    4cec:	2c00      	cmp	r4, #0
    4cee:	dd10      	ble.n	4d12 <_dtoa_r+0x74e>
    4cf0:	4641      	mov	r1, r8
    4cf2:	0022      	movs	r2, r4
    4cf4:	4650      	mov	r0, sl
    4cf6:	f001 f90f 	bl	5f18 <__pow5mult>
    4cfa:	465a      	mov	r2, fp
    4cfc:	0001      	movs	r1, r0
    4cfe:	4680      	mov	r8, r0
    4d00:	4650      	mov	r0, sl
    4d02:	f001 f85f 	bl	5dc4 <__multiply>
    4d06:	0005      	movs	r5, r0
    4d08:	4659      	mov	r1, fp
    4d0a:	4650      	mov	r0, sl
    4d0c:	f000 ffb8 	bl	5c80 <_Bfree>
    4d10:	46ab      	mov	fp, r5
    4d12:	464b      	mov	r3, r9
    4d14:	1b1a      	subs	r2, r3, r4
    4d16:	d000      	beq.n	4d1a <_dtoa_r+0x756>
    4d18:	e1a5      	b.n	5066 <_dtoa_r+0xaa2>
    4d1a:	2101      	movs	r1, #1
    4d1c:	4650      	mov	r0, sl
    4d1e:	f001 f847 	bl	5db0 <__i2b>
    4d22:	9b0d      	ldr	r3, [sp, #52]	; 0x34
    4d24:	4681      	mov	r9, r0
    4d26:	2b00      	cmp	r3, #0
    4d28:	dd1d      	ble.n	4d66 <_dtoa_r+0x7a2>
    4d2a:	001a      	movs	r2, r3
    4d2c:	0001      	movs	r1, r0
    4d2e:	4650      	mov	r0, sl
    4d30:	f001 f8f2 	bl	5f18 <__pow5mult>
    4d34:	9b22      	ldr	r3, [sp, #136]	; 0x88
    4d36:	4681      	mov	r9, r0
    4d38:	2b01      	cmp	r3, #1
    4d3a:	dc00      	bgt.n	4d3e <_dtoa_r+0x77a>
    4d3c:	e150      	b.n	4fe0 <_dtoa_r+0xa1c>
    4d3e:	2400      	movs	r4, #0
    4d40:	464b      	mov	r3, r9
    4d42:	691b      	ldr	r3, [r3, #16]
    4d44:	3303      	adds	r3, #3
    4d46:	009b      	lsls	r3, r3, #2
    4d48:	444b      	add	r3, r9
    4d4a:	6858      	ldr	r0, [r3, #4]
    4d4c:	f000 ffe8 	bl	5d20 <__hi0bits>
    4d50:	2320      	movs	r3, #32
    4d52:	1a1b      	subs	r3, r3, r0
    4d54:	e010      	b.n	4d78 <_dtoa_r+0x7b4>
    4d56:	2220      	movs	r2, #32
    4d58:	0030      	movs	r0, r6
    4d5a:	1ad3      	subs	r3, r2, r3
    4d5c:	4098      	lsls	r0, r3
    4d5e:	e685      	b.n	4a6c <_dtoa_r+0x4a8>
    4d60:	2300      	movs	r3, #0
    4d62:	930c      	str	r3, [sp, #48]	; 0x30
    4d64:	e4e3      	b.n	472e <_dtoa_r+0x16a>
    4d66:	9b22      	ldr	r3, [sp, #136]	; 0x88
    4d68:	2400      	movs	r4, #0
    4d6a:	2b01      	cmp	r3, #1
    4d6c:	dc00      	bgt.n	4d70 <_dtoa_r+0x7ac>
    4d6e:	e18b      	b.n	5088 <_dtoa_r+0xac4>
    4d70:	9a0d      	ldr	r2, [sp, #52]	; 0x34
    4d72:	2301      	movs	r3, #1
    4d74:	2a00      	cmp	r2, #0
    4d76:	d1e3      	bne.n	4d40 <_dtoa_r+0x77c>
    4d78:	9904      	ldr	r1, [sp, #16]
    4d7a:	201f      	movs	r0, #31
    4d7c:	468c      	mov	ip, r1
    4d7e:	4463      	add	r3, ip
    4d80:	4018      	ands	r0, r3
    4d82:	d100      	bne.n	4d86 <_dtoa_r+0x7c2>
    4d84:	e0ae      	b.n	4ee4 <_dtoa_r+0x920>
    4d86:	2320      	movs	r3, #32
    4d88:	1a1b      	subs	r3, r3, r0
    4d8a:	2b04      	cmp	r3, #4
    4d8c:	dc00      	bgt.n	4d90 <_dtoa_r+0x7cc>
    4d8e:	e3cc      	b.n	552a <_dtoa_r+0xf66>
    4d90:	231c      	movs	r3, #28
    4d92:	1a18      	subs	r0, r3, r0
    4d94:	9b06      	ldr	r3, [sp, #24]
    4d96:	469c      	mov	ip, r3
    4d98:	4484      	add	ip, r0
    4d9a:	4663      	mov	r3, ip
    4d9c:	9306      	str	r3, [sp, #24]
    4d9e:	9b08      	ldr	r3, [sp, #32]
    4da0:	469c      	mov	ip, r3
    4da2:	4484      	add	ip, r0
    4da4:	4663      	mov	r3, ip
    4da6:	468c      	mov	ip, r1
    4da8:	4484      	add	ip, r0
    4daa:	9308      	str	r3, [sp, #32]
    4dac:	4663      	mov	r3, ip
    4dae:	9304      	str	r3, [sp, #16]
    4db0:	9b06      	ldr	r3, [sp, #24]
    4db2:	2b00      	cmp	r3, #0
    4db4:	dd05      	ble.n	4dc2 <_dtoa_r+0x7fe>
    4db6:	4659      	mov	r1, fp
    4db8:	001a      	movs	r2, r3
    4dba:	4650      	mov	r0, sl
    4dbc:	f001 f90c 	bl	5fd8 <__lshift>
    4dc0:	4683      	mov	fp, r0
    4dc2:	9b04      	ldr	r3, [sp, #16]
    4dc4:	2b00      	cmp	r3, #0
    4dc6:	dd05      	ble.n	4dd4 <_dtoa_r+0x810>
    4dc8:	4649      	mov	r1, r9
    4dca:	001a      	movs	r2, r3
    4dcc:	4650      	mov	r0, sl
    4dce:	f001 f903 	bl	5fd8 <__lshift>
    4dd2:	4681      	mov	r9, r0
    4dd4:	9b0c      	ldr	r3, [sp, #48]	; 0x30
    4dd6:	2b00      	cmp	r3, #0
    4dd8:	d000      	beq.n	4ddc <_dtoa_r+0x818>
    4dda:	e094      	b.n	4f06 <_dtoa_r+0x942>
    4ddc:	9b07      	ldr	r3, [sp, #28]
    4dde:	2b00      	cmp	r3, #0
    4de0:	dc00      	bgt.n	4de4 <_dtoa_r+0x820>
    4de2:	e175      	b.n	50d0 <_dtoa_r+0xb0c>
    4de4:	9b0b      	ldr	r3, [sp, #44]	; 0x2c
    4de6:	2b00      	cmp	r3, #0
    4de8:	d100      	bne.n	4dec <_dtoa_r+0x828>
    4dea:	e0a6      	b.n	4f3a <_dtoa_r+0x976>
    4dec:	9b08      	ldr	r3, [sp, #32]
    4dee:	2b00      	cmp	r3, #0
    4df0:	dd05      	ble.n	4dfe <_dtoa_r+0x83a>
    4df2:	4641      	mov	r1, r8
    4df4:	001a      	movs	r2, r3
    4df6:	4650      	mov	r0, sl
    4df8:	f001 f8ee 	bl	5fd8 <__lshift>
    4dfc:	4680      	mov	r8, r0
    4dfe:	4643      	mov	r3, r8
    4e00:	930c      	str	r3, [sp, #48]	; 0x30
    4e02:	2c00      	cmp	r4, #0
    4e04:	d000      	beq.n	4e08 <_dtoa_r+0x844>
    4e06:	e250      	b.n	52aa <_dtoa_r+0xce6>
    4e08:	9c07      	ldr	r4, [sp, #28]
    4e0a:	9a0a      	ldr	r2, [sp, #40]	; 0x28
    4e0c:	3c01      	subs	r4, #1
    4e0e:	0023      	movs	r3, r4
    4e10:	4694      	mov	ip, r2
    4e12:	4463      	add	r3, ip
    4e14:	9308      	str	r3, [sp, #32]
    4e16:	2301      	movs	r3, #1
    4e18:	4033      	ands	r3, r6
    4e1a:	9307      	str	r3, [sp, #28]
    4e1c:	464b      	mov	r3, r9
    4e1e:	9306      	str	r3, [sp, #24]
    4e20:	9b0c      	ldr	r3, [sp, #48]	; 0x30
    4e22:	4657      	mov	r7, sl
    4e24:	4645      	mov	r5, r8
    4e26:	465e      	mov	r6, fp
    4e28:	4692      	mov	sl, r2
    4e2a:	4698      	mov	r8, r3
    4e2c:	9b06      	ldr	r3, [sp, #24]
    4e2e:	0030      	movs	r0, r6
    4e30:	0019      	movs	r1, r3
    4e32:	4699      	mov	r9, r3
    4e34:	f7ff fb1c 	bl	4470 <quorem>
    4e38:	0003      	movs	r3, r0
    4e3a:	900b      	str	r0, [sp, #44]	; 0x2c
    4e3c:	3330      	adds	r3, #48	; 0x30
    4e3e:	0029      	movs	r1, r5
    4e40:	0030      	movs	r0, r6
    4e42:	9304      	str	r3, [sp, #16]
    4e44:	f001 f928 	bl	6098 <__mcmp>
    4e48:	4649      	mov	r1, r9
    4e4a:	0004      	movs	r4, r0
    4e4c:	4642      	mov	r2, r8
    4e4e:	0038      	movs	r0, r7
    4e50:	f001 f93c 	bl	60cc <__mdiff>
    4e54:	68c3      	ldr	r3, [r0, #12]
    4e56:	4681      	mov	r9, r0
    4e58:	2b00      	cmp	r3, #0
    4e5a:	d000      	beq.n	4e5e <_dtoa_r+0x89a>
    4e5c:	e11e      	b.n	509c <_dtoa_r+0xad8>
    4e5e:	0001      	movs	r1, r0
    4e60:	0030      	movs	r0, r6
    4e62:	f001 f919 	bl	6098 <__mcmp>
    4e66:	4683      	mov	fp, r0
    4e68:	4649      	mov	r1, r9
    4e6a:	0038      	movs	r0, r7
    4e6c:	f000 ff08 	bl	5c80 <_Bfree>
    4e70:	465b      	mov	r3, fp
    4e72:	9a22      	ldr	r2, [sp, #136]	; 0x88
    4e74:	4313      	orrs	r3, r2
    4e76:	d103      	bne.n	4e80 <_dtoa_r+0x8bc>
    4e78:	9b07      	ldr	r3, [sp, #28]
    4e7a:	2b00      	cmp	r3, #0
    4e7c:	d100      	bne.n	4e80 <_dtoa_r+0x8bc>
    4e7e:	e306      	b.n	548e <_dtoa_r+0xeca>
    4e80:	2c00      	cmp	r4, #0
    4e82:	da00      	bge.n	4e86 <_dtoa_r+0x8c2>
    4e84:	e1a8      	b.n	51d8 <_dtoa_r+0xc14>
    4e86:	9b22      	ldr	r3, [sp, #136]	; 0x88
    4e88:	431c      	orrs	r4, r3
    4e8a:	d103      	bne.n	4e94 <_dtoa_r+0x8d0>
    4e8c:	9b07      	ldr	r3, [sp, #28]
    4e8e:	2b00      	cmp	r3, #0
    4e90:	d100      	bne.n	4e94 <_dtoa_r+0x8d0>
    4e92:	e1a1      	b.n	51d8 <_dtoa_r+0xc14>
    4e94:	465b      	mov	r3, fp
    4e96:	2b00      	cmp	r3, #0
    4e98:	dd00      	ble.n	4e9c <_dtoa_r+0x8d8>
    4e9a:	e282      	b.n	53a2 <_dtoa_r+0xdde>
    4e9c:	4669      	mov	r1, sp
    4e9e:	4652      	mov	r2, sl
    4ea0:	4653      	mov	r3, sl
    4ea2:	7c09      	ldrb	r1, [r1, #16]
    4ea4:	1c5c      	adds	r4, r3, #1
    4ea6:	7011      	strb	r1, [r2, #0]
    4ea8:	9a08      	ldr	r2, [sp, #32]
    4eaa:	4552      	cmp	r2, sl
    4eac:	d100      	bne.n	4eb0 <_dtoa_r+0x8ec>
    4eae:	e28a      	b.n	53c6 <_dtoa_r+0xe02>
    4eb0:	0031      	movs	r1, r6
    4eb2:	2300      	movs	r3, #0
    4eb4:	220a      	movs	r2, #10
    4eb6:	0038      	movs	r0, r7
    4eb8:	f000 feec 	bl	5c94 <__multadd>
    4ebc:	2300      	movs	r3, #0
    4ebe:	0006      	movs	r6, r0
    4ec0:	220a      	movs	r2, #10
    4ec2:	0029      	movs	r1, r5
    4ec4:	0038      	movs	r0, r7
    4ec6:	4545      	cmp	r5, r8
    4ec8:	d100      	bne.n	4ecc <_dtoa_r+0x908>
    4eca:	e0e1      	b.n	5090 <_dtoa_r+0xacc>
    4ecc:	f000 fee2 	bl	5c94 <__multadd>
    4ed0:	4641      	mov	r1, r8
    4ed2:	0005      	movs	r5, r0
    4ed4:	2300      	movs	r3, #0
    4ed6:	220a      	movs	r2, #10
    4ed8:	0038      	movs	r0, r7
    4eda:	f000 fedb 	bl	5c94 <__multadd>
    4ede:	46a2      	mov	sl, r4
    4ee0:	4680      	mov	r8, r0
    4ee2:	e7a3      	b.n	4e2c <_dtoa_r+0x868>
    4ee4:	201c      	movs	r0, #28
    4ee6:	9b06      	ldr	r3, [sp, #24]
    4ee8:	469c      	mov	ip, r3
    4eea:	4484      	add	ip, r0
    4eec:	4663      	mov	r3, ip
    4eee:	9306      	str	r3, [sp, #24]
    4ef0:	9b08      	ldr	r3, [sp, #32]
    4ef2:	469c      	mov	ip, r3
    4ef4:	4484      	add	ip, r0
    4ef6:	4663      	mov	r3, ip
    4ef8:	9308      	str	r3, [sp, #32]
    4efa:	9b04      	ldr	r3, [sp, #16]
    4efc:	469c      	mov	ip, r3
    4efe:	4484      	add	ip, r0
    4f00:	4663      	mov	r3, ip
    4f02:	9304      	str	r3, [sp, #16]
    4f04:	e754      	b.n	4db0 <_dtoa_r+0x7ec>
    4f06:	4649      	mov	r1, r9
    4f08:	4658      	mov	r0, fp
    4f0a:	f001 f8c5 	bl	6098 <__mcmp>
    4f0e:	2800      	cmp	r0, #0
    4f10:	db00      	blt.n	4f14 <_dtoa_r+0x950>
    4f12:	e763      	b.n	4ddc <_dtoa_r+0x818>
    4f14:	9b03      	ldr	r3, [sp, #12]
    4f16:	4659      	mov	r1, fp
    4f18:	3b01      	subs	r3, #1
    4f1a:	9303      	str	r3, [sp, #12]
    4f1c:	220a      	movs	r2, #10
    4f1e:	2300      	movs	r3, #0
    4f20:	4650      	mov	r0, sl
    4f22:	f000 feb7 	bl	5c94 <__multadd>
    4f26:	9b0b      	ldr	r3, [sp, #44]	; 0x2c
    4f28:	4683      	mov	fp, r0
    4f2a:	2b00      	cmp	r3, #0
    4f2c:	d000      	beq.n	4f30 <_dtoa_r+0x96c>
    4f2e:	e2ca      	b.n	54c6 <_dtoa_r+0xf02>
    4f30:	9b0e      	ldr	r3, [sp, #56]	; 0x38
    4f32:	2b00      	cmp	r3, #0
    4f34:	dc00      	bgt.n	4f38 <_dtoa_r+0x974>
    4f36:	e2d8      	b.n	54ea <_dtoa_r+0xf26>
    4f38:	9307      	str	r3, [sp, #28]
    4f3a:	9b0a      	ldr	r3, [sp, #40]	; 0x28
    4f3c:	465d      	mov	r5, fp
    4f3e:	2400      	movs	r4, #0
    4f40:	9f07      	ldr	r7, [sp, #28]
    4f42:	469b      	mov	fp, r3
    4f44:	e006      	b.n	4f54 <_dtoa_r+0x990>
    4f46:	0029      	movs	r1, r5
    4f48:	2300      	movs	r3, #0
    4f4a:	220a      	movs	r2, #10
    4f4c:	4650      	mov	r0, sl
    4f4e:	f000 fea1 	bl	5c94 <__multadd>
    4f52:	0005      	movs	r5, r0
    4f54:	4649      	mov	r1, r9
    4f56:	0028      	movs	r0, r5
    4f58:	f7ff fa8a 	bl	4470 <quorem>
    4f5c:	465b      	mov	r3, fp
    4f5e:	3030      	adds	r0, #48	; 0x30
    4f60:	5518      	strb	r0, [r3, r4]
    4f62:	3401      	adds	r4, #1
    4f64:	42bc      	cmp	r4, r7
    4f66:	dbee      	blt.n	4f46 <_dtoa_r+0x982>
    4f68:	46ab      	mov	fp, r5
    4f6a:	0006      	movs	r6, r0
    4f6c:	9c07      	ldr	r4, [sp, #28]
    4f6e:	2c00      	cmp	r4, #0
    4f70:	dc00      	bgt.n	4f74 <_dtoa_r+0x9b0>
    4f72:	e237      	b.n	53e4 <_dtoa_r+0xe20>
    4f74:	9b0a      	ldr	r3, [sp, #40]	; 0x28
    4f76:	2700      	movs	r7, #0
    4f78:	469c      	mov	ip, r3
    4f7a:	4464      	add	r4, ip
    4f7c:	4659      	mov	r1, fp
    4f7e:	2201      	movs	r2, #1
    4f80:	4650      	mov	r0, sl
    4f82:	f001 f829 	bl	5fd8 <__lshift>
    4f86:	4649      	mov	r1, r9
    4f88:	4683      	mov	fp, r0
    4f8a:	f001 f885 	bl	6098 <__mcmp>
    4f8e:	2800      	cmp	r0, #0
    4f90:	dc00      	bgt.n	4f94 <_dtoa_r+0x9d0>
    4f92:	e144      	b.n	521e <_dtoa_r+0xc5a>
    4f94:	1e65      	subs	r5, r4, #1
    4f96:	782b      	ldrb	r3, [r5, #0]
    4f98:	9a0a      	ldr	r2, [sp, #40]	; 0x28
    4f9a:	e006      	b.n	4faa <_dtoa_r+0x9e6>
    4f9c:	4295      	cmp	r5, r2
    4f9e:	d100      	bne.n	4fa2 <_dtoa_r+0x9de>
    4fa0:	e0b1      	b.n	5106 <_dtoa_r+0xb42>
    4fa2:	3c02      	subs	r4, #2
    4fa4:	7823      	ldrb	r3, [r4, #0]
    4fa6:	002c      	movs	r4, r5
    4fa8:	3d01      	subs	r5, #1
    4faa:	2b39      	cmp	r3, #57	; 0x39
    4fac:	d0f6      	beq.n	4f9c <_dtoa_r+0x9d8>
    4fae:	3301      	adds	r3, #1
    4fb0:	702b      	strb	r3, [r5, #0]
    4fb2:	4649      	mov	r1, r9
    4fb4:	4650      	mov	r0, sl
    4fb6:	f000 fe63 	bl	5c80 <_Bfree>
    4fba:	4643      	mov	r3, r8
    4fbc:	2b00      	cmp	r3, #0
    4fbe:	d100      	bne.n	4fc2 <_dtoa_r+0x9fe>
    4fc0:	e52f      	b.n	4a22 <_dtoa_r+0x45e>
    4fc2:	2f00      	cmp	r7, #0
    4fc4:	d005      	beq.n	4fd2 <_dtoa_r+0xa0e>
    4fc6:	4547      	cmp	r7, r8
    4fc8:	d003      	beq.n	4fd2 <_dtoa_r+0xa0e>
    4fca:	0039      	movs	r1, r7
    4fcc:	4650      	mov	r0, sl
    4fce:	f000 fe57 	bl	5c80 <_Bfree>
    4fd2:	4641      	mov	r1, r8
    4fd4:	4650      	mov	r0, sl
    4fd6:	f000 fe53 	bl	5c80 <_Bfree>
    4fda:	e522      	b.n	4a22 <_dtoa_r+0x45e>
    4fdc:	0013      	movs	r3, r2
    4fde:	e675      	b.n	4ccc <_dtoa_r+0x708>
    4fe0:	2e00      	cmp	r6, #0
    4fe2:	d000      	beq.n	4fe6 <_dtoa_r+0xa22>
    4fe4:	e6ab      	b.n	4d3e <_dtoa_r+0x77a>
    4fe6:	033b      	lsls	r3, r7, #12
    4fe8:	2400      	movs	r4, #0
    4fea:	2b00      	cmp	r3, #0
    4fec:	d000      	beq.n	4ff0 <_dtoa_r+0xa2c>
    4fee:	e6bf      	b.n	4d70 <_dtoa_r+0x7ac>
    4ff0:	4bba      	ldr	r3, [pc, #744]	; (52dc <_dtoa_r+0xd18>)
    4ff2:	423b      	tst	r3, r7
    4ff4:	d100      	bne.n	4ff8 <_dtoa_r+0xa34>
    4ff6:	e6bb      	b.n	4d70 <_dtoa_r+0x7ac>
    4ff8:	9b06      	ldr	r3, [sp, #24]
    4ffa:	3401      	adds	r4, #1
    4ffc:	3301      	adds	r3, #1
    4ffe:	9306      	str	r3, [sp, #24]
    5000:	9b04      	ldr	r3, [sp, #16]
    5002:	3301      	adds	r3, #1
    5004:	9304      	str	r3, [sp, #16]
    5006:	e6b3      	b.n	4d70 <_dtoa_r+0x7ac>
    5008:	2301      	movs	r3, #1
    500a:	930b      	str	r3, [sp, #44]	; 0x2c
    500c:	9b23      	ldr	r3, [sp, #140]	; 0x8c
    500e:	2b00      	cmp	r3, #0
    5010:	dc00      	bgt.n	5014 <_dtoa_r+0xa50>
    5012:	e0d1      	b.n	51b8 <_dtoa_r+0xbf4>
    5014:	001d      	movs	r5, r3
    5016:	4698      	mov	r8, r3
    5018:	930e      	str	r3, [sp, #56]	; 0x38
    501a:	9307      	str	r3, [sp, #28]
    501c:	f7ff fbc8 	bl	47b0 <_dtoa_r+0x1ec>
    5020:	9b07      	ldr	r3, [sp, #28]
    5022:	2b00      	cmp	r3, #0
    5024:	dd00      	ble.n	5028 <_dtoa_r+0xa64>
    5026:	e553      	b.n	4ad0 <_dtoa_r+0x50c>
    5028:	d000      	beq.n	502c <_dtoa_r+0xa68>
    502a:	e0ad      	b.n	5188 <_dtoa_r+0xbc4>
    502c:	9804      	ldr	r0, [sp, #16]
    502e:	9905      	ldr	r1, [sp, #20]
    5030:	2200      	movs	r2, #0
    5032:	4bab      	ldr	r3, [pc, #684]	; (52e0 <_dtoa_r+0xd1c>)
    5034:	f002 fda0 	bl	7b78 <__aeabi_dmul>
    5038:	003b      	movs	r3, r7
    503a:	0032      	movs	r2, r6
    503c:	f001 fe4e 	bl	6cdc <__aeabi_dcmpge>
    5040:	2300      	movs	r3, #0
    5042:	4699      	mov	r9, r3
    5044:	4698      	mov	r8, r3
    5046:	2800      	cmp	r0, #0
    5048:	d055      	beq.n	50f6 <_dtoa_r+0xb32>
    504a:	9b23      	ldr	r3, [sp, #140]	; 0x8c
    504c:	9c0a      	ldr	r4, [sp, #40]	; 0x28
    504e:	43db      	mvns	r3, r3
    5050:	9303      	str	r3, [sp, #12]
    5052:	4649      	mov	r1, r9
    5054:	4650      	mov	r0, sl
    5056:	f000 fe13 	bl	5c80 <_Bfree>
    505a:	4643      	mov	r3, r8
    505c:	2b00      	cmp	r3, #0
    505e:	d100      	bne.n	5062 <_dtoa_r+0xa9e>
    5060:	e4df      	b.n	4a22 <_dtoa_r+0x45e>
    5062:	e7b6      	b.n	4fd2 <_dtoa_r+0xa0e>
    5064:	464a      	mov	r2, r9
    5066:	4659      	mov	r1, fp
    5068:	4650      	mov	r0, sl
    506a:	f000 ff55 	bl	5f18 <__pow5mult>
    506e:	4683      	mov	fp, r0
    5070:	e653      	b.n	4d1a <_dtoa_r+0x756>
    5072:	9a0f      	ldr	r2, [sp, #60]	; 0x3c
    5074:	2a00      	cmp	r2, #0
    5076:	d100      	bne.n	507a <_dtoa_r+0xab6>
    5078:	e1b6      	b.n	53e8 <_dtoa_r+0xe24>
    507a:	4a9a      	ldr	r2, [pc, #616]	; (52e4 <_dtoa_r+0xd20>)
    507c:	464c      	mov	r4, r9
    507e:	4694      	mov	ip, r2
    5080:	9a06      	ldr	r2, [sp, #24]
    5082:	4463      	add	r3, ip
    5084:	9208      	str	r2, [sp, #32]
    5086:	e5d5      	b.n	4c34 <_dtoa_r+0x670>
    5088:	2e00      	cmp	r6, #0
    508a:	d000      	beq.n	508e <_dtoa_r+0xaca>
    508c:	e670      	b.n	4d70 <_dtoa_r+0x7ac>
    508e:	e7aa      	b.n	4fe6 <_dtoa_r+0xa22>
    5090:	f000 fe00 	bl	5c94 <__multadd>
    5094:	46a2      	mov	sl, r4
    5096:	0005      	movs	r5, r0
    5098:	4680      	mov	r8, r0
    509a:	e6c7      	b.n	4e2c <_dtoa_r+0x868>
    509c:	2301      	movs	r3, #1
    509e:	469b      	mov	fp, r3
    50a0:	e6e2      	b.n	4e68 <_dtoa_r+0x8a4>
    50a2:	2300      	movs	r3, #0
    50a4:	930b      	str	r3, [sp, #44]	; 0x2c
    50a6:	9b22      	ldr	r3, [sp, #136]	; 0x88
    50a8:	2b02      	cmp	r3, #2
    50aa:	d0af      	beq.n	500c <_dtoa_r+0xa48>
    50ac:	2400      	movs	r4, #0
    50ae:	4653      	mov	r3, sl
    50b0:	0021      	movs	r1, r4
    50b2:	645c      	str	r4, [r3, #68]	; 0x44
    50b4:	4650      	mov	r0, sl
    50b6:	f000 fdbb 	bl	5c30 <_Balloc>
    50ba:	4653      	mov	r3, sl
    50bc:	6418      	str	r0, [r3, #64]	; 0x40
    50be:	2301      	movs	r3, #1
    50c0:	425b      	negs	r3, r3
    50c2:	9307      	str	r3, [sp, #28]
    50c4:	930e      	str	r3, [sp, #56]	; 0x38
    50c6:	3302      	adds	r3, #2
    50c8:	900a      	str	r0, [sp, #40]	; 0x28
    50ca:	9423      	str	r4, [sp, #140]	; 0x8c
    50cc:	930b      	str	r3, [sp, #44]	; 0x2c
    50ce:	e4ec      	b.n	4aaa <_dtoa_r+0x4e6>
    50d0:	9b22      	ldr	r3, [sp, #136]	; 0x88
    50d2:	2b02      	cmp	r3, #2
    50d4:	dc00      	bgt.n	50d8 <_dtoa_r+0xb14>
    50d6:	e685      	b.n	4de4 <_dtoa_r+0x820>
    50d8:	9b07      	ldr	r3, [sp, #28]
    50da:	2b00      	cmp	r3, #0
    50dc:	d1b5      	bne.n	504a <_dtoa_r+0xa86>
    50de:	4649      	mov	r1, r9
    50e0:	2205      	movs	r2, #5
    50e2:	4650      	mov	r0, sl
    50e4:	f000 fdd6 	bl	5c94 <__multadd>
    50e8:	4681      	mov	r9, r0
    50ea:	0001      	movs	r1, r0
    50ec:	4658      	mov	r0, fp
    50ee:	f000 ffd3 	bl	6098 <__mcmp>
    50f2:	2800      	cmp	r0, #0
    50f4:	dda9      	ble.n	504a <_dtoa_r+0xa86>
    50f6:	2331      	movs	r3, #49	; 0x31
    50f8:	9a0a      	ldr	r2, [sp, #40]	; 0x28
    50fa:	7013      	strb	r3, [r2, #0]
    50fc:	9b03      	ldr	r3, [sp, #12]
    50fe:	1c54      	adds	r4, r2, #1
    5100:	3301      	adds	r3, #1
    5102:	9303      	str	r3, [sp, #12]
    5104:	e7a5      	b.n	5052 <_dtoa_r+0xa8e>
    5106:	9b03      	ldr	r3, [sp, #12]
    5108:	9a0a      	ldr	r2, [sp, #40]	; 0x28
    510a:	3301      	adds	r3, #1
    510c:	9303      	str	r3, [sp, #12]
    510e:	2331      	movs	r3, #49	; 0x31
    5110:	7013      	strb	r3, [r2, #0]
    5112:	e74e      	b.n	4fb2 <_dtoa_r+0x9ee>
    5114:	2300      	movs	r3, #0
    5116:	930b      	str	r3, [sp, #44]	; 0x2c
    5118:	f7ff fb3d 	bl	4796 <_dtoa_r+0x1d2>
    511c:	9b06      	ldr	r3, [sp, #24]
    511e:	465c      	mov	r4, fp
    5120:	469b      	mov	fp, r3
    5122:	9b07      	ldr	r3, [sp, #28]
    5124:	469a      	mov	sl, r3
    5126:	e47c      	b.n	4a22 <_dtoa_r+0x45e>
    5128:	4640      	mov	r0, r8
    512a:	f003 fb0f 	bl	874c <__aeabi_i2d>
    512e:	0032      	movs	r2, r6
    5130:	003b      	movs	r3, r7
    5132:	f002 fd21 	bl	7b78 <__aeabi_dmul>
    5136:	2200      	movs	r2, #0
    5138:	4b6b      	ldr	r3, [pc, #428]	; (52e8 <_dtoa_r+0xd24>)
    513a:	f001 fdd9 	bl	6cf0 <__aeabi_dadd>
    513e:	4a6b      	ldr	r2, [pc, #428]	; (52ec <_dtoa_r+0xd28>)
    5140:	000b      	movs	r3, r1
    5142:	4694      	mov	ip, r2
    5144:	4463      	add	r3, ip
    5146:	9008      	str	r0, [sp, #32]
    5148:	9109      	str	r1, [sp, #36]	; 0x24
    514a:	9309      	str	r3, [sp, #36]	; 0x24
    514c:	2200      	movs	r2, #0
    514e:	4b64      	ldr	r3, [pc, #400]	; (52e0 <_dtoa_r+0xd1c>)
    5150:	0030      	movs	r0, r6
    5152:	0039      	movs	r1, r7
    5154:	f002 ff90 	bl	8078 <__aeabi_dsub>
    5158:	9e08      	ldr	r6, [sp, #32]
    515a:	9f09      	ldr	r7, [sp, #36]	; 0x24
    515c:	0032      	movs	r2, r6
    515e:	003b      	movs	r3, r7
    5160:	0004      	movs	r4, r0
    5162:	000d      	movs	r5, r1
    5164:	f001 fdb0 	bl	6cc8 <__aeabi_dcmpgt>
    5168:	2800      	cmp	r0, #0
    516a:	d000      	beq.n	516e <_dtoa_r+0xbaa>
    516c:	e0b2      	b.n	52d4 <_dtoa_r+0xd10>
    516e:	2080      	movs	r0, #128	; 0x80
    5170:	0600      	lsls	r0, r0, #24
    5172:	4684      	mov	ip, r0
    5174:	0039      	movs	r1, r7
    5176:	4461      	add	r1, ip
    5178:	000b      	movs	r3, r1
    517a:	0032      	movs	r2, r6
    517c:	0020      	movs	r0, r4
    517e:	0029      	movs	r1, r5
    5180:	f001 fd8e 	bl	6ca0 <__aeabi_dcmplt>
    5184:	2800      	cmp	r0, #0
    5186:	d057      	beq.n	5238 <_dtoa_r+0xc74>
    5188:	2300      	movs	r3, #0
    518a:	4699      	mov	r9, r3
    518c:	4698      	mov	r8, r3
    518e:	e75c      	b.n	504a <_dtoa_r+0xa86>
    5190:	980a      	ldr	r0, [sp, #40]	; 0x28
    5192:	f7ff fa4c 	bl	462e <_dtoa_r+0x6a>
    5196:	1ae2      	subs	r2, r4, r3
    5198:	9b0d      	ldr	r3, [sp, #52]	; 0x34
    519a:	46a1      	mov	r9, r4
    519c:	469c      	mov	ip, r3
    519e:	4494      	add	ip, r2
    51a0:	4663      	mov	r3, ip
    51a2:	2400      	movs	r4, #0
    51a4:	930d      	str	r3, [sp, #52]	; 0x34
    51a6:	e53e      	b.n	4c26 <_dtoa_r+0x662>
    51a8:	9a10      	ldr	r2, [sp, #64]	; 0x40
    51aa:	9b11      	ldr	r3, [sp, #68]	; 0x44
    51ac:	9208      	str	r2, [sp, #32]
    51ae:	9309      	str	r3, [sp, #36]	; 0x24
    51b0:	2302      	movs	r3, #2
    51b2:	4698      	mov	r8, r3
    51b4:	f7ff fb3a 	bl	482c <_dtoa_r+0x268>
    51b8:	2300      	movs	r3, #0
    51ba:	4652      	mov	r2, sl
    51bc:	2100      	movs	r1, #0
    51be:	6453      	str	r3, [r2, #68]	; 0x44
    51c0:	4650      	mov	r0, sl
    51c2:	f000 fd35 	bl	5c30 <_Balloc>
    51c6:	4653      	mov	r3, sl
    51c8:	6418      	str	r0, [r3, #64]	; 0x40
    51ca:	2301      	movs	r3, #1
    51cc:	900a      	str	r0, [sp, #40]	; 0x28
    51ce:	9307      	str	r3, [sp, #28]
    51d0:	9323      	str	r3, [sp, #140]	; 0x8c
    51d2:	930e      	str	r3, [sp, #56]	; 0x38
    51d4:	f7ff fb07 	bl	47e6 <_dtoa_r+0x222>
    51d8:	4643      	mov	r3, r8
    51da:	930c      	str	r3, [sp, #48]	; 0x30
    51dc:	465b      	mov	r3, fp
    51de:	9a06      	ldr	r2, [sp, #24]
    51e0:	46a8      	mov	r8, r5
    51e2:	46b3      	mov	fp, r6
    51e4:	4655      	mov	r5, sl
    51e6:	9e04      	ldr	r6, [sp, #16]
    51e8:	4691      	mov	r9, r2
    51ea:	46ba      	mov	sl, r7
    51ec:	2b00      	cmp	r3, #0
    51ee:	dd10      	ble.n	5212 <_dtoa_r+0xc4e>
    51f0:	4659      	mov	r1, fp
    51f2:	2201      	movs	r2, #1
    51f4:	0038      	movs	r0, r7
    51f6:	f000 feef 	bl	5fd8 <__lshift>
    51fa:	4649      	mov	r1, r9
    51fc:	4683      	mov	fp, r0
    51fe:	f000 ff4b 	bl	6098 <__mcmp>
    5202:	2800      	cmp	r0, #0
    5204:	dc00      	bgt.n	5208 <_dtoa_r+0xc44>
    5206:	e157      	b.n	54b8 <_dtoa_r+0xef4>
    5208:	2e39      	cmp	r6, #57	; 0x39
    520a:	d100      	bne.n	520e <_dtoa_r+0xc4a>
    520c:	e122      	b.n	5454 <_dtoa_r+0xe90>
    520e:	9e0b      	ldr	r6, [sp, #44]	; 0x2c
    5210:	3631      	adds	r6, #49	; 0x31
    5212:	9b0c      	ldr	r3, [sp, #48]	; 0x30
    5214:	4647      	mov	r7, r8
    5216:	1c6c      	adds	r4, r5, #1
    5218:	702e      	strb	r6, [r5, #0]
    521a:	4698      	mov	r8, r3
    521c:	e6c9      	b.n	4fb2 <_dtoa_r+0x9ee>
    521e:	2800      	cmp	r0, #0
    5220:	d103      	bne.n	522a <_dtoa_r+0xc66>
    5222:	07f3      	lsls	r3, r6, #31
    5224:	d501      	bpl.n	522a <_dtoa_r+0xc66>
    5226:	e6b5      	b.n	4f94 <_dtoa_r+0x9d0>
    5228:	001c      	movs	r4, r3
    522a:	1e63      	subs	r3, r4, #1
    522c:	781a      	ldrb	r2, [r3, #0]
    522e:	2a30      	cmp	r2, #48	; 0x30
    5230:	d0fa      	beq.n	5228 <_dtoa_r+0xc64>
    5232:	e6be      	b.n	4fb2 <_dtoa_r+0x9ee>
    5234:	9b12      	ldr	r3, [sp, #72]	; 0x48
    5236:	4699      	mov	r9, r3
    5238:	9e10      	ldr	r6, [sp, #64]	; 0x40
    523a:	9f11      	ldr	r7, [sp, #68]	; 0x44
    523c:	e435      	b.n	4aaa <_dtoa_r+0x4e6>
    523e:	2501      	movs	r5, #1
    5240:	f7ff fab4 	bl	47ac <_dtoa_r+0x1e8>
    5244:	9b03      	ldr	r3, [sp, #12]
    5246:	2b00      	cmp	r3, #0
    5248:	d100      	bne.n	524c <_dtoa_r+0xc88>
    524a:	e0d4      	b.n	53f6 <_dtoa_r+0xe32>
    524c:	9810      	ldr	r0, [sp, #64]	; 0x40
    524e:	9911      	ldr	r1, [sp, #68]	; 0x44
    5250:	425c      	negs	r4, r3
    5252:	230f      	movs	r3, #15
    5254:	4a26      	ldr	r2, [pc, #152]	; (52f0 <_dtoa_r+0xd2c>)
    5256:	4023      	ands	r3, r4
    5258:	00db      	lsls	r3, r3, #3
    525a:	18d3      	adds	r3, r2, r3
    525c:	681a      	ldr	r2, [r3, #0]
    525e:	685b      	ldr	r3, [r3, #4]
    5260:	f002 fc8a 	bl	7b78 <__aeabi_dmul>
    5264:	1124      	asrs	r4, r4, #4
    5266:	0006      	movs	r6, r0
    5268:	000f      	movs	r7, r1
    526a:	2c00      	cmp	r4, #0
    526c:	d100      	bne.n	5270 <_dtoa_r+0xcac>
    526e:	e149      	b.n	5504 <_dtoa_r+0xf40>
    5270:	2302      	movs	r3, #2
    5272:	4698      	mov	r8, r3
    5274:	4d1f      	ldr	r5, [pc, #124]	; (52f4 <_dtoa_r+0xd30>)
    5276:	2301      	movs	r3, #1
    5278:	4223      	tst	r3, r4
    527a:	d009      	beq.n	5290 <_dtoa_r+0xccc>
    527c:	469c      	mov	ip, r3
    527e:	682a      	ldr	r2, [r5, #0]
    5280:	686b      	ldr	r3, [r5, #4]
    5282:	0030      	movs	r0, r6
    5284:	0039      	movs	r1, r7
    5286:	44e0      	add	r8, ip
    5288:	f002 fc76 	bl	7b78 <__aeabi_dmul>
    528c:	0006      	movs	r6, r0
    528e:	000f      	movs	r7, r1
    5290:	1064      	asrs	r4, r4, #1
    5292:	3508      	adds	r5, #8
    5294:	2c00      	cmp	r4, #0
    5296:	d1ee      	bne.n	5276 <_dtoa_r+0xcb2>
    5298:	f7ff fae4 	bl	4864 <_dtoa_r+0x2a0>
    529c:	9b03      	ldr	r3, [sp, #12]
    529e:	2730      	movs	r7, #48	; 0x30
    52a0:	3301      	adds	r3, #1
    52a2:	9303      	str	r3, [sp, #12]
    52a4:	2330      	movs	r3, #48	; 0x30
    52a6:	702b      	strb	r3, [r5, #0]
    52a8:	e4ac      	b.n	4c04 <_dtoa_r+0x640>
    52aa:	6859      	ldr	r1, [r3, #4]
    52ac:	4650      	mov	r0, sl
    52ae:	f000 fcbf 	bl	5c30 <_Balloc>
    52b2:	4643      	mov	r3, r8
    52b4:	4641      	mov	r1, r8
    52b6:	0004      	movs	r4, r0
    52b8:	691b      	ldr	r3, [r3, #16]
    52ba:	310c      	adds	r1, #12
    52bc:	1c9a      	adds	r2, r3, #2
    52be:	0092      	lsls	r2, r2, #2
    52c0:	300c      	adds	r0, #12
    52c2:	f000 fc63 	bl	5b8c <memcpy>
    52c6:	2201      	movs	r2, #1
    52c8:	0021      	movs	r1, r4
    52ca:	4650      	mov	r0, sl
    52cc:	f000 fe84 	bl	5fd8 <__lshift>
    52d0:	900c      	str	r0, [sp, #48]	; 0x30
    52d2:	e599      	b.n	4e08 <_dtoa_r+0x844>
    52d4:	2300      	movs	r3, #0
    52d6:	4699      	mov	r9, r3
    52d8:	4698      	mov	r8, r3
    52da:	e70c      	b.n	50f6 <_dtoa_r+0xb32>
    52dc:	7ff00000 	.word	0x7ff00000
    52e0:	40140000 	.word	0x40140000
    52e4:	00000433 	.word	0x00000433
    52e8:	401c0000 	.word	0x401c0000
    52ec:	fcc00000 	.word	0xfcc00000
    52f0:	00008d28 	.word	0x00008d28
    52f4:	00008d00 	.word	0x00008d00
    52f8:	9b12      	ldr	r3, [sp, #72]	; 0x48
    52fa:	498f      	ldr	r1, [pc, #572]	; (5538 <_dtoa_r+0xf74>)
    52fc:	3b01      	subs	r3, #1
    52fe:	00db      	lsls	r3, r3, #3
    5300:	18c9      	adds	r1, r1, r3
    5302:	6808      	ldr	r0, [r1, #0]
    5304:	6849      	ldr	r1, [r1, #4]
    5306:	9a08      	ldr	r2, [sp, #32]
    5308:	9b09      	ldr	r3, [sp, #36]	; 0x24
    530a:	f002 fc35 	bl	7b78 <__aeabi_dmul>
    530e:	9014      	str	r0, [sp, #80]	; 0x50
    5310:	9115      	str	r1, [sp, #84]	; 0x54
    5312:	0039      	movs	r1, r7
    5314:	0030      	movs	r0, r6
    5316:	f003 f9e5 	bl	86e4 <__aeabi_d2iz>
    531a:	0005      	movs	r5, r0
    531c:	f003 fa16 	bl	874c <__aeabi_i2d>
    5320:	0002      	movs	r2, r0
    5322:	000b      	movs	r3, r1
    5324:	0030      	movs	r0, r6
    5326:	0039      	movs	r1, r7
    5328:	f002 fea6 	bl	8078 <__aeabi_dsub>
    532c:	9b12      	ldr	r3, [sp, #72]	; 0x48
    532e:	9008      	str	r0, [sp, #32]
    5330:	9109      	str	r1, [sp, #36]	; 0x24
    5332:	990a      	ldr	r1, [sp, #40]	; 0x28
    5334:	001a      	movs	r2, r3
    5336:	468c      	mov	ip, r1
    5338:	3530      	adds	r5, #48	; 0x30
    533a:	4462      	add	r2, ip
    533c:	1c4c      	adds	r4, r1, #1
    533e:	700d      	strb	r5, [r1, #0]
    5340:	4690      	mov	r8, r2
    5342:	2b01      	cmp	r3, #1
    5344:	d01b      	beq.n	537e <_dtoa_r+0xdba>
    5346:	9808      	ldr	r0, [sp, #32]
    5348:	9909      	ldr	r1, [sp, #36]	; 0x24
    534a:	0025      	movs	r5, r4
    534c:	2200      	movs	r2, #0
    534e:	4b7b      	ldr	r3, [pc, #492]	; (553c <_dtoa_r+0xf78>)
    5350:	f002 fc12 	bl	7b78 <__aeabi_dmul>
    5354:	000f      	movs	r7, r1
    5356:	0006      	movs	r6, r0
    5358:	f003 f9c4 	bl	86e4 <__aeabi_d2iz>
    535c:	0004      	movs	r4, r0
    535e:	f003 f9f5 	bl	874c <__aeabi_i2d>
    5362:	3430      	adds	r4, #48	; 0x30
    5364:	0002      	movs	r2, r0
    5366:	000b      	movs	r3, r1
    5368:	0030      	movs	r0, r6
    536a:	0039      	movs	r1, r7
    536c:	f002 fe84 	bl	8078 <__aeabi_dsub>
    5370:	702c      	strb	r4, [r5, #0]
    5372:	3501      	adds	r5, #1
    5374:	45a8      	cmp	r8, r5
    5376:	d1e9      	bne.n	534c <_dtoa_r+0xd88>
    5378:	4644      	mov	r4, r8
    537a:	9008      	str	r0, [sp, #32]
    537c:	9109      	str	r1, [sp, #36]	; 0x24
    537e:	9814      	ldr	r0, [sp, #80]	; 0x50
    5380:	9915      	ldr	r1, [sp, #84]	; 0x54
    5382:	2200      	movs	r2, #0
    5384:	4b6e      	ldr	r3, [pc, #440]	; (5540 <_dtoa_r+0xf7c>)
    5386:	f001 fcb3 	bl	6cf0 <__aeabi_dadd>
    538a:	9a08      	ldr	r2, [sp, #32]
    538c:	9b09      	ldr	r3, [sp, #36]	; 0x24
    538e:	f001 fc87 	bl	6ca0 <__aeabi_dcmplt>
    5392:	2800      	cmp	r0, #0
    5394:	d067      	beq.n	5466 <_dtoa_r+0xea2>
    5396:	9b13      	ldr	r3, [sp, #76]	; 0x4c
    5398:	1e65      	subs	r5, r4, #1
    539a:	9303      	str	r3, [sp, #12]
    539c:	782f      	ldrb	r7, [r5, #0]
    539e:	9b0a      	ldr	r3, [sp, #40]	; 0x28
    53a0:	e42e      	b.n	4c00 <_dtoa_r+0x63c>
    53a2:	4643      	mov	r3, r8
    53a4:	46b3      	mov	fp, r6
    53a6:	930c      	str	r3, [sp, #48]	; 0x30
    53a8:	9e04      	ldr	r6, [sp, #16]
    53aa:	9b06      	ldr	r3, [sp, #24]
    53ac:	46a8      	mov	r8, r5
    53ae:	4699      	mov	r9, r3
    53b0:	4655      	mov	r5, sl
    53b2:	46ba      	mov	sl, r7
    53b4:	2e39      	cmp	r6, #57	; 0x39
    53b6:	d04d      	beq.n	5454 <_dtoa_r+0xe90>
    53b8:	9b0c      	ldr	r3, [sp, #48]	; 0x30
    53ba:	3601      	adds	r6, #1
    53bc:	4647      	mov	r7, r8
    53be:	1c6c      	adds	r4, r5, #1
    53c0:	702e      	strb	r6, [r5, #0]
    53c2:	4698      	mov	r8, r3
    53c4:	e5f5      	b.n	4fb2 <_dtoa_r+0x9ee>
    53c6:	4642      	mov	r2, r8
    53c8:	9b06      	ldr	r3, [sp, #24]
    53ca:	46b3      	mov	fp, r6
    53cc:	46ba      	mov	sl, r7
    53ce:	9e04      	ldr	r6, [sp, #16]
    53d0:	4699      	mov	r9, r3
    53d2:	002f      	movs	r7, r5
    53d4:	4690      	mov	r8, r2
    53d6:	e5d1      	b.n	4f7c <_dtoa_r+0x9b8>
    53d8:	9b06      	ldr	r3, [sp, #24]
    53da:	9a07      	ldr	r2, [sp, #28]
    53dc:	1a9b      	subs	r3, r3, r2
    53de:	9308      	str	r3, [sp, #32]
    53e0:	2300      	movs	r3, #0
    53e2:	e427      	b.n	4c34 <_dtoa_r+0x670>
    53e4:	2401      	movs	r4, #1
    53e6:	e5c5      	b.n	4f74 <_dtoa_r+0x9b0>
    53e8:	2336      	movs	r3, #54	; 0x36
    53ea:	9a16      	ldr	r2, [sp, #88]	; 0x58
    53ec:	464c      	mov	r4, r9
    53ee:	1a9b      	subs	r3, r3, r2
    53f0:	9a06      	ldr	r2, [sp, #24]
    53f2:	9208      	str	r2, [sp, #32]
    53f4:	e41e      	b.n	4c34 <_dtoa_r+0x670>
    53f6:	2302      	movs	r3, #2
    53f8:	9e10      	ldr	r6, [sp, #64]	; 0x40
    53fa:	9f11      	ldr	r7, [sp, #68]	; 0x44
    53fc:	4698      	mov	r8, r3
    53fe:	f7ff fa31 	bl	4864 <_dtoa_r+0x2a0>
    5402:	9b07      	ldr	r3, [sp, #28]
    5404:	2b00      	cmp	r3, #0
    5406:	d100      	bne.n	540a <_dtoa_r+0xe46>
    5408:	e68e      	b.n	5128 <_dtoa_r+0xb64>
    540a:	9c0e      	ldr	r4, [sp, #56]	; 0x38
    540c:	2c00      	cmp	r4, #0
    540e:	dc00      	bgt.n	5412 <_dtoa_r+0xe4e>
    5410:	e712      	b.n	5238 <_dtoa_r+0xc74>
    5412:	9b03      	ldr	r3, [sp, #12]
    5414:	2200      	movs	r2, #0
    5416:	3b01      	subs	r3, #1
    5418:	9313      	str	r3, [sp, #76]	; 0x4c
    541a:	0030      	movs	r0, r6
    541c:	4b47      	ldr	r3, [pc, #284]	; (553c <_dtoa_r+0xf78>)
    541e:	0039      	movs	r1, r7
    5420:	f002 fbaa 	bl	7b78 <__aeabi_dmul>
    5424:	0006      	movs	r6, r0
    5426:	4640      	mov	r0, r8
    5428:	000f      	movs	r7, r1
    542a:	3001      	adds	r0, #1
    542c:	f003 f98e 	bl	874c <__aeabi_i2d>
    5430:	0032      	movs	r2, r6
    5432:	003b      	movs	r3, r7
    5434:	f002 fba0 	bl	7b78 <__aeabi_dmul>
    5438:	2200      	movs	r2, #0
    543a:	4b42      	ldr	r3, [pc, #264]	; (5544 <_dtoa_r+0xf80>)
    543c:	f001 fc58 	bl	6cf0 <__aeabi_dadd>
    5440:	4a41      	ldr	r2, [pc, #260]	; (5548 <_dtoa_r+0xf84>)
    5442:	000b      	movs	r3, r1
    5444:	4694      	mov	ip, r2
    5446:	4463      	add	r3, ip
    5448:	9008      	str	r0, [sp, #32]
    544a:	9109      	str	r1, [sp, #36]	; 0x24
    544c:	9412      	str	r4, [sp, #72]	; 0x48
    544e:	9309      	str	r3, [sp, #36]	; 0x24
    5450:	f7ff fa30 	bl	48b4 <_dtoa_r+0x2f0>
    5454:	2339      	movs	r3, #57	; 0x39
    5456:	702b      	strb	r3, [r5, #0]
    5458:	9b0c      	ldr	r3, [sp, #48]	; 0x30
    545a:	4647      	mov	r7, r8
    545c:	1c6c      	adds	r4, r5, #1
    545e:	4698      	mov	r8, r3
    5460:	9a0a      	ldr	r2, [sp, #40]	; 0x28
    5462:	2339      	movs	r3, #57	; 0x39
    5464:	e5a1      	b.n	4faa <_dtoa_r+0x9e6>
    5466:	9a14      	ldr	r2, [sp, #80]	; 0x50
    5468:	9b15      	ldr	r3, [sp, #84]	; 0x54
    546a:	2000      	movs	r0, #0
    546c:	4934      	ldr	r1, [pc, #208]	; (5540 <_dtoa_r+0xf7c>)
    546e:	f002 fe03 	bl	8078 <__aeabi_dsub>
    5472:	9a08      	ldr	r2, [sp, #32]
    5474:	9b09      	ldr	r3, [sp, #36]	; 0x24
    5476:	f001 fc27 	bl	6cc8 <__aeabi_dcmpgt>
    547a:	2800      	cmp	r0, #0
    547c:	d101      	bne.n	5482 <_dtoa_r+0xebe>
    547e:	e6db      	b.n	5238 <_dtoa_r+0xc74>
    5480:	001c      	movs	r4, r3
    5482:	1e63      	subs	r3, r4, #1
    5484:	781a      	ldrb	r2, [r3, #0]
    5486:	2a30      	cmp	r2, #48	; 0x30
    5488:	d0fa      	beq.n	5480 <_dtoa_r+0xebc>
    548a:	f7ff fac8 	bl	4a1e <_dtoa_r+0x45a>
    548e:	4643      	mov	r3, r8
    5490:	46b3      	mov	fp, r6
    5492:	930c      	str	r3, [sp, #48]	; 0x30
    5494:	9e04      	ldr	r6, [sp, #16]
    5496:	9b06      	ldr	r3, [sp, #24]
    5498:	46a8      	mov	r8, r5
    549a:	4699      	mov	r9, r3
    549c:	4655      	mov	r5, sl
    549e:	46ba      	mov	sl, r7
    54a0:	2e39      	cmp	r6, #57	; 0x39
    54a2:	d0d7      	beq.n	5454 <_dtoa_r+0xe90>
    54a4:	2c00      	cmp	r4, #0
    54a6:	dd00      	ble.n	54aa <_dtoa_r+0xee6>
    54a8:	e6b1      	b.n	520e <_dtoa_r+0xc4a>
    54aa:	e6b2      	b.n	5212 <_dtoa_r+0xc4e>
    54ac:	9a13      	ldr	r2, [sp, #76]	; 0x4c
    54ae:	464d      	mov	r5, r9
    54b0:	9203      	str	r2, [sp, #12]
    54b2:	9b0a      	ldr	r3, [sp, #40]	; 0x28
    54b4:	f7ff fba4 	bl	4c00 <_dtoa_r+0x63c>
    54b8:	2800      	cmp	r0, #0
    54ba:	d000      	beq.n	54be <_dtoa_r+0xefa>
    54bc:	e6a9      	b.n	5212 <_dtoa_r+0xc4e>
    54be:	07f3      	lsls	r3, r6, #31
    54c0:	d400      	bmi.n	54c4 <_dtoa_r+0xf00>
    54c2:	e6a6      	b.n	5212 <_dtoa_r+0xc4e>
    54c4:	e6a0      	b.n	5208 <_dtoa_r+0xc44>
    54c6:	2300      	movs	r3, #0
    54c8:	4641      	mov	r1, r8
    54ca:	220a      	movs	r2, #10
    54cc:	4650      	mov	r0, sl
    54ce:	f000 fbe1 	bl	5c94 <__multadd>
    54d2:	9b0e      	ldr	r3, [sp, #56]	; 0x38
    54d4:	4680      	mov	r8, r0
    54d6:	2b00      	cmp	r3, #0
    54d8:	dd01      	ble.n	54de <_dtoa_r+0xf1a>
    54da:	9307      	str	r3, [sp, #28]
    54dc:	e486      	b.n	4dec <_dtoa_r+0x828>
    54de:	9b22      	ldr	r3, [sp, #136]	; 0x88
    54e0:	2b02      	cmp	r3, #2
    54e2:	dc1f      	bgt.n	5524 <_dtoa_r+0xf60>
    54e4:	9b0e      	ldr	r3, [sp, #56]	; 0x38
    54e6:	9307      	str	r3, [sp, #28]
    54e8:	e480      	b.n	4dec <_dtoa_r+0x828>
    54ea:	9b22      	ldr	r3, [sp, #136]	; 0x88
    54ec:	2b02      	cmp	r3, #2
    54ee:	dc19      	bgt.n	5524 <_dtoa_r+0xf60>
    54f0:	4649      	mov	r1, r9
    54f2:	f7fe ffbd 	bl	4470 <quorem>
    54f6:	9b0a      	ldr	r3, [sp, #40]	; 0x28
    54f8:	3030      	adds	r0, #48	; 0x30
    54fa:	7018      	strb	r0, [r3, #0]
    54fc:	9b0e      	ldr	r3, [sp, #56]	; 0x38
    54fe:	0006      	movs	r6, r0
    5500:	9307      	str	r3, [sp, #28]
    5502:	e533      	b.n	4f6c <_dtoa_r+0x9a8>
    5504:	2302      	movs	r3, #2
    5506:	4698      	mov	r8, r3
    5508:	f7ff f9ac 	bl	4864 <_dtoa_r+0x2a0>
    550c:	9b13      	ldr	r3, [sp, #76]	; 0x4c
    550e:	9c14      	ldr	r4, [sp, #80]	; 0x50
    5510:	9303      	str	r3, [sp, #12]
    5512:	9b0a      	ldr	r3, [sp, #40]	; 0x28
    5514:	001d      	movs	r5, r3
    5516:	f7ff fb73 	bl	4c00 <_dtoa_r+0x63c>
    551a:	9b13      	ldr	r3, [sp, #76]	; 0x4c
    551c:	9c14      	ldr	r4, [sp, #80]	; 0x50
    551e:	9303      	str	r3, [sp, #12]
    5520:	f7ff fa7f 	bl	4a22 <_dtoa_r+0x45e>
    5524:	9b0e      	ldr	r3, [sp, #56]	; 0x38
    5526:	9307      	str	r3, [sp, #28]
    5528:	e5d6      	b.n	50d8 <_dtoa_r+0xb14>
    552a:	2b04      	cmp	r3, #4
    552c:	d100      	bne.n	5530 <_dtoa_r+0xf6c>
    552e:	e43f      	b.n	4db0 <_dtoa_r+0x7ec>
    5530:	233c      	movs	r3, #60	; 0x3c
    5532:	1a18      	subs	r0, r3, r0
    5534:	e4d7      	b.n	4ee6 <_dtoa_r+0x922>
    5536:	46c0      	nop			; (mov r8, r8)
    5538:	00008d28 	.word	0x00008d28
    553c:	40240000 	.word	0x40240000
    5540:	3fe00000 	.word	0x3fe00000
    5544:	401c0000 	.word	0x401c0000
    5548:	fcc00000 	.word	0xfcc00000

0000554c <__libc_fini_array>:
    554c:	b570      	push	{r4, r5, r6, lr}
    554e:	4b09      	ldr	r3, [pc, #36]	; (5574 <__libc_fini_array+0x28>)
    5550:	4c09      	ldr	r4, [pc, #36]	; (5578 <__libc_fini_array+0x2c>)
    5552:	1ae4      	subs	r4, r4, r3
    5554:	10a4      	asrs	r4, r4, #2
    5556:	d009      	beq.n	556c <__libc_fini_array+0x20>
    5558:	4a08      	ldr	r2, [pc, #32]	; (557c <__libc_fini_array+0x30>)
    555a:	18a5      	adds	r5, r4, r2
    555c:	00ad      	lsls	r5, r5, #2
    555e:	18ed      	adds	r5, r5, r3
    5560:	682b      	ldr	r3, [r5, #0]
    5562:	3c01      	subs	r4, #1
    5564:	4798      	blx	r3
    5566:	3d04      	subs	r5, #4
    5568:	2c00      	cmp	r4, #0
    556a:	d1f9      	bne.n	5560 <__libc_fini_array+0x14>
    556c:	f003 fd1a 	bl	8fa4 <_fini>
    5570:	bd70      	pop	{r4, r5, r6, pc}
    5572:	46c0      	nop			; (mov r8, r8)
    5574:	00008fb0 	.word	0x00008fb0
    5578:	00008fb4 	.word	0x00008fb4
    557c:	3fffffff 	.word	0x3fffffff

00005580 <_localeconv_r>:
    5580:	4b04      	ldr	r3, [pc, #16]	; (5594 <_localeconv_r+0x14>)
    5582:	681b      	ldr	r3, [r3, #0]
    5584:	6b58      	ldr	r0, [r3, #52]	; 0x34
    5586:	2800      	cmp	r0, #0
    5588:	d001      	beq.n	558e <_localeconv_r+0xe>
    558a:	30f0      	adds	r0, #240	; 0xf0
    558c:	4770      	bx	lr
    558e:	4802      	ldr	r0, [pc, #8]	; (5598 <_localeconv_r+0x18>)
    5590:	e7fb      	b.n	558a <_localeconv_r+0xa>
    5592:	46c0      	nop			; (mov r8, r8)
    5594:	20000000 	.word	0x20000000
    5598:	20000844 	.word	0x20000844

0000559c <__retarget_lock_acquire_recursive>:
    559c:	4770      	bx	lr
    559e:	46c0      	nop			; (mov r8, r8)

000055a0 <__retarget_lock_release_recursive>:
    55a0:	4770      	bx	lr
    55a2:	46c0      	nop			; (mov r8, r8)

000055a4 <_malloc_r>:
    55a4:	b5f0      	push	{r4, r5, r6, r7, lr}
    55a6:	4657      	mov	r7, sl
    55a8:	4645      	mov	r5, r8
    55aa:	46de      	mov	lr, fp
    55ac:	464e      	mov	r6, r9
    55ae:	b5e0      	push	{r5, r6, r7, lr}
    55b0:	000d      	movs	r5, r1
    55b2:	350b      	adds	r5, #11
    55b4:	b083      	sub	sp, #12
    55b6:	0007      	movs	r7, r0
    55b8:	2d16      	cmp	r5, #22
    55ba:	d800      	bhi.n	55be <_malloc_r+0x1a>
    55bc:	e09f      	b.n	56fe <_malloc_r+0x15a>
    55be:	2307      	movs	r3, #7
    55c0:	439d      	bics	r5, r3
    55c2:	d500      	bpl.n	55c6 <_malloc_r+0x22>
    55c4:	e0c4      	b.n	5750 <_malloc_r+0x1ac>
    55c6:	42a9      	cmp	r1, r5
    55c8:	d900      	bls.n	55cc <_malloc_r+0x28>
    55ca:	e0c1      	b.n	5750 <_malloc_r+0x1ac>
    55cc:	f000 fb20 	bl	5c10 <__malloc_lock>
    55d0:	23f8      	movs	r3, #248	; 0xf8
    55d2:	33ff      	adds	r3, #255	; 0xff
    55d4:	429d      	cmp	r5, r3
    55d6:	d800      	bhi.n	55da <_malloc_r+0x36>
    55d8:	e28f      	b.n	5afa <_malloc_r+0x556>
    55da:	0a68      	lsrs	r0, r5, #9
    55dc:	d100      	bne.n	55e0 <_malloc_r+0x3c>
    55de:	e0bb      	b.n	5758 <_malloc_r+0x1b4>
    55e0:	2804      	cmp	r0, #4
    55e2:	d900      	bls.n	55e6 <_malloc_r+0x42>
    55e4:	e162      	b.n	58ac <_malloc_r+0x308>
    55e6:	2338      	movs	r3, #56	; 0x38
    55e8:	4698      	mov	r8, r3
    55ea:	09a8      	lsrs	r0, r5, #6
    55ec:	4480      	add	r8, r0
    55ee:	3039      	adds	r0, #57	; 0x39
    55f0:	00c1      	lsls	r1, r0, #3
    55f2:	4ed2      	ldr	r6, [pc, #840]	; (593c <_malloc_r+0x398>)
    55f4:	1871      	adds	r1, r6, r1
    55f6:	3908      	subs	r1, #8
    55f8:	68cc      	ldr	r4, [r1, #12]
    55fa:	42a1      	cmp	r1, r4
    55fc:	d019      	beq.n	5632 <_malloc_r+0x8e>
    55fe:	2303      	movs	r3, #3
    5600:	6862      	ldr	r2, [r4, #4]
    5602:	439a      	bics	r2, r3
    5604:	0013      	movs	r3, r2
    5606:	1b52      	subs	r2, r2, r5
    5608:	2a0f      	cmp	r2, #15
    560a:	dd00      	ble.n	560e <_malloc_r+0x6a>
    560c:	e0aa      	b.n	5764 <_malloc_r+0x1c0>
    560e:	2a00      	cmp	r2, #0
    5610:	db00      	blt.n	5614 <_malloc_r+0x70>
    5612:	e088      	b.n	5726 <_malloc_r+0x182>
    5614:	2303      	movs	r3, #3
    5616:	469c      	mov	ip, r3
    5618:	e008      	b.n	562c <_malloc_r+0x88>
    561a:	4662      	mov	r2, ip
    561c:	6863      	ldr	r3, [r4, #4]
    561e:	4393      	bics	r3, r2
    5620:	1b5a      	subs	r2, r3, r5
    5622:	2a0f      	cmp	r2, #15
    5624:	dd00      	ble.n	5628 <_malloc_r+0x84>
    5626:	e09d      	b.n	5764 <_malloc_r+0x1c0>
    5628:	2a00      	cmp	r2, #0
    562a:	da7c      	bge.n	5726 <_malloc_r+0x182>
    562c:	68e4      	ldr	r4, [r4, #12]
    562e:	42a1      	cmp	r1, r4
    5630:	d1f3      	bne.n	561a <_malloc_r+0x76>
    5632:	0032      	movs	r2, r6
    5634:	6934      	ldr	r4, [r6, #16]
    5636:	3208      	adds	r2, #8
    5638:	4294      	cmp	r4, r2
    563a:	d100      	bne.n	563e <_malloc_r+0x9a>
    563c:	e190      	b.n	5960 <_malloc_r+0x3bc>
    563e:	2303      	movs	r3, #3
    5640:	6861      	ldr	r1, [r4, #4]
    5642:	4399      	bics	r1, r3
    5644:	4689      	mov	r9, r1
    5646:	1b49      	subs	r1, r1, r5
    5648:	290f      	cmp	r1, #15
    564a:	dd00      	ble.n	564e <_malloc_r+0xaa>
    564c:	e162      	b.n	5914 <_malloc_r+0x370>
    564e:	6172      	str	r2, [r6, #20]
    5650:	6132      	str	r2, [r6, #16]
    5652:	2900      	cmp	r1, #0
    5654:	db00      	blt.n	5658 <_malloc_r+0xb4>
    5656:	e087      	b.n	5768 <_malloc_r+0x1c4>
    5658:	4ab9      	ldr	r2, [pc, #740]	; (5940 <_malloc_r+0x39c>)
    565a:	464b      	mov	r3, r9
    565c:	4591      	cmp	r9, r2
    565e:	d900      	bls.n	5662 <_malloc_r+0xbe>
    5660:	e130      	b.n	58c4 <_malloc_r+0x320>
    5662:	08db      	lsrs	r3, r3, #3
    5664:	3aff      	subs	r2, #255	; 0xff
    5666:	1099      	asrs	r1, r3, #2
    5668:	3aff      	subs	r2, #255	; 0xff
    566a:	408a      	lsls	r2, r1
    566c:	00db      	lsls	r3, r3, #3
    566e:	6871      	ldr	r1, [r6, #4]
    5670:	199b      	adds	r3, r3, r6
    5672:	430a      	orrs	r2, r1
    5674:	6899      	ldr	r1, [r3, #8]
    5676:	6072      	str	r2, [r6, #4]
    5678:	60e3      	str	r3, [r4, #12]
    567a:	60a1      	str	r1, [r4, #8]
    567c:	609c      	str	r4, [r3, #8]
    567e:	0013      	movs	r3, r2
    5680:	60cc      	str	r4, [r1, #12]
    5682:	2101      	movs	r1, #1
    5684:	1082      	asrs	r2, r0, #2
    5686:	4091      	lsls	r1, r2
    5688:	4299      	cmp	r1, r3
    568a:	d86f      	bhi.n	576c <_malloc_r+0x1c8>
    568c:	420b      	tst	r3, r1
    568e:	d105      	bne.n	569c <_malloc_r+0xf8>
    5690:	2203      	movs	r2, #3
    5692:	4390      	bics	r0, r2
    5694:	0049      	lsls	r1, r1, #1
    5696:	3004      	adds	r0, #4
    5698:	420b      	tst	r3, r1
    569a:	d0fb      	beq.n	5694 <_malloc_r+0xf0>
    569c:	2303      	movs	r3, #3
    569e:	4698      	mov	r8, r3
    56a0:	00c3      	lsls	r3, r0, #3
    56a2:	4699      	mov	r9, r3
    56a4:	44b1      	add	r9, r6
    56a6:	46cc      	mov	ip, r9
    56a8:	4682      	mov	sl, r0
    56aa:	4663      	mov	r3, ip
    56ac:	68dc      	ldr	r4, [r3, #12]
    56ae:	45a4      	cmp	ip, r4
    56b0:	d107      	bne.n	56c2 <_malloc_r+0x11e>
    56b2:	e157      	b.n	5964 <_malloc_r+0x3c0>
    56b4:	2a00      	cmp	r2, #0
    56b6:	db00      	blt.n	56ba <_malloc_r+0x116>
    56b8:	e166      	b.n	5988 <_malloc_r+0x3e4>
    56ba:	68e4      	ldr	r4, [r4, #12]
    56bc:	45a4      	cmp	ip, r4
    56be:	d100      	bne.n	56c2 <_malloc_r+0x11e>
    56c0:	e150      	b.n	5964 <_malloc_r+0x3c0>
    56c2:	4642      	mov	r2, r8
    56c4:	6863      	ldr	r3, [r4, #4]
    56c6:	4393      	bics	r3, r2
    56c8:	1b5a      	subs	r2, r3, r5
    56ca:	2a0f      	cmp	r2, #15
    56cc:	ddf2      	ble.n	56b4 <_malloc_r+0x110>
    56ce:	2001      	movs	r0, #1
    56d0:	4680      	mov	r8, r0
    56d2:	1961      	adds	r1, r4, r5
    56d4:	4305      	orrs	r5, r0
    56d6:	6065      	str	r5, [r4, #4]
    56d8:	68a0      	ldr	r0, [r4, #8]
    56da:	68e5      	ldr	r5, [r4, #12]
    56dc:	3608      	adds	r6, #8
    56de:	60c5      	str	r5, [r0, #12]
    56e0:	60a8      	str	r0, [r5, #8]
    56e2:	4640      	mov	r0, r8
    56e4:	60f1      	str	r1, [r6, #12]
    56e6:	60b1      	str	r1, [r6, #8]
    56e8:	4310      	orrs	r0, r2
    56ea:	6048      	str	r0, [r1, #4]
    56ec:	60ce      	str	r6, [r1, #12]
    56ee:	608e      	str	r6, [r1, #8]
    56f0:	0038      	movs	r0, r7
    56f2:	50e2      	str	r2, [r4, r3]
    56f4:	f000 fa94 	bl	5c20 <__malloc_unlock>
    56f8:	0020      	movs	r0, r4
    56fa:	3008      	adds	r0, #8
    56fc:	e021      	b.n	5742 <_malloc_r+0x19e>
    56fe:	2910      	cmp	r1, #16
    5700:	d826      	bhi.n	5750 <_malloc_r+0x1ac>
    5702:	0038      	movs	r0, r7
    5704:	f000 fa84 	bl	5c10 <__malloc_lock>
    5708:	2510      	movs	r5, #16
    570a:	2318      	movs	r3, #24
    570c:	2002      	movs	r0, #2
    570e:	4e8b      	ldr	r6, [pc, #556]	; (593c <_malloc_r+0x398>)
    5710:	18f3      	adds	r3, r6, r3
    5712:	001a      	movs	r2, r3
    5714:	685c      	ldr	r4, [r3, #4]
    5716:	3a08      	subs	r2, #8
    5718:	4294      	cmp	r4, r2
    571a:	d100      	bne.n	571e <_malloc_r+0x17a>
    571c:	e12e      	b.n	597c <_malloc_r+0x3d8>
    571e:	2303      	movs	r3, #3
    5720:	6862      	ldr	r2, [r4, #4]
    5722:	439a      	bics	r2, r3
    5724:	0013      	movs	r3, r2
    5726:	68e2      	ldr	r2, [r4, #12]
    5728:	68a1      	ldr	r1, [r4, #8]
    572a:	60ca      	str	r2, [r1, #12]
    572c:	6091      	str	r1, [r2, #8]
    572e:	2201      	movs	r2, #1
    5730:	18e3      	adds	r3, r4, r3
    5732:	6859      	ldr	r1, [r3, #4]
    5734:	0038      	movs	r0, r7
    5736:	430a      	orrs	r2, r1
    5738:	605a      	str	r2, [r3, #4]
    573a:	f000 fa71 	bl	5c20 <__malloc_unlock>
    573e:	0020      	movs	r0, r4
    5740:	3008      	adds	r0, #8
    5742:	b003      	add	sp, #12
    5744:	bc3c      	pop	{r2, r3, r4, r5}
    5746:	4690      	mov	r8, r2
    5748:	4699      	mov	r9, r3
    574a:	46a2      	mov	sl, r4
    574c:	46ab      	mov	fp, r5
    574e:	bdf0      	pop	{r4, r5, r6, r7, pc}
    5750:	230c      	movs	r3, #12
    5752:	2000      	movs	r0, #0
    5754:	603b      	str	r3, [r7, #0]
    5756:	e7f4      	b.n	5742 <_malloc_r+0x19e>
    5758:	2180      	movs	r1, #128	; 0x80
    575a:	233f      	movs	r3, #63	; 0x3f
    575c:	2040      	movs	r0, #64	; 0x40
    575e:	0089      	lsls	r1, r1, #2
    5760:	4698      	mov	r8, r3
    5762:	e746      	b.n	55f2 <_malloc_r+0x4e>
    5764:	4640      	mov	r0, r8
    5766:	e764      	b.n	5632 <_malloc_r+0x8e>
    5768:	464b      	mov	r3, r9
    576a:	e7e0      	b.n	572e <_malloc_r+0x18a>
    576c:	2303      	movs	r3, #3
    576e:	68b4      	ldr	r4, [r6, #8]
    5770:	6862      	ldr	r2, [r4, #4]
    5772:	439a      	bics	r2, r3
    5774:	4690      	mov	r8, r2
    5776:	42aa      	cmp	r2, r5
    5778:	d303      	bcc.n	5782 <_malloc_r+0x1de>
    577a:	1b53      	subs	r3, r2, r5
    577c:	2b0f      	cmp	r3, #15
    577e:	dd00      	ble.n	5782 <_malloc_r+0x1de>
    5780:	e086      	b.n	5890 <_malloc_r+0x2ec>
    5782:	0023      	movs	r3, r4
    5784:	4443      	add	r3, r8
    5786:	4a6f      	ldr	r2, [pc, #444]	; (5944 <_malloc_r+0x3a0>)
    5788:	9301      	str	r3, [sp, #4]
    578a:	4b6f      	ldr	r3, [pc, #444]	; (5948 <_malloc_r+0x3a4>)
    578c:	4693      	mov	fp, r2
    578e:	681b      	ldr	r3, [r3, #0]
    5790:	6812      	ldr	r2, [r2, #0]
    5792:	18eb      	adds	r3, r5, r3
    5794:	3201      	adds	r2, #1
    5796:	d100      	bne.n	579a <_malloc_r+0x1f6>
    5798:	e168      	b.n	5a6c <_malloc_r+0x4c8>
    579a:	4a6c      	ldr	r2, [pc, #432]	; (594c <_malloc_r+0x3a8>)
    579c:	4694      	mov	ip, r2
    579e:	4463      	add	r3, ip
    57a0:	0b1b      	lsrs	r3, r3, #12
    57a2:	031b      	lsls	r3, r3, #12
    57a4:	9300      	str	r3, [sp, #0]
    57a6:	9900      	ldr	r1, [sp, #0]
    57a8:	0038      	movs	r0, r7
    57aa:	f000 fd89 	bl	62c0 <_sbrk_r>
    57ae:	0003      	movs	r3, r0
    57b0:	4681      	mov	r9, r0
    57b2:	3301      	adds	r3, #1
    57b4:	d061      	beq.n	587a <_malloc_r+0x2d6>
    57b6:	9b01      	ldr	r3, [sp, #4]
    57b8:	4283      	cmp	r3, r0
    57ba:	d900      	bls.n	57be <_malloc_r+0x21a>
    57bc:	e0ff      	b.n	59be <_malloc_r+0x41a>
    57be:	4b64      	ldr	r3, [pc, #400]	; (5950 <_malloc_r+0x3ac>)
    57c0:	9a00      	ldr	r2, [sp, #0]
    57c2:	469a      	mov	sl, r3
    57c4:	681b      	ldr	r3, [r3, #0]
    57c6:	469c      	mov	ip, r3
    57c8:	4653      	mov	r3, sl
    57ca:	4462      	add	r2, ip
    57cc:	601a      	str	r2, [r3, #0]
    57ce:	9b01      	ldr	r3, [sp, #4]
    57d0:	0011      	movs	r1, r2
    57d2:	4283      	cmp	r3, r0
    57d4:	d100      	bne.n	57d8 <_malloc_r+0x234>
    57d6:	e155      	b.n	5a84 <_malloc_r+0x4e0>
    57d8:	465b      	mov	r3, fp
    57da:	681b      	ldr	r3, [r3, #0]
    57dc:	3301      	adds	r3, #1
    57de:	d100      	bne.n	57e2 <_malloc_r+0x23e>
    57e0:	e16c      	b.n	5abc <_malloc_r+0x518>
    57e2:	464b      	mov	r3, r9
    57e4:	9a01      	ldr	r2, [sp, #4]
    57e6:	1a9b      	subs	r3, r3, r2
    57e8:	1859      	adds	r1, r3, r1
    57ea:	4653      	mov	r3, sl
    57ec:	6019      	str	r1, [r3, #0]
    57ee:	2307      	movs	r3, #7
    57f0:	464a      	mov	r2, r9
    57f2:	4013      	ands	r3, r2
    57f4:	d100      	bne.n	57f8 <_malloc_r+0x254>
    57f6:	e124      	b.n	5a42 <_malloc_r+0x49e>
    57f8:	2108      	movs	r1, #8
    57fa:	4689      	mov	r9, r1
    57fc:	4955      	ldr	r1, [pc, #340]	; (5954 <_malloc_r+0x3b0>)
    57fe:	1ad2      	subs	r2, r2, r3
    5800:	4491      	add	r9, r2
    5802:	1acb      	subs	r3, r1, r3
    5804:	9a00      	ldr	r2, [sp, #0]
    5806:	0038      	movs	r0, r7
    5808:	444a      	add	r2, r9
    580a:	0511      	lsls	r1, r2, #20
    580c:	0d09      	lsrs	r1, r1, #20
    580e:	1a5b      	subs	r3, r3, r1
    5810:	0019      	movs	r1, r3
    5812:	469b      	mov	fp, r3
    5814:	f000 fd54 	bl	62c0 <_sbrk_r>
    5818:	1c43      	adds	r3, r0, #1
    581a:	d100      	bne.n	581e <_malloc_r+0x27a>
    581c:	e142      	b.n	5aa4 <_malloc_r+0x500>
    581e:	464b      	mov	r3, r9
    5820:	1ac0      	subs	r0, r0, r3
    5822:	2301      	movs	r3, #1
    5824:	4458      	add	r0, fp
    5826:	4318      	orrs	r0, r3
    5828:	4653      	mov	r3, sl
    582a:	681b      	ldr	r3, [r3, #0]
    582c:	445b      	add	r3, fp
    582e:	0019      	movs	r1, r3
    5830:	4653      	mov	r3, sl
    5832:	6019      	str	r1, [r3, #0]
    5834:	464b      	mov	r3, r9
    5836:	60b3      	str	r3, [r6, #8]
    5838:	6058      	str	r0, [r3, #4]
    583a:	42b4      	cmp	r4, r6
    583c:	d013      	beq.n	5866 <_malloc_r+0x2c2>
    583e:	4643      	mov	r3, r8
    5840:	2b0f      	cmp	r3, #15
    5842:	d800      	bhi.n	5846 <_malloc_r+0x2a2>
    5844:	e0e8      	b.n	5a18 <_malloc_r+0x474>
    5846:	4643      	mov	r3, r8
    5848:	2207      	movs	r2, #7
    584a:	6860      	ldr	r0, [r4, #4]
    584c:	3b0c      	subs	r3, #12
    584e:	4393      	bics	r3, r2
    5850:	3a06      	subs	r2, #6
    5852:	4002      	ands	r2, r0
    5854:	2005      	movs	r0, #5
    5856:	431a      	orrs	r2, r3
    5858:	6062      	str	r2, [r4, #4]
    585a:	18e2      	adds	r2, r4, r3
    585c:	6050      	str	r0, [r2, #4]
    585e:	6090      	str	r0, [r2, #8]
    5860:	2b0f      	cmp	r3, #15
    5862:	d900      	bls.n	5866 <_malloc_r+0x2c2>
    5864:	e122      	b.n	5aac <_malloc_r+0x508>
    5866:	4b3c      	ldr	r3, [pc, #240]	; (5958 <_malloc_r+0x3b4>)
    5868:	681a      	ldr	r2, [r3, #0]
    586a:	4291      	cmp	r1, r2
    586c:	d900      	bls.n	5870 <_malloc_r+0x2cc>
    586e:	6019      	str	r1, [r3, #0]
    5870:	4b3a      	ldr	r3, [pc, #232]	; (595c <_malloc_r+0x3b8>)
    5872:	681a      	ldr	r2, [r3, #0]
    5874:	4291      	cmp	r1, r2
    5876:	d900      	bls.n	587a <_malloc_r+0x2d6>
    5878:	6019      	str	r1, [r3, #0]
    587a:	2303      	movs	r3, #3
    587c:	68b4      	ldr	r4, [r6, #8]
    587e:	6862      	ldr	r2, [r4, #4]
    5880:	439a      	bics	r2, r3
    5882:	1b53      	subs	r3, r2, r5
    5884:	4295      	cmp	r5, r2
    5886:	d900      	bls.n	588a <_malloc_r+0x2e6>
    5888:	e0c9      	b.n	5a1e <_malloc_r+0x47a>
    588a:	2b0f      	cmp	r3, #15
    588c:	dc00      	bgt.n	5890 <_malloc_r+0x2ec>
    588e:	e0c6      	b.n	5a1e <_malloc_r+0x47a>
    5890:	2201      	movs	r2, #1
    5892:	0029      	movs	r1, r5
    5894:	4313      	orrs	r3, r2
    5896:	4311      	orrs	r1, r2
    5898:	1965      	adds	r5, r4, r5
    589a:	6061      	str	r1, [r4, #4]
    589c:	0038      	movs	r0, r7
    589e:	60b5      	str	r5, [r6, #8]
    58a0:	606b      	str	r3, [r5, #4]
    58a2:	f000 f9bd 	bl	5c20 <__malloc_unlock>
    58a6:	0020      	movs	r0, r4
    58a8:	3008      	adds	r0, #8
    58aa:	e74a      	b.n	5742 <_malloc_r+0x19e>
    58ac:	2814      	cmp	r0, #20
    58ae:	d97a      	bls.n	59a6 <_malloc_r+0x402>
    58b0:	2854      	cmp	r0, #84	; 0x54
    58b2:	d900      	bls.n	58b6 <_malloc_r+0x312>
    58b4:	e0ba      	b.n	5a2c <_malloc_r+0x488>
    58b6:	236e      	movs	r3, #110	; 0x6e
    58b8:	4698      	mov	r8, r3
    58ba:	0b28      	lsrs	r0, r5, #12
    58bc:	4480      	add	r8, r0
    58be:	306f      	adds	r0, #111	; 0x6f
    58c0:	00c1      	lsls	r1, r0, #3
    58c2:	e696      	b.n	55f2 <_malloc_r+0x4e>
    58c4:	0a5a      	lsrs	r2, r3, #9
    58c6:	2a04      	cmp	r2, #4
    58c8:	d973      	bls.n	59b2 <_malloc_r+0x40e>
    58ca:	2a14      	cmp	r2, #20
    58cc:	d900      	bls.n	58d0 <_malloc_r+0x32c>
    58ce:	e0d0      	b.n	5a72 <_malloc_r+0x4ce>
    58d0:	0011      	movs	r1, r2
    58d2:	325c      	adds	r2, #92	; 0x5c
    58d4:	315b      	adds	r1, #91	; 0x5b
    58d6:	00d2      	lsls	r2, r2, #3
    58d8:	2308      	movs	r3, #8
    58da:	425b      	negs	r3, r3
    58dc:	469c      	mov	ip, r3
    58de:	18b2      	adds	r2, r6, r2
    58e0:	4494      	add	ip, r2
    58e2:	4663      	mov	r3, ip
    58e4:	689a      	ldr	r2, [r3, #8]
    58e6:	2303      	movs	r3, #3
    58e8:	4698      	mov	r8, r3
    58ea:	4594      	cmp	ip, r2
    58ec:	d100      	bne.n	58f0 <_malloc_r+0x34c>
    58ee:	e0ab      	b.n	5a48 <_malloc_r+0x4a4>
    58f0:	4643      	mov	r3, r8
    58f2:	6851      	ldr	r1, [r2, #4]
    58f4:	4399      	bics	r1, r3
    58f6:	4589      	cmp	r9, r1
    58f8:	d300      	bcc.n	58fc <_malloc_r+0x358>
    58fa:	e095      	b.n	5a28 <_malloc_r+0x484>
    58fc:	6892      	ldr	r2, [r2, #8]
    58fe:	4594      	cmp	ip, r2
    5900:	d1f6      	bne.n	58f0 <_malloc_r+0x34c>
    5902:	4663      	mov	r3, ip
    5904:	68da      	ldr	r2, [r3, #12]
    5906:	6873      	ldr	r3, [r6, #4]
    5908:	4661      	mov	r1, ip
    590a:	60e2      	str	r2, [r4, #12]
    590c:	60a1      	str	r1, [r4, #8]
    590e:	6094      	str	r4, [r2, #8]
    5910:	60cc      	str	r4, [r1, #12]
    5912:	e6b6      	b.n	5682 <_malloc_r+0xde>
    5914:	2301      	movs	r3, #1
    5916:	1960      	adds	r0, r4, r5
    5918:	431d      	orrs	r5, r3
    591a:	6065      	str	r5, [r4, #4]
    591c:	6170      	str	r0, [r6, #20]
    591e:	6130      	str	r0, [r6, #16]
    5920:	60c2      	str	r2, [r0, #12]
    5922:	6082      	str	r2, [r0, #8]
    5924:	001a      	movs	r2, r3
    5926:	464b      	mov	r3, r9
    5928:	430a      	orrs	r2, r1
    592a:	6042      	str	r2, [r0, #4]
    592c:	0038      	movs	r0, r7
    592e:	50e1      	str	r1, [r4, r3]
    5930:	f000 f976 	bl	5c20 <__malloc_unlock>
    5934:	0020      	movs	r0, r4
    5936:	3008      	adds	r0, #8
    5938:	e703      	b.n	5742 <_malloc_r+0x19e>
    593a:	46c0      	nop			; (mov r8, r8)
    593c:	20000434 	.word	0x20000434
    5940:	000001ff 	.word	0x000001ff
    5944:	2000083c 	.word	0x2000083c
    5948:	20000a00 	.word	0x20000a00
    594c:	0000100f 	.word	0x0000100f
    5950:	200009d0 	.word	0x200009d0
    5954:	00001008 	.word	0x00001008
    5958:	200009f8 	.word	0x200009f8
    595c:	200009fc 	.word	0x200009fc
    5960:	6873      	ldr	r3, [r6, #4]
    5962:	e68e      	b.n	5682 <_malloc_r+0xde>
    5964:	2308      	movs	r3, #8
    5966:	469b      	mov	fp, r3
    5968:	3b07      	subs	r3, #7
    596a:	44dc      	add	ip, fp
    596c:	469b      	mov	fp, r3
    596e:	44da      	add	sl, fp
    5970:	4643      	mov	r3, r8
    5972:	4652      	mov	r2, sl
    5974:	4213      	tst	r3, r2
    5976:	d000      	beq.n	597a <_malloc_r+0x3d6>
    5978:	e697      	b.n	56aa <_malloc_r+0x106>
    597a:	e037      	b.n	59ec <_malloc_r+0x448>
    597c:	68dc      	ldr	r4, [r3, #12]
    597e:	3002      	adds	r0, #2
    5980:	42a3      	cmp	r3, r4
    5982:	d100      	bne.n	5986 <_malloc_r+0x3e2>
    5984:	e655      	b.n	5632 <_malloc_r+0x8e>
    5986:	e6ca      	b.n	571e <_malloc_r+0x17a>
    5988:	2201      	movs	r2, #1
    598a:	18e3      	adds	r3, r4, r3
    598c:	6859      	ldr	r1, [r3, #4]
    598e:	0038      	movs	r0, r7
    5990:	430a      	orrs	r2, r1
    5992:	605a      	str	r2, [r3, #4]
    5994:	68e3      	ldr	r3, [r4, #12]
    5996:	68a2      	ldr	r2, [r4, #8]
    5998:	60d3      	str	r3, [r2, #12]
    599a:	609a      	str	r2, [r3, #8]
    599c:	f000 f940 	bl	5c20 <__malloc_unlock>
    59a0:	0020      	movs	r0, r4
    59a2:	3008      	adds	r0, #8
    59a4:	e6cd      	b.n	5742 <_malloc_r+0x19e>
    59a6:	235b      	movs	r3, #91	; 0x5b
    59a8:	4698      	mov	r8, r3
    59aa:	4480      	add	r8, r0
    59ac:	305c      	adds	r0, #92	; 0x5c
    59ae:	00c1      	lsls	r1, r0, #3
    59b0:	e61f      	b.n	55f2 <_malloc_r+0x4e>
    59b2:	099a      	lsrs	r2, r3, #6
    59b4:	0011      	movs	r1, r2
    59b6:	3239      	adds	r2, #57	; 0x39
    59b8:	3138      	adds	r1, #56	; 0x38
    59ba:	00d2      	lsls	r2, r2, #3
    59bc:	e78c      	b.n	58d8 <_malloc_r+0x334>
    59be:	42b4      	cmp	r4, r6
    59c0:	d000      	beq.n	59c4 <_malloc_r+0x420>
    59c2:	e75a      	b.n	587a <_malloc_r+0x2d6>
    59c4:	4b4f      	ldr	r3, [pc, #316]	; (5b04 <_malloc_r+0x560>)
    59c6:	9a00      	ldr	r2, [sp, #0]
    59c8:	469a      	mov	sl, r3
    59ca:	681b      	ldr	r3, [r3, #0]
    59cc:	469c      	mov	ip, r3
    59ce:	4653      	mov	r3, sl
    59d0:	4462      	add	r2, ip
    59d2:	0011      	movs	r1, r2
    59d4:	601a      	str	r2, [r3, #0]
    59d6:	e6ff      	b.n	57d8 <_malloc_r+0x234>
    59d8:	2308      	movs	r3, #8
    59da:	425b      	negs	r3, r3
    59dc:	469c      	mov	ip, r3
    59de:	44e1      	add	r9, ip
    59e0:	464b      	mov	r3, r9
    59e2:	689b      	ldr	r3, [r3, #8]
    59e4:	3801      	subs	r0, #1
    59e6:	4599      	cmp	r9, r3
    59e8:	d000      	beq.n	59ec <_malloc_r+0x448>
    59ea:	e084      	b.n	5af6 <_malloc_r+0x552>
    59ec:	4643      	mov	r3, r8
    59ee:	4203      	tst	r3, r0
    59f0:	d1f2      	bne.n	59d8 <_malloc_r+0x434>
    59f2:	6873      	ldr	r3, [r6, #4]
    59f4:	438b      	bics	r3, r1
    59f6:	6073      	str	r3, [r6, #4]
    59f8:	0049      	lsls	r1, r1, #1
    59fa:	4299      	cmp	r1, r3
    59fc:	d900      	bls.n	5a00 <_malloc_r+0x45c>
    59fe:	e6b5      	b.n	576c <_malloc_r+0x1c8>
    5a00:	2900      	cmp	r1, #0
    5a02:	d100      	bne.n	5a06 <_malloc_r+0x462>
    5a04:	e6b2      	b.n	576c <_malloc_r+0x1c8>
    5a06:	4650      	mov	r0, sl
    5a08:	420b      	tst	r3, r1
    5a0a:	d000      	beq.n	5a0e <_malloc_r+0x46a>
    5a0c:	e648      	b.n	56a0 <_malloc_r+0xfc>
    5a0e:	0049      	lsls	r1, r1, #1
    5a10:	3004      	adds	r0, #4
    5a12:	420b      	tst	r3, r1
    5a14:	d0fb      	beq.n	5a0e <_malloc_r+0x46a>
    5a16:	e643      	b.n	56a0 <_malloc_r+0xfc>
    5a18:	2301      	movs	r3, #1
    5a1a:	464a      	mov	r2, r9
    5a1c:	6053      	str	r3, [r2, #4]
    5a1e:	0038      	movs	r0, r7
    5a20:	f000 f8fe 	bl	5c20 <__malloc_unlock>
    5a24:	2000      	movs	r0, #0
    5a26:	e68c      	b.n	5742 <_malloc_r+0x19e>
    5a28:	4694      	mov	ip, r2
    5a2a:	e76a      	b.n	5902 <_malloc_r+0x35e>
    5a2c:	23aa      	movs	r3, #170	; 0xaa
    5a2e:	005b      	lsls	r3, r3, #1
    5a30:	4298      	cmp	r0, r3
    5a32:	d811      	bhi.n	5a58 <_malloc_r+0x4b4>
    5a34:	3bdd      	subs	r3, #221	; 0xdd
    5a36:	4698      	mov	r8, r3
    5a38:	0be8      	lsrs	r0, r5, #15
    5a3a:	4480      	add	r8, r0
    5a3c:	3078      	adds	r0, #120	; 0x78
    5a3e:	00c1      	lsls	r1, r0, #3
    5a40:	e5d7      	b.n	55f2 <_malloc_r+0x4e>
    5a42:	2380      	movs	r3, #128	; 0x80
    5a44:	015b      	lsls	r3, r3, #5
    5a46:	e6dd      	b.n	5804 <_malloc_r+0x260>
    5a48:	1089      	asrs	r1, r1, #2
    5a4a:	3b02      	subs	r3, #2
    5a4c:	408b      	lsls	r3, r1
    5a4e:	6872      	ldr	r2, [r6, #4]
    5a50:	4313      	orrs	r3, r2
    5a52:	6073      	str	r3, [r6, #4]
    5a54:	4662      	mov	r2, ip
    5a56:	e757      	b.n	5908 <_malloc_r+0x364>
    5a58:	4b2b      	ldr	r3, [pc, #172]	; (5b08 <_malloc_r+0x564>)
    5a5a:	4298      	cmp	r0, r3
    5a5c:	d81c      	bhi.n	5a98 <_malloc_r+0x4f4>
    5a5e:	237c      	movs	r3, #124	; 0x7c
    5a60:	4698      	mov	r8, r3
    5a62:	0ca8      	lsrs	r0, r5, #18
    5a64:	4480      	add	r8, r0
    5a66:	307d      	adds	r0, #125	; 0x7d
    5a68:	00c1      	lsls	r1, r0, #3
    5a6a:	e5c2      	b.n	55f2 <_malloc_r+0x4e>
    5a6c:	3310      	adds	r3, #16
    5a6e:	9300      	str	r3, [sp, #0]
    5a70:	e699      	b.n	57a6 <_malloc_r+0x202>
    5a72:	2a54      	cmp	r2, #84	; 0x54
    5a74:	d826      	bhi.n	5ac4 <_malloc_r+0x520>
    5a76:	464b      	mov	r3, r9
    5a78:	0b1a      	lsrs	r2, r3, #12
    5a7a:	0011      	movs	r1, r2
    5a7c:	326f      	adds	r2, #111	; 0x6f
    5a7e:	316e      	adds	r1, #110	; 0x6e
    5a80:	00d2      	lsls	r2, r2, #3
    5a82:	e729      	b.n	58d8 <_malloc_r+0x334>
    5a84:	051b      	lsls	r3, r3, #20
    5a86:	d000      	beq.n	5a8a <_malloc_r+0x4e6>
    5a88:	e6a6      	b.n	57d8 <_malloc_r+0x234>
    5a8a:	2001      	movs	r0, #1
    5a8c:	9b00      	ldr	r3, [sp, #0]
    5a8e:	68b2      	ldr	r2, [r6, #8]
    5a90:	4443      	add	r3, r8
    5a92:	4303      	orrs	r3, r0
    5a94:	6053      	str	r3, [r2, #4]
    5a96:	e6e6      	b.n	5866 <_malloc_r+0x2c2>
    5a98:	21fe      	movs	r1, #254	; 0xfe
    5a9a:	237e      	movs	r3, #126	; 0x7e
    5a9c:	207f      	movs	r0, #127	; 0x7f
    5a9e:	0089      	lsls	r1, r1, #2
    5aa0:	4698      	mov	r8, r3
    5aa2:	e5a6      	b.n	55f2 <_malloc_r+0x4e>
    5aa4:	2300      	movs	r3, #0
    5aa6:	2001      	movs	r0, #1
    5aa8:	469b      	mov	fp, r3
    5aaa:	e6bd      	b.n	5828 <_malloc_r+0x284>
    5aac:	0021      	movs	r1, r4
    5aae:	0038      	movs	r0, r7
    5ab0:	3108      	adds	r1, #8
    5ab2:	f000 fdcf 	bl	6654 <_free_r>
    5ab6:	4653      	mov	r3, sl
    5ab8:	6819      	ldr	r1, [r3, #0]
    5aba:	e6d4      	b.n	5866 <_malloc_r+0x2c2>
    5abc:	465b      	mov	r3, fp
    5abe:	464a      	mov	r2, r9
    5ac0:	601a      	str	r2, [r3, #0]
    5ac2:	e694      	b.n	57ee <_malloc_r+0x24a>
    5ac4:	21aa      	movs	r1, #170	; 0xaa
    5ac6:	0049      	lsls	r1, r1, #1
    5ac8:	428a      	cmp	r2, r1
    5aca:	d806      	bhi.n	5ada <_malloc_r+0x536>
    5acc:	464b      	mov	r3, r9
    5ace:	0bda      	lsrs	r2, r3, #15
    5ad0:	0011      	movs	r1, r2
    5ad2:	3278      	adds	r2, #120	; 0x78
    5ad4:	3177      	adds	r1, #119	; 0x77
    5ad6:	00d2      	lsls	r2, r2, #3
    5ad8:	e6fe      	b.n	58d8 <_malloc_r+0x334>
    5ada:	490b      	ldr	r1, [pc, #44]	; (5b08 <_malloc_r+0x564>)
    5adc:	428a      	cmp	r2, r1
    5ade:	d806      	bhi.n	5aee <_malloc_r+0x54a>
    5ae0:	464b      	mov	r3, r9
    5ae2:	0c9a      	lsrs	r2, r3, #18
    5ae4:	0011      	movs	r1, r2
    5ae6:	327d      	adds	r2, #125	; 0x7d
    5ae8:	317c      	adds	r1, #124	; 0x7c
    5aea:	00d2      	lsls	r2, r2, #3
    5aec:	e6f4      	b.n	58d8 <_malloc_r+0x334>
    5aee:	22fe      	movs	r2, #254	; 0xfe
    5af0:	217e      	movs	r1, #126	; 0x7e
    5af2:	0092      	lsls	r2, r2, #2
    5af4:	e6f0      	b.n	58d8 <_malloc_r+0x334>
    5af6:	6873      	ldr	r3, [r6, #4]
    5af8:	e77e      	b.n	59f8 <_malloc_r+0x454>
    5afa:	002b      	movs	r3, r5
    5afc:	08e8      	lsrs	r0, r5, #3
    5afe:	3308      	adds	r3, #8
    5b00:	e605      	b.n	570e <_malloc_r+0x16a>
    5b02:	46c0      	nop			; (mov r8, r8)
    5b04:	200009d0 	.word	0x200009d0
    5b08:	00000554 	.word	0x00000554

00005b0c <memchr>:
    5b0c:	b570      	push	{r4, r5, r6, lr}
    5b0e:	b2cd      	uxtb	r5, r1
    5b10:	0783      	lsls	r3, r0, #30
    5b12:	d034      	beq.n	5b7e <memchr+0x72>
    5b14:	1e54      	subs	r4, r2, #1
    5b16:	2a00      	cmp	r2, #0
    5b18:	d01b      	beq.n	5b52 <memchr+0x46>
    5b1a:	7803      	ldrb	r3, [r0, #0]
    5b1c:	42ab      	cmp	r3, r5
    5b1e:	d019      	beq.n	5b54 <memchr+0x48>
    5b20:	2203      	movs	r2, #3
    5b22:	e004      	b.n	5b2e <memchr+0x22>
    5b24:	3c01      	subs	r4, #1
    5b26:	d314      	bcc.n	5b52 <memchr+0x46>
    5b28:	7803      	ldrb	r3, [r0, #0]
    5b2a:	42ab      	cmp	r3, r5
    5b2c:	d012      	beq.n	5b54 <memchr+0x48>
    5b2e:	3001      	adds	r0, #1
    5b30:	4210      	tst	r0, r2
    5b32:	d1f7      	bne.n	5b24 <memchr+0x18>
    5b34:	2c03      	cmp	r4, #3
    5b36:	d80e      	bhi.n	5b56 <memchr+0x4a>
    5b38:	2c00      	cmp	r4, #0
    5b3a:	d00a      	beq.n	5b52 <memchr+0x46>
    5b3c:	7803      	ldrb	r3, [r0, #0]
    5b3e:	42ab      	cmp	r3, r5
    5b40:	d008      	beq.n	5b54 <memchr+0x48>
    5b42:	1904      	adds	r4, r0, r4
    5b44:	e002      	b.n	5b4c <memchr+0x40>
    5b46:	7803      	ldrb	r3, [r0, #0]
    5b48:	42ab      	cmp	r3, r5
    5b4a:	d003      	beq.n	5b54 <memchr+0x48>
    5b4c:	3001      	adds	r0, #1
    5b4e:	4284      	cmp	r4, r0
    5b50:	d1f9      	bne.n	5b46 <memchr+0x3a>
    5b52:	2000      	movs	r0, #0
    5b54:	bd70      	pop	{r4, r5, r6, pc}
    5b56:	22ff      	movs	r2, #255	; 0xff
    5b58:	060b      	lsls	r3, r1, #24
    5b5a:	0c1b      	lsrs	r3, r3, #16
    5b5c:	4011      	ands	r1, r2
    5b5e:	4319      	orrs	r1, r3
    5b60:	040b      	lsls	r3, r1, #16
    5b62:	4e08      	ldr	r6, [pc, #32]	; (5b84 <memchr+0x78>)
    5b64:	4319      	orrs	r1, r3
    5b66:	6803      	ldr	r3, [r0, #0]
    5b68:	4a07      	ldr	r2, [pc, #28]	; (5b88 <memchr+0x7c>)
    5b6a:	404b      	eors	r3, r1
    5b6c:	189a      	adds	r2, r3, r2
    5b6e:	439a      	bics	r2, r3
    5b70:	4232      	tst	r2, r6
    5b72:	d1e3      	bne.n	5b3c <memchr+0x30>
    5b74:	3c04      	subs	r4, #4
    5b76:	3004      	adds	r0, #4
    5b78:	2c03      	cmp	r4, #3
    5b7a:	d8f4      	bhi.n	5b66 <memchr+0x5a>
    5b7c:	e7dc      	b.n	5b38 <memchr+0x2c>
    5b7e:	0014      	movs	r4, r2
    5b80:	e7d8      	b.n	5b34 <memchr+0x28>
    5b82:	46c0      	nop			; (mov r8, r8)
    5b84:	80808080 	.word	0x80808080
    5b88:	fefefeff 	.word	0xfefefeff

00005b8c <memcpy>:
    5b8c:	b5f0      	push	{r4, r5, r6, r7, lr}
    5b8e:	0005      	movs	r5, r0
    5b90:	2a0f      	cmp	r2, #15
    5b92:	d92f      	bls.n	5bf4 <memcpy+0x68>
    5b94:	000b      	movs	r3, r1
    5b96:	4303      	orrs	r3, r0
    5b98:	079b      	lsls	r3, r3, #30
    5b9a:	d134      	bne.n	5c06 <memcpy+0x7a>
    5b9c:	0016      	movs	r6, r2
    5b9e:	000c      	movs	r4, r1
    5ba0:	0003      	movs	r3, r0
    5ba2:	3e10      	subs	r6, #16
    5ba4:	0935      	lsrs	r5, r6, #4
    5ba6:	3501      	adds	r5, #1
    5ba8:	012d      	lsls	r5, r5, #4
    5baa:	1945      	adds	r5, r0, r5
    5bac:	6827      	ldr	r7, [r4, #0]
    5bae:	601f      	str	r7, [r3, #0]
    5bb0:	6867      	ldr	r7, [r4, #4]
    5bb2:	605f      	str	r7, [r3, #4]
    5bb4:	68a7      	ldr	r7, [r4, #8]
    5bb6:	609f      	str	r7, [r3, #8]
    5bb8:	68e7      	ldr	r7, [r4, #12]
    5bba:	3410      	adds	r4, #16
    5bbc:	60df      	str	r7, [r3, #12]
    5bbe:	3310      	adds	r3, #16
    5bc0:	429d      	cmp	r5, r3
    5bc2:	d1f3      	bne.n	5bac <memcpy+0x20>
    5bc4:	230f      	movs	r3, #15
    5bc6:	439e      	bics	r6, r3
    5bc8:	3610      	adds	r6, #16
    5bca:	1985      	adds	r5, r0, r6
    5bcc:	1989      	adds	r1, r1, r6
    5bce:	4013      	ands	r3, r2
    5bd0:	2b03      	cmp	r3, #3
    5bd2:	d91a      	bls.n	5c0a <memcpy+0x7e>
    5bd4:	1f1e      	subs	r6, r3, #4
    5bd6:	2300      	movs	r3, #0
    5bd8:	08b4      	lsrs	r4, r6, #2
    5bda:	3401      	adds	r4, #1
    5bdc:	00a4      	lsls	r4, r4, #2
    5bde:	58cf      	ldr	r7, [r1, r3]
    5be0:	50ef      	str	r7, [r5, r3]
    5be2:	3304      	adds	r3, #4
    5be4:	42a3      	cmp	r3, r4
    5be6:	d1fa      	bne.n	5bde <memcpy+0x52>
    5be8:	2403      	movs	r4, #3
    5bea:	43a6      	bics	r6, r4
    5bec:	1d33      	adds	r3, r6, #4
    5bee:	4022      	ands	r2, r4
    5bf0:	18c9      	adds	r1, r1, r3
    5bf2:	18ed      	adds	r5, r5, r3
    5bf4:	2a00      	cmp	r2, #0
    5bf6:	d005      	beq.n	5c04 <memcpy+0x78>
    5bf8:	2300      	movs	r3, #0
    5bfa:	5ccc      	ldrb	r4, [r1, r3]
    5bfc:	54ec      	strb	r4, [r5, r3]
    5bfe:	3301      	adds	r3, #1
    5c00:	4293      	cmp	r3, r2
    5c02:	d1fa      	bne.n	5bfa <memcpy+0x6e>
    5c04:	bdf0      	pop	{r4, r5, r6, r7, pc}
    5c06:	0005      	movs	r5, r0
    5c08:	e7f6      	b.n	5bf8 <memcpy+0x6c>
    5c0a:	001a      	movs	r2, r3
    5c0c:	e7f2      	b.n	5bf4 <memcpy+0x68>
    5c0e:	46c0      	nop			; (mov r8, r8)

00005c10 <__malloc_lock>:
    5c10:	b510      	push	{r4, lr}
    5c12:	4802      	ldr	r0, [pc, #8]	; (5c1c <__malloc_lock+0xc>)
    5c14:	f7ff fcc2 	bl	559c <__retarget_lock_acquire_recursive>
    5c18:	bd10      	pop	{r4, pc}
    5c1a:	46c0      	nop			; (mov r8, r8)
    5c1c:	20000a14 	.word	0x20000a14

00005c20 <__malloc_unlock>:
    5c20:	b510      	push	{r4, lr}
    5c22:	4802      	ldr	r0, [pc, #8]	; (5c2c <__malloc_unlock+0xc>)
    5c24:	f7ff fcbc 	bl	55a0 <__retarget_lock_release_recursive>
    5c28:	bd10      	pop	{r4, pc}
    5c2a:	46c0      	nop			; (mov r8, r8)
    5c2c:	20000a14 	.word	0x20000a14

00005c30 <_Balloc>:
    5c30:	b570      	push	{r4, r5, r6, lr}
    5c32:	0004      	movs	r4, r0
    5c34:	6cc0      	ldr	r0, [r0, #76]	; 0x4c
    5c36:	000d      	movs	r5, r1
    5c38:	2800      	cmp	r0, #0
    5c3a:	d00a      	beq.n	5c52 <_Balloc+0x22>
    5c3c:	00ab      	lsls	r3, r5, #2
    5c3e:	18c3      	adds	r3, r0, r3
    5c40:	6818      	ldr	r0, [r3, #0]
    5c42:	2800      	cmp	r0, #0
    5c44:	d00f      	beq.n	5c66 <_Balloc+0x36>
    5c46:	6802      	ldr	r2, [r0, #0]
    5c48:	601a      	str	r2, [r3, #0]
    5c4a:	2300      	movs	r3, #0
    5c4c:	6103      	str	r3, [r0, #16]
    5c4e:	60c3      	str	r3, [r0, #12]
    5c50:	bd70      	pop	{r4, r5, r6, pc}
    5c52:	2221      	movs	r2, #33	; 0x21
    5c54:	2104      	movs	r1, #4
    5c56:	0020      	movs	r0, r4
    5c58:	f000 fc80 	bl	655c <_calloc_r>
    5c5c:	64e0      	str	r0, [r4, #76]	; 0x4c
    5c5e:	2800      	cmp	r0, #0
    5c60:	d1ec      	bne.n	5c3c <_Balloc+0xc>
    5c62:	2000      	movs	r0, #0
    5c64:	e7f4      	b.n	5c50 <_Balloc+0x20>
    5c66:	2601      	movs	r6, #1
    5c68:	40ae      	lsls	r6, r5
    5c6a:	1d72      	adds	r2, r6, #5
    5c6c:	0092      	lsls	r2, r2, #2
    5c6e:	2101      	movs	r1, #1
    5c70:	0020      	movs	r0, r4
    5c72:	f000 fc73 	bl	655c <_calloc_r>
    5c76:	2800      	cmp	r0, #0
    5c78:	d0f3      	beq.n	5c62 <_Balloc+0x32>
    5c7a:	6045      	str	r5, [r0, #4]
    5c7c:	6086      	str	r6, [r0, #8]
    5c7e:	e7e4      	b.n	5c4a <_Balloc+0x1a>

00005c80 <_Bfree>:
    5c80:	2900      	cmp	r1, #0
    5c82:	d006      	beq.n	5c92 <_Bfree+0x12>
    5c84:	684b      	ldr	r3, [r1, #4]
    5c86:	009a      	lsls	r2, r3, #2
    5c88:	6cc3      	ldr	r3, [r0, #76]	; 0x4c
    5c8a:	189b      	adds	r3, r3, r2
    5c8c:	681a      	ldr	r2, [r3, #0]
    5c8e:	600a      	str	r2, [r1, #0]
    5c90:	6019      	str	r1, [r3, #0]
    5c92:	4770      	bx	lr

00005c94 <__multadd>:
    5c94:	b5f8      	push	{r3, r4, r5, r6, r7, lr}
    5c96:	46ce      	mov	lr, r9
    5c98:	4647      	mov	r7, r8
    5c9a:	4681      	mov	r9, r0
    5c9c:	0008      	movs	r0, r1
    5c9e:	b580      	push	{r7, lr}
    5ca0:	000d      	movs	r5, r1
    5ca2:	690c      	ldr	r4, [r1, #16]
    5ca4:	001f      	movs	r7, r3
    5ca6:	2100      	movs	r1, #0
    5ca8:	3014      	adds	r0, #20
    5caa:	6803      	ldr	r3, [r0, #0]
    5cac:	3101      	adds	r1, #1
    5cae:	041e      	lsls	r6, r3, #16
    5cb0:	0c36      	lsrs	r6, r6, #16
    5cb2:	4356      	muls	r6, r2
    5cb4:	0c1b      	lsrs	r3, r3, #16
    5cb6:	4353      	muls	r3, r2
    5cb8:	19f6      	adds	r6, r6, r7
    5cba:	0c37      	lsrs	r7, r6, #16
    5cbc:	19db      	adds	r3, r3, r7
    5cbe:	0436      	lsls	r6, r6, #16
    5cc0:	0c1f      	lsrs	r7, r3, #16
    5cc2:	0c36      	lsrs	r6, r6, #16
    5cc4:	041b      	lsls	r3, r3, #16
    5cc6:	199b      	adds	r3, r3, r6
    5cc8:	c008      	stmia	r0!, {r3}
    5cca:	428c      	cmp	r4, r1
    5ccc:	dced      	bgt.n	5caa <__multadd+0x16>
    5cce:	2f00      	cmp	r7, #0
    5cd0:	d008      	beq.n	5ce4 <__multadd+0x50>
    5cd2:	68ab      	ldr	r3, [r5, #8]
    5cd4:	429c      	cmp	r4, r3
    5cd6:	da0a      	bge.n	5cee <__multadd+0x5a>
    5cd8:	1d23      	adds	r3, r4, #4
    5cda:	009b      	lsls	r3, r3, #2
    5cdc:	18eb      	adds	r3, r5, r3
    5cde:	3401      	adds	r4, #1
    5ce0:	605f      	str	r7, [r3, #4]
    5ce2:	612c      	str	r4, [r5, #16]
    5ce4:	0028      	movs	r0, r5
    5ce6:	bc0c      	pop	{r2, r3}
    5ce8:	4690      	mov	r8, r2
    5cea:	4699      	mov	r9, r3
    5cec:	bdf8      	pop	{r3, r4, r5, r6, r7, pc}
    5cee:	686b      	ldr	r3, [r5, #4]
    5cf0:	4648      	mov	r0, r9
    5cf2:	1c59      	adds	r1, r3, #1
    5cf4:	f7ff ff9c 	bl	5c30 <_Balloc>
    5cf8:	0029      	movs	r1, r5
    5cfa:	692b      	ldr	r3, [r5, #16]
    5cfc:	4680      	mov	r8, r0
    5cfe:	1c9a      	adds	r2, r3, #2
    5d00:	0092      	lsls	r2, r2, #2
    5d02:	310c      	adds	r1, #12
    5d04:	300c      	adds	r0, #12
    5d06:	f7ff ff41 	bl	5b8c <memcpy>
    5d0a:	686b      	ldr	r3, [r5, #4]
    5d0c:	009a      	lsls	r2, r3, #2
    5d0e:	464b      	mov	r3, r9
    5d10:	6cdb      	ldr	r3, [r3, #76]	; 0x4c
    5d12:	189b      	adds	r3, r3, r2
    5d14:	681a      	ldr	r2, [r3, #0]
    5d16:	602a      	str	r2, [r5, #0]
    5d18:	601d      	str	r5, [r3, #0]
    5d1a:	4645      	mov	r5, r8
    5d1c:	e7dc      	b.n	5cd8 <__multadd+0x44>
    5d1e:	46c0      	nop			; (mov r8, r8)

00005d20 <__hi0bits>:
    5d20:	0003      	movs	r3, r0
    5d22:	0c02      	lsrs	r2, r0, #16
    5d24:	2000      	movs	r0, #0
    5d26:	2a00      	cmp	r2, #0
    5d28:	d101      	bne.n	5d2e <__hi0bits+0xe>
    5d2a:	041b      	lsls	r3, r3, #16
    5d2c:	3010      	adds	r0, #16
    5d2e:	0e1a      	lsrs	r2, r3, #24
    5d30:	d101      	bne.n	5d36 <__hi0bits+0x16>
    5d32:	3008      	adds	r0, #8
    5d34:	021b      	lsls	r3, r3, #8
    5d36:	0f1a      	lsrs	r2, r3, #28
    5d38:	d101      	bne.n	5d3e <__hi0bits+0x1e>
    5d3a:	3004      	adds	r0, #4
    5d3c:	011b      	lsls	r3, r3, #4
    5d3e:	0f9a      	lsrs	r2, r3, #30
    5d40:	d101      	bne.n	5d46 <__hi0bits+0x26>
    5d42:	3002      	adds	r0, #2
    5d44:	009b      	lsls	r3, r3, #2
    5d46:	2b00      	cmp	r3, #0
    5d48:	db03      	blt.n	5d52 <__hi0bits+0x32>
    5d4a:	3001      	adds	r0, #1
    5d4c:	005b      	lsls	r3, r3, #1
    5d4e:	d400      	bmi.n	5d52 <__hi0bits+0x32>
    5d50:	2020      	movs	r0, #32
    5d52:	4770      	bx	lr

00005d54 <__lo0bits>:
    5d54:	6803      	ldr	r3, [r0, #0]
    5d56:	075a      	lsls	r2, r3, #29
    5d58:	d009      	beq.n	5d6e <__lo0bits+0x1a>
    5d5a:	2200      	movs	r2, #0
    5d5c:	07d9      	lsls	r1, r3, #31
    5d5e:	d404      	bmi.n	5d6a <__lo0bits+0x16>
    5d60:	079a      	lsls	r2, r3, #30
    5d62:	d420      	bmi.n	5da6 <__lo0bits+0x52>
    5d64:	2202      	movs	r2, #2
    5d66:	089b      	lsrs	r3, r3, #2
    5d68:	6003      	str	r3, [r0, #0]
    5d6a:	0010      	movs	r0, r2
    5d6c:	4770      	bx	lr
    5d6e:	0419      	lsls	r1, r3, #16
    5d70:	2200      	movs	r2, #0
    5d72:	2900      	cmp	r1, #0
    5d74:	d101      	bne.n	5d7a <__lo0bits+0x26>
    5d76:	0c1b      	lsrs	r3, r3, #16
    5d78:	3210      	adds	r2, #16
    5d7a:	21ff      	movs	r1, #255	; 0xff
    5d7c:	4219      	tst	r1, r3
    5d7e:	d101      	bne.n	5d84 <__lo0bits+0x30>
    5d80:	3208      	adds	r2, #8
    5d82:	0a1b      	lsrs	r3, r3, #8
    5d84:	0719      	lsls	r1, r3, #28
    5d86:	d101      	bne.n	5d8c <__lo0bits+0x38>
    5d88:	3204      	adds	r2, #4
    5d8a:	091b      	lsrs	r3, r3, #4
    5d8c:	0799      	lsls	r1, r3, #30
    5d8e:	d101      	bne.n	5d94 <__lo0bits+0x40>
    5d90:	3202      	adds	r2, #2
    5d92:	089b      	lsrs	r3, r3, #2
    5d94:	07d9      	lsls	r1, r3, #31
    5d96:	d404      	bmi.n	5da2 <__lo0bits+0x4e>
    5d98:	085b      	lsrs	r3, r3, #1
    5d9a:	d101      	bne.n	5da0 <__lo0bits+0x4c>
    5d9c:	2220      	movs	r2, #32
    5d9e:	e7e4      	b.n	5d6a <__lo0bits+0x16>
    5da0:	3201      	adds	r2, #1
    5da2:	6003      	str	r3, [r0, #0]
    5da4:	e7e1      	b.n	5d6a <__lo0bits+0x16>
    5da6:	085b      	lsrs	r3, r3, #1
    5da8:	6003      	str	r3, [r0, #0]
    5daa:	2201      	movs	r2, #1
    5dac:	e7dd      	b.n	5d6a <__lo0bits+0x16>
    5dae:	46c0      	nop			; (mov r8, r8)

00005db0 <__i2b>:
    5db0:	b510      	push	{r4, lr}
    5db2:	000c      	movs	r4, r1
    5db4:	2101      	movs	r1, #1
    5db6:	f7ff ff3b 	bl	5c30 <_Balloc>
    5dba:	2301      	movs	r3, #1
    5dbc:	6144      	str	r4, [r0, #20]
    5dbe:	6103      	str	r3, [r0, #16]
    5dc0:	bd10      	pop	{r4, pc}
    5dc2:	46c0      	nop			; (mov r8, r8)

00005dc4 <__multiply>:
    5dc4:	b5f0      	push	{r4, r5, r6, r7, lr}
    5dc6:	4657      	mov	r7, sl
    5dc8:	464e      	mov	r6, r9
    5dca:	4645      	mov	r5, r8
    5dcc:	46de      	mov	lr, fp
    5dce:	b5e0      	push	{r5, r6, r7, lr}
    5dd0:	6914      	ldr	r4, [r2, #16]
    5dd2:	690e      	ldr	r6, [r1, #16]
    5dd4:	b085      	sub	sp, #20
    5dd6:	000f      	movs	r7, r1
    5dd8:	0015      	movs	r5, r2
    5dda:	42a6      	cmp	r6, r4
    5ddc:	da04      	bge.n	5de8 <__multiply+0x24>
    5dde:	0033      	movs	r3, r6
    5de0:	0017      	movs	r7, r2
    5de2:	0026      	movs	r6, r4
    5de4:	000d      	movs	r5, r1
    5de6:	001c      	movs	r4, r3
    5de8:	1933      	adds	r3, r6, r4
    5dea:	4698      	mov	r8, r3
    5dec:	68bb      	ldr	r3, [r7, #8]
    5dee:	6879      	ldr	r1, [r7, #4]
    5df0:	4598      	cmp	r8, r3
    5df2:	dd00      	ble.n	5df6 <__multiply+0x32>
    5df4:	3101      	adds	r1, #1
    5df6:	f7ff ff1b 	bl	5c30 <_Balloc>
    5dfa:	2214      	movs	r2, #20
    5dfc:	0003      	movs	r3, r0
    5dfe:	4694      	mov	ip, r2
    5e00:	4463      	add	r3, ip
    5e02:	469b      	mov	fp, r3
    5e04:	4643      	mov	r3, r8
    5e06:	009b      	lsls	r3, r3, #2
    5e08:	445b      	add	r3, fp
    5e0a:	0019      	movs	r1, r3
    5e0c:	9302      	str	r3, [sp, #8]
    5e0e:	9003      	str	r0, [sp, #12]
    5e10:	465b      	mov	r3, fp
    5e12:	2200      	movs	r2, #0
    5e14:	458b      	cmp	fp, r1
    5e16:	d203      	bcs.n	5e20 <__multiply+0x5c>
    5e18:	9902      	ldr	r1, [sp, #8]
    5e1a:	c304      	stmia	r3!, {r2}
    5e1c:	4299      	cmp	r1, r3
    5e1e:	d8fc      	bhi.n	5e1a <__multiply+0x56>
    5e20:	2314      	movs	r3, #20
    5e22:	00a4      	lsls	r4, r4, #2
    5e24:	469a      	mov	sl, r3
    5e26:	3714      	adds	r7, #20
    5e28:	0023      	movs	r3, r4
    5e2a:	46bc      	mov	ip, r7
    5e2c:	44aa      	add	sl, r5
    5e2e:	00b6      	lsls	r6, r6, #2
    5e30:	4453      	add	r3, sl
    5e32:	9700      	str	r7, [sp, #0]
    5e34:	44b4      	add	ip, r6
    5e36:	9301      	str	r3, [sp, #4]
    5e38:	459a      	cmp	sl, r3
    5e3a:	d24f      	bcs.n	5edc <__multiply+0x118>
    5e3c:	4653      	mov	r3, sl
    5e3e:	681b      	ldr	r3, [r3, #0]
    5e40:	041e      	lsls	r6, r3, #16
    5e42:	0c36      	lsrs	r6, r6, #16
    5e44:	d020      	beq.n	5e88 <__multiply+0xc4>
    5e46:	465c      	mov	r4, fp
    5e48:	2700      	movs	r7, #0
    5e4a:	9d00      	ldr	r5, [sp, #0]
    5e4c:	0021      	movs	r1, r4
    5e4e:	cc08      	ldmia	r4!, {r3}
    5e50:	cd04      	ldmia	r5!, {r2}
    5e52:	4699      	mov	r9, r3
    5e54:	4648      	mov	r0, r9
    5e56:	0413      	lsls	r3, r2, #16
    5e58:	0c1b      	lsrs	r3, r3, #16
    5e5a:	4373      	muls	r3, r6
    5e5c:	0400      	lsls	r0, r0, #16
    5e5e:	0c00      	lsrs	r0, r0, #16
    5e60:	181b      	adds	r3, r3, r0
    5e62:	19d8      	adds	r0, r3, r7
    5e64:	0c13      	lsrs	r3, r2, #16
    5e66:	464a      	mov	r2, r9
    5e68:	4373      	muls	r3, r6
    5e6a:	0c12      	lsrs	r2, r2, #16
    5e6c:	189b      	adds	r3, r3, r2
    5e6e:	0c02      	lsrs	r2, r0, #16
    5e70:	189b      	adds	r3, r3, r2
    5e72:	0402      	lsls	r2, r0, #16
    5e74:	0c1f      	lsrs	r7, r3, #16
    5e76:	0c12      	lsrs	r2, r2, #16
    5e78:	041b      	lsls	r3, r3, #16
    5e7a:	4313      	orrs	r3, r2
    5e7c:	600b      	str	r3, [r1, #0]
    5e7e:	45ac      	cmp	ip, r5
    5e80:	d8e4      	bhi.n	5e4c <__multiply+0x88>
    5e82:	4653      	mov	r3, sl
    5e84:	6027      	str	r7, [r4, #0]
    5e86:	681b      	ldr	r3, [r3, #0]
    5e88:	0c1e      	lsrs	r6, r3, #16
    5e8a:	d020      	beq.n	5ece <__multiply+0x10a>
    5e8c:	465b      	mov	r3, fp
    5e8e:	2100      	movs	r1, #0
    5e90:	681b      	ldr	r3, [r3, #0]
    5e92:	465c      	mov	r4, fp
    5e94:	0018      	movs	r0, r3
    5e96:	000f      	movs	r7, r1
    5e98:	4662      	mov	r2, ip
    5e9a:	9d00      	ldr	r5, [sp, #0]
    5e9c:	8829      	ldrh	r1, [r5, #0]
    5e9e:	0c00      	lsrs	r0, r0, #16
    5ea0:	4371      	muls	r1, r6
    5ea2:	1809      	adds	r1, r1, r0
    5ea4:	19c9      	adds	r1, r1, r7
    5ea6:	041b      	lsls	r3, r3, #16
    5ea8:	0408      	lsls	r0, r1, #16
    5eaa:	0c1b      	lsrs	r3, r3, #16
    5eac:	4303      	orrs	r3, r0
    5eae:	6023      	str	r3, [r4, #0]
    5eb0:	cd08      	ldmia	r5!, {r3}
    5eb2:	6860      	ldr	r0, [r4, #4]
    5eb4:	0c1b      	lsrs	r3, r3, #16
    5eb6:	4373      	muls	r3, r6
    5eb8:	0407      	lsls	r7, r0, #16
    5eba:	0c3f      	lsrs	r7, r7, #16
    5ebc:	19db      	adds	r3, r3, r7
    5ebe:	0c09      	lsrs	r1, r1, #16
    5ec0:	185b      	adds	r3, r3, r1
    5ec2:	0c1f      	lsrs	r7, r3, #16
    5ec4:	3404      	adds	r4, #4
    5ec6:	42aa      	cmp	r2, r5
    5ec8:	d8e8      	bhi.n	5e9c <__multiply+0xd8>
    5eca:	4694      	mov	ip, r2
    5ecc:	6023      	str	r3, [r4, #0]
    5ece:	2304      	movs	r3, #4
    5ed0:	4699      	mov	r9, r3
    5ed2:	9b01      	ldr	r3, [sp, #4]
    5ed4:	44ca      	add	sl, r9
    5ed6:	44cb      	add	fp, r9
    5ed8:	4553      	cmp	r3, sl
    5eda:	d8af      	bhi.n	5e3c <__multiply+0x78>
    5edc:	4643      	mov	r3, r8
    5ede:	2b00      	cmp	r3, #0
    5ee0:	dd0e      	ble.n	5f00 <__multiply+0x13c>
    5ee2:	9b02      	ldr	r3, [sp, #8]
    5ee4:	3b04      	subs	r3, #4
    5ee6:	681a      	ldr	r2, [r3, #0]
    5ee8:	2a00      	cmp	r2, #0
    5eea:	d109      	bne.n	5f00 <__multiply+0x13c>
    5eec:	4642      	mov	r2, r8
    5eee:	e003      	b.n	5ef8 <__multiply+0x134>
    5ef0:	3b04      	subs	r3, #4
    5ef2:	6819      	ldr	r1, [r3, #0]
    5ef4:	2900      	cmp	r1, #0
    5ef6:	d102      	bne.n	5efe <__multiply+0x13a>
    5ef8:	3a01      	subs	r2, #1
    5efa:	2a00      	cmp	r2, #0
    5efc:	d1f8      	bne.n	5ef0 <__multiply+0x12c>
    5efe:	4690      	mov	r8, r2
    5f00:	9b03      	ldr	r3, [sp, #12]
    5f02:	4642      	mov	r2, r8
    5f04:	0018      	movs	r0, r3
    5f06:	611a      	str	r2, [r3, #16]
    5f08:	b005      	add	sp, #20
    5f0a:	bc3c      	pop	{r2, r3, r4, r5}
    5f0c:	4690      	mov	r8, r2
    5f0e:	4699      	mov	r9, r3
    5f10:	46a2      	mov	sl, r4
    5f12:	46ab      	mov	fp, r5
    5f14:	bdf0      	pop	{r4, r5, r6, r7, pc}
    5f16:	46c0      	nop			; (mov r8, r8)

00005f18 <__pow5mult>:
    5f18:	b5f8      	push	{r3, r4, r5, r6, r7, lr}
    5f1a:	4647      	mov	r7, r8
    5f1c:	46ce      	mov	lr, r9
    5f1e:	2303      	movs	r3, #3
    5f20:	b580      	push	{r7, lr}
    5f22:	4680      	mov	r8, r0
    5f24:	000f      	movs	r7, r1
    5f26:	0014      	movs	r4, r2
    5f28:	4013      	ands	r3, r2
    5f2a:	d13a      	bne.n	5fa2 <__pow5mult+0x8a>
    5f2c:	10a4      	asrs	r4, r4, #2
    5f2e:	003e      	movs	r6, r7
    5f30:	2c00      	cmp	r4, #0
    5f32:	d025      	beq.n	5f80 <__pow5mult+0x68>
    5f34:	4643      	mov	r3, r8
    5f36:	6c9d      	ldr	r5, [r3, #72]	; 0x48
    5f38:	2d00      	cmp	r5, #0
    5f3a:	d03b      	beq.n	5fb4 <__pow5mult+0x9c>
    5f3c:	003e      	movs	r6, r7
    5f3e:	2300      	movs	r3, #0
    5f40:	2701      	movs	r7, #1
    5f42:	4699      	mov	r9, r3
    5f44:	4227      	tst	r7, r4
    5f46:	d107      	bne.n	5f58 <__pow5mult+0x40>
    5f48:	1064      	asrs	r4, r4, #1
    5f4a:	d019      	beq.n	5f80 <__pow5mult+0x68>
    5f4c:	6828      	ldr	r0, [r5, #0]
    5f4e:	2800      	cmp	r0, #0
    5f50:	d01b      	beq.n	5f8a <__pow5mult+0x72>
    5f52:	0005      	movs	r5, r0
    5f54:	4227      	tst	r7, r4
    5f56:	d0f7      	beq.n	5f48 <__pow5mult+0x30>
    5f58:	002a      	movs	r2, r5
    5f5a:	0031      	movs	r1, r6
    5f5c:	4640      	mov	r0, r8
    5f5e:	f7ff ff31 	bl	5dc4 <__multiply>
    5f62:	2e00      	cmp	r6, #0
    5f64:	d01b      	beq.n	5f9e <__pow5mult+0x86>
    5f66:	4642      	mov	r2, r8
    5f68:	6cd2      	ldr	r2, [r2, #76]	; 0x4c
    5f6a:	6873      	ldr	r3, [r6, #4]
    5f6c:	4694      	mov	ip, r2
    5f6e:	009b      	lsls	r3, r3, #2
    5f70:	4463      	add	r3, ip
    5f72:	681a      	ldr	r2, [r3, #0]
    5f74:	1064      	asrs	r4, r4, #1
    5f76:	6032      	str	r2, [r6, #0]
    5f78:	601e      	str	r6, [r3, #0]
    5f7a:	0006      	movs	r6, r0
    5f7c:	2c00      	cmp	r4, #0
    5f7e:	d1e5      	bne.n	5f4c <__pow5mult+0x34>
    5f80:	0030      	movs	r0, r6
    5f82:	bc0c      	pop	{r2, r3}
    5f84:	4690      	mov	r8, r2
    5f86:	4699      	mov	r9, r3
    5f88:	bdf8      	pop	{r3, r4, r5, r6, r7, pc}
    5f8a:	002a      	movs	r2, r5
    5f8c:	0029      	movs	r1, r5
    5f8e:	4640      	mov	r0, r8
    5f90:	f7ff ff18 	bl	5dc4 <__multiply>
    5f94:	464b      	mov	r3, r9
    5f96:	6028      	str	r0, [r5, #0]
    5f98:	6003      	str	r3, [r0, #0]
    5f9a:	0005      	movs	r5, r0
    5f9c:	e7da      	b.n	5f54 <__pow5mult+0x3c>
    5f9e:	0006      	movs	r6, r0
    5fa0:	e7d2      	b.n	5f48 <__pow5mult+0x30>
    5fa2:	4a0b      	ldr	r2, [pc, #44]	; (5fd0 <__pow5mult+0xb8>)
    5fa4:	3b01      	subs	r3, #1
    5fa6:	009b      	lsls	r3, r3, #2
    5fa8:	589a      	ldr	r2, [r3, r2]
    5faa:	2300      	movs	r3, #0
    5fac:	f7ff fe72 	bl	5c94 <__multadd>
    5fb0:	0007      	movs	r7, r0
    5fb2:	e7bb      	b.n	5f2c <__pow5mult+0x14>
    5fb4:	2101      	movs	r1, #1
    5fb6:	4640      	mov	r0, r8
    5fb8:	f7ff fe3a 	bl	5c30 <_Balloc>
    5fbc:	4b05      	ldr	r3, [pc, #20]	; (5fd4 <__pow5mult+0xbc>)
    5fbe:	0005      	movs	r5, r0
    5fc0:	6143      	str	r3, [r0, #20]
    5fc2:	2301      	movs	r3, #1
    5fc4:	6103      	str	r3, [r0, #16]
    5fc6:	4643      	mov	r3, r8
    5fc8:	6498      	str	r0, [r3, #72]	; 0x48
    5fca:	2300      	movs	r3, #0
    5fcc:	6003      	str	r3, [r0, #0]
    5fce:	e7b5      	b.n	5f3c <__pow5mult+0x24>
    5fd0:	00008df0 	.word	0x00008df0
    5fd4:	00000271 	.word	0x00000271

00005fd8 <__lshift>:
    5fd8:	b5f8      	push	{r3, r4, r5, r6, r7, lr}
    5fda:	464e      	mov	r6, r9
    5fdc:	4645      	mov	r5, r8
    5fde:	46de      	mov	lr, fp
    5fe0:	4657      	mov	r7, sl
    5fe2:	b5e0      	push	{r5, r6, r7, lr}
    5fe4:	000e      	movs	r6, r1
    5fe6:	6933      	ldr	r3, [r6, #16]
    5fe8:	1154      	asrs	r4, r2, #5
    5fea:	4698      	mov	r8, r3
    5fec:	44a0      	add	r8, r4
    5fee:	4643      	mov	r3, r8
    5ff0:	1c5d      	adds	r5, r3, #1
    5ff2:	68b3      	ldr	r3, [r6, #8]
    5ff4:	4683      	mov	fp, r0
    5ff6:	4691      	mov	r9, r2
    5ff8:	6849      	ldr	r1, [r1, #4]
    5ffa:	429d      	cmp	r5, r3
    5ffc:	dd03      	ble.n	6006 <__lshift+0x2e>
    5ffe:	3101      	adds	r1, #1
    6000:	005b      	lsls	r3, r3, #1
    6002:	429d      	cmp	r5, r3
    6004:	dcfb      	bgt.n	5ffe <__lshift+0x26>
    6006:	4658      	mov	r0, fp
    6008:	f7ff fe12 	bl	5c30 <_Balloc>
    600c:	0003      	movs	r3, r0
    600e:	4684      	mov	ip, r0
    6010:	3314      	adds	r3, #20
    6012:	2c00      	cmp	r4, #0
    6014:	dd06      	ble.n	6024 <__lshift+0x4c>
    6016:	2100      	movs	r1, #0
    6018:	00a4      	lsls	r4, r4, #2
    601a:	001a      	movs	r2, r3
    601c:	191b      	adds	r3, r3, r4
    601e:	c202      	stmia	r2!, {r1}
    6020:	4293      	cmp	r3, r2
    6022:	d1fc      	bne.n	601e <__lshift+0x46>
    6024:	6932      	ldr	r2, [r6, #16]
    6026:	4648      	mov	r0, r9
    6028:	0097      	lsls	r7, r2, #2
    602a:	0031      	movs	r1, r6
    602c:	221f      	movs	r2, #31
    602e:	3114      	adds	r1, #20
    6030:	4010      	ands	r0, r2
    6032:	19cf      	adds	r7, r1, r7
    6034:	4681      	mov	r9, r0
    6036:	2800      	cmp	r0, #0
    6038:	d025      	beq.n	6086 <__lshift+0xae>
    603a:	2220      	movs	r2, #32
    603c:	1a12      	subs	r2, r2, r0
    603e:	4692      	mov	sl, r2
    6040:	2200      	movs	r2, #0
    6042:	4648      	mov	r0, r9
    6044:	680c      	ldr	r4, [r1, #0]
    6046:	4084      	lsls	r4, r0
    6048:	4650      	mov	r0, sl
    604a:	4314      	orrs	r4, r2
    604c:	601c      	str	r4, [r3, #0]
    604e:	c904      	ldmia	r1!, {r2}
    6050:	3304      	adds	r3, #4
    6052:	40c2      	lsrs	r2, r0
    6054:	428f      	cmp	r7, r1
    6056:	d8f4      	bhi.n	6042 <__lshift+0x6a>
    6058:	601a      	str	r2, [r3, #0]
    605a:	2a00      	cmp	r2, #0
    605c:	d001      	beq.n	6062 <__lshift+0x8a>
    605e:	4645      	mov	r5, r8
    6060:	3502      	adds	r5, #2
    6062:	4663      	mov	r3, ip
    6064:	3d01      	subs	r5, #1
    6066:	611d      	str	r5, [r3, #16]
    6068:	6873      	ldr	r3, [r6, #4]
    606a:	4660      	mov	r0, ip
    606c:	009a      	lsls	r2, r3, #2
    606e:	465b      	mov	r3, fp
    6070:	6cdb      	ldr	r3, [r3, #76]	; 0x4c
    6072:	189b      	adds	r3, r3, r2
    6074:	681a      	ldr	r2, [r3, #0]
    6076:	6032      	str	r2, [r6, #0]
    6078:	601e      	str	r6, [r3, #0]
    607a:	bc3c      	pop	{r2, r3, r4, r5}
    607c:	4690      	mov	r8, r2
    607e:	4699      	mov	r9, r3
    6080:	46a2      	mov	sl, r4
    6082:	46ab      	mov	fp, r5
    6084:	bdf8      	pop	{r3, r4, r5, r6, r7, pc}
    6086:	c904      	ldmia	r1!, {r2}
    6088:	c304      	stmia	r3!, {r2}
    608a:	428f      	cmp	r7, r1
    608c:	d9e9      	bls.n	6062 <__lshift+0x8a>
    608e:	c904      	ldmia	r1!, {r2}
    6090:	c304      	stmia	r3!, {r2}
    6092:	428f      	cmp	r7, r1
    6094:	d8f7      	bhi.n	6086 <__lshift+0xae>
    6096:	e7e4      	b.n	6062 <__lshift+0x8a>

00006098 <__mcmp>:
    6098:	690a      	ldr	r2, [r1, #16]
    609a:	6903      	ldr	r3, [r0, #16]
    609c:	b530      	push	{r4, r5, lr}
    609e:	0005      	movs	r5, r0
    60a0:	1a98      	subs	r0, r3, r2
    60a2:	d111      	bne.n	60c8 <__mcmp+0x30>
    60a4:	0092      	lsls	r2, r2, #2
    60a6:	3514      	adds	r5, #20
    60a8:	3114      	adds	r1, #20
    60aa:	18ab      	adds	r3, r5, r2
    60ac:	1889      	adds	r1, r1, r2
    60ae:	e001      	b.n	60b4 <__mcmp+0x1c>
    60b0:	429d      	cmp	r5, r3
    60b2:	d209      	bcs.n	60c8 <__mcmp+0x30>
    60b4:	3b04      	subs	r3, #4
    60b6:	3904      	subs	r1, #4
    60b8:	681c      	ldr	r4, [r3, #0]
    60ba:	680a      	ldr	r2, [r1, #0]
    60bc:	4294      	cmp	r4, r2
    60be:	d0f7      	beq.n	60b0 <__mcmp+0x18>
    60c0:	4294      	cmp	r4, r2
    60c2:	4180      	sbcs	r0, r0
    60c4:	2201      	movs	r2, #1
    60c6:	4310      	orrs	r0, r2
    60c8:	bd30      	pop	{r4, r5, pc}
    60ca:	46c0      	nop			; (mov r8, r8)

000060cc <__mdiff>:
    60cc:	b5f8      	push	{r3, r4, r5, r6, r7, lr}
    60ce:	4645      	mov	r5, r8
    60d0:	46de      	mov	lr, fp
    60d2:	4657      	mov	r7, sl
    60d4:	464e      	mov	r6, r9
    60d6:	0014      	movs	r4, r2
    60d8:	690b      	ldr	r3, [r1, #16]
    60da:	6912      	ldr	r2, [r2, #16]
    60dc:	b5e0      	push	{r5, r6, r7, lr}
    60de:	4688      	mov	r8, r1
    60e0:	1a9d      	subs	r5, r3, r2
    60e2:	d11a      	bne.n	611a <__mdiff+0x4e>
    60e4:	000f      	movs	r7, r1
    60e6:	2114      	movs	r1, #20
    60e8:	468c      	mov	ip, r1
    60ea:	0092      	lsls	r2, r2, #2
    60ec:	3714      	adds	r7, #20
    60ee:	44a4      	add	ip, r4
    60f0:	18bb      	adds	r3, r7, r2
    60f2:	4462      	add	r2, ip
    60f4:	e002      	b.n	60fc <__mdiff+0x30>
    60f6:	429f      	cmp	r7, r3
    60f8:	d300      	bcc.n	60fc <__mdiff+0x30>
    60fa:	e070      	b.n	61de <__mdiff+0x112>
    60fc:	3b04      	subs	r3, #4
    60fe:	3a04      	subs	r2, #4
    6100:	681e      	ldr	r6, [r3, #0]
    6102:	6811      	ldr	r1, [r2, #0]
    6104:	428e      	cmp	r6, r1
    6106:	d0f6      	beq.n	60f6 <__mdiff+0x2a>
    6108:	d300      	bcc.n	610c <__mdiff+0x40>
    610a:	e071      	b.n	61f0 <__mdiff+0x124>
    610c:	4643      	mov	r3, r8
    610e:	003e      	movs	r6, r7
    6110:	46a0      	mov	r8, r4
    6112:	4667      	mov	r7, ip
    6114:	001c      	movs	r4, r3
    6116:	2501      	movs	r5, #1
    6118:	e006      	b.n	6128 <__mdiff+0x5c>
    611a:	2d00      	cmp	r5, #0
    611c:	db6a      	blt.n	61f4 <__mdiff+0x128>
    611e:	4647      	mov	r7, r8
    6120:	0026      	movs	r6, r4
    6122:	2500      	movs	r5, #0
    6124:	3714      	adds	r7, #20
    6126:	3614      	adds	r6, #20
    6128:	4643      	mov	r3, r8
    612a:	6859      	ldr	r1, [r3, #4]
    612c:	f7ff fd80 	bl	5c30 <_Balloc>
    6130:	4643      	mov	r3, r8
    6132:	4681      	mov	r9, r0
    6134:	60c5      	str	r5, [r0, #12]
    6136:	6918      	ldr	r0, [r3, #16]
    6138:	464d      	mov	r5, r9
    613a:	0083      	lsls	r3, r0, #2
    613c:	469c      	mov	ip, r3
    613e:	6923      	ldr	r3, [r4, #16]
    6140:	44bc      	add	ip, r7
    6142:	009b      	lsls	r3, r3, #2
    6144:	4698      	mov	r8, r3
    6146:	2300      	movs	r3, #0
    6148:	44b0      	add	r8, r6
    614a:	3514      	adds	r5, #20
    614c:	469a      	mov	sl, r3
    614e:	e000      	b.n	6152 <__mdiff+0x86>
    6150:	0027      	movs	r7, r4
    6152:	ce04      	ldmia	r6!, {r2}
    6154:	003c      	movs	r4, r7
    6156:	4693      	mov	fp, r2
    6158:	4659      	mov	r1, fp
    615a:	cc08      	ldmia	r4!, {r3}
    615c:	0409      	lsls	r1, r1, #16
    615e:	041a      	lsls	r2, r3, #16
    6160:	0c12      	lsrs	r2, r2, #16
    6162:	4452      	add	r2, sl
    6164:	0c09      	lsrs	r1, r1, #16
    6166:	1a52      	subs	r2, r2, r1
    6168:	0c19      	lsrs	r1, r3, #16
    616a:	465b      	mov	r3, fp
    616c:	0c1b      	lsrs	r3, r3, #16
    616e:	1acb      	subs	r3, r1, r3
    6170:	1411      	asrs	r1, r2, #16
    6172:	185b      	adds	r3, r3, r1
    6174:	0412      	lsls	r2, r2, #16
    6176:	1419      	asrs	r1, r3, #16
    6178:	0c12      	lsrs	r2, r2, #16
    617a:	041b      	lsls	r3, r3, #16
    617c:	468a      	mov	sl, r1
    617e:	4313      	orrs	r3, r2
    6180:	1d29      	adds	r1, r5, #4
    6182:	602b      	str	r3, [r5, #0]
    6184:	000d      	movs	r5, r1
    6186:	45b0      	cmp	r8, r6
    6188:	d8e2      	bhi.n	6150 <__mdiff+0x84>
    618a:	45a4      	cmp	ip, r4
    618c:	d916      	bls.n	61bc <__mdiff+0xf0>
    618e:	cc08      	ldmia	r4!, {r3}
    6190:	041a      	lsls	r2, r3, #16
    6192:	0c12      	lsrs	r2, r2, #16
    6194:	4452      	add	r2, sl
    6196:	1416      	asrs	r6, r2, #16
    6198:	0c1b      	lsrs	r3, r3, #16
    619a:	199b      	adds	r3, r3, r6
    619c:	0412      	lsls	r2, r2, #16
    619e:	141e      	asrs	r6, r3, #16
    61a0:	0c12      	lsrs	r2, r2, #16
    61a2:	041b      	lsls	r3, r3, #16
    61a4:	4313      	orrs	r3, r2
    61a6:	46b2      	mov	sl, r6
    61a8:	c508      	stmia	r5!, {r3}
    61aa:	45a4      	cmp	ip, r4
    61ac:	d8ef      	bhi.n	618e <__mdiff+0xc2>
    61ae:	4662      	mov	r2, ip
    61b0:	2403      	movs	r4, #3
    61b2:	1bd2      	subs	r2, r2, r7
    61b4:	3a05      	subs	r2, #5
    61b6:	43a2      	bics	r2, r4
    61b8:	3204      	adds	r2, #4
    61ba:	1889      	adds	r1, r1, r2
    61bc:	3904      	subs	r1, #4
    61be:	2b00      	cmp	r3, #0
    61c0:	d104      	bne.n	61cc <__mdiff+0x100>
    61c2:	3904      	subs	r1, #4
    61c4:	680b      	ldr	r3, [r1, #0]
    61c6:	3801      	subs	r0, #1
    61c8:	2b00      	cmp	r3, #0
    61ca:	d0fa      	beq.n	61c2 <__mdiff+0xf6>
    61cc:	464b      	mov	r3, r9
    61ce:	6118      	str	r0, [r3, #16]
    61d0:	4648      	mov	r0, r9
    61d2:	bc3c      	pop	{r2, r3, r4, r5}
    61d4:	4690      	mov	r8, r2
    61d6:	4699      	mov	r9, r3
    61d8:	46a2      	mov	sl, r4
    61da:	46ab      	mov	fp, r5
    61dc:	bdf8      	pop	{r3, r4, r5, r6, r7, pc}
    61de:	2100      	movs	r1, #0
    61e0:	f7ff fd26 	bl	5c30 <_Balloc>
    61e4:	2301      	movs	r3, #1
    61e6:	6103      	str	r3, [r0, #16]
    61e8:	2300      	movs	r3, #0
    61ea:	4681      	mov	r9, r0
    61ec:	6143      	str	r3, [r0, #20]
    61ee:	e7ef      	b.n	61d0 <__mdiff+0x104>
    61f0:	4666      	mov	r6, ip
    61f2:	e799      	b.n	6128 <__mdiff+0x5c>
    61f4:	0027      	movs	r7, r4
    61f6:	000e      	movs	r6, r1
    61f8:	46a0      	mov	r8, r4
    61fa:	3714      	adds	r7, #20
    61fc:	3614      	adds	r6, #20
    61fe:	000c      	movs	r4, r1
    6200:	2501      	movs	r5, #1
    6202:	e791      	b.n	6128 <__mdiff+0x5c>

00006204 <__d2b>:
    6204:	b5f0      	push	{r4, r5, r6, r7, lr}
    6206:	2101      	movs	r1, #1
    6208:	001c      	movs	r4, r3
    620a:	b083      	sub	sp, #12
    620c:	9e08      	ldr	r6, [sp, #32]
    620e:	0015      	movs	r5, r2
    6210:	f7ff fd0e 	bl	5c30 <_Balloc>
    6214:	0323      	lsls	r3, r4, #12
    6216:	0064      	lsls	r4, r4, #1
    6218:	0007      	movs	r7, r0
    621a:	0b1b      	lsrs	r3, r3, #12
    621c:	0d64      	lsrs	r4, r4, #21
    621e:	d002      	beq.n	6226 <__d2b+0x22>
    6220:	2280      	movs	r2, #128	; 0x80
    6222:	0352      	lsls	r2, r2, #13
    6224:	4313      	orrs	r3, r2
    6226:	9301      	str	r3, [sp, #4]
    6228:	2d00      	cmp	r5, #0
    622a:	d019      	beq.n	6260 <__d2b+0x5c>
    622c:	4668      	mov	r0, sp
    622e:	9500      	str	r5, [sp, #0]
    6230:	f7ff fd90 	bl	5d54 <__lo0bits>
    6234:	2800      	cmp	r0, #0
    6236:	d130      	bne.n	629a <__d2b+0x96>
    6238:	9b00      	ldr	r3, [sp, #0]
    623a:	617b      	str	r3, [r7, #20]
    623c:	9b01      	ldr	r3, [sp, #4]
    623e:	61bb      	str	r3, [r7, #24]
    6240:	1e5a      	subs	r2, r3, #1
    6242:	4193      	sbcs	r3, r2
    6244:	1c5d      	adds	r5, r3, #1
    6246:	613d      	str	r5, [r7, #16]
    6248:	2c00      	cmp	r4, #0
    624a:	d014      	beq.n	6276 <__d2b+0x72>
    624c:	4b19      	ldr	r3, [pc, #100]	; (62b4 <__d2b+0xb0>)
    624e:	469c      	mov	ip, r3
    6250:	2335      	movs	r3, #53	; 0x35
    6252:	4464      	add	r4, ip
    6254:	1824      	adds	r4, r4, r0
    6256:	1a18      	subs	r0, r3, r0
    6258:	9b09      	ldr	r3, [sp, #36]	; 0x24
    625a:	6034      	str	r4, [r6, #0]
    625c:	6018      	str	r0, [r3, #0]
    625e:	e019      	b.n	6294 <__d2b+0x90>
    6260:	a801      	add	r0, sp, #4
    6262:	f7ff fd77 	bl	5d54 <__lo0bits>
    6266:	9b01      	ldr	r3, [sp, #4]
    6268:	3020      	adds	r0, #32
    626a:	617b      	str	r3, [r7, #20]
    626c:	2301      	movs	r3, #1
    626e:	2501      	movs	r5, #1
    6270:	613b      	str	r3, [r7, #16]
    6272:	2c00      	cmp	r4, #0
    6274:	d1ea      	bne.n	624c <__d2b+0x48>
    6276:	4b10      	ldr	r3, [pc, #64]	; (62b8 <__d2b+0xb4>)
    6278:	469c      	mov	ip, r3
    627a:	4b10      	ldr	r3, [pc, #64]	; (62bc <__d2b+0xb8>)
    627c:	4460      	add	r0, ip
    627e:	18eb      	adds	r3, r5, r3
    6280:	009b      	lsls	r3, r3, #2
    6282:	18fb      	adds	r3, r7, r3
    6284:	6030      	str	r0, [r6, #0]
    6286:	6958      	ldr	r0, [r3, #20]
    6288:	f7ff fd4a 	bl	5d20 <__hi0bits>
    628c:	016b      	lsls	r3, r5, #5
    628e:	1a18      	subs	r0, r3, r0
    6290:	9b09      	ldr	r3, [sp, #36]	; 0x24
    6292:	6018      	str	r0, [r3, #0]
    6294:	0038      	movs	r0, r7
    6296:	b003      	add	sp, #12
    6298:	bdf0      	pop	{r4, r5, r6, r7, pc}
    629a:	9b01      	ldr	r3, [sp, #4]
    629c:	2220      	movs	r2, #32
    629e:	0019      	movs	r1, r3
    62a0:	1a12      	subs	r2, r2, r0
    62a2:	4091      	lsls	r1, r2
    62a4:	000a      	movs	r2, r1
    62a6:	40c3      	lsrs	r3, r0
    62a8:	9900      	ldr	r1, [sp, #0]
    62aa:	9301      	str	r3, [sp, #4]
    62ac:	430a      	orrs	r2, r1
    62ae:	617a      	str	r2, [r7, #20]
    62b0:	e7c5      	b.n	623e <__d2b+0x3a>
    62b2:	46c0      	nop			; (mov r8, r8)
    62b4:	fffffbcd 	.word	0xfffffbcd
    62b8:	fffffbce 	.word	0xfffffbce
    62bc:	3fffffff 	.word	0x3fffffff

000062c0 <_sbrk_r>:
    62c0:	2300      	movs	r3, #0
    62c2:	b570      	push	{r4, r5, r6, lr}
    62c4:	4c06      	ldr	r4, [pc, #24]	; (62e0 <_sbrk_r+0x20>)
    62c6:	0005      	movs	r5, r0
    62c8:	0008      	movs	r0, r1
    62ca:	6023      	str	r3, [r4, #0]
    62cc:	f7fb ff88 	bl	21e0 <_sbrk>
    62d0:	1c43      	adds	r3, r0, #1
    62d2:	d000      	beq.n	62d6 <_sbrk_r+0x16>
    62d4:	bd70      	pop	{r4, r5, r6, pc}
    62d6:	6823      	ldr	r3, [r4, #0]
    62d8:	2b00      	cmp	r3, #0
    62da:	d0fb      	beq.n	62d4 <_sbrk_r+0x14>
    62dc:	602b      	str	r3, [r5, #0]
    62de:	e7f9      	b.n	62d4 <_sbrk_r+0x14>
    62e0:	20000a28 	.word	0x20000a28

000062e4 <strlen>:
    62e4:	b510      	push	{r4, lr}
    62e6:	0783      	lsls	r3, r0, #30
    62e8:	d025      	beq.n	6336 <strlen+0x52>
    62ea:	7803      	ldrb	r3, [r0, #0]
    62ec:	2b00      	cmp	r3, #0
    62ee:	d024      	beq.n	633a <strlen+0x56>
    62f0:	0003      	movs	r3, r0
    62f2:	2103      	movs	r1, #3
    62f4:	e002      	b.n	62fc <strlen+0x18>
    62f6:	781a      	ldrb	r2, [r3, #0]
    62f8:	2a00      	cmp	r2, #0
    62fa:	d01a      	beq.n	6332 <strlen+0x4e>
    62fc:	3301      	adds	r3, #1
    62fe:	420b      	tst	r3, r1
    6300:	d1f9      	bne.n	62f6 <strlen+0x12>
    6302:	6819      	ldr	r1, [r3, #0]
    6304:	4a0e      	ldr	r2, [pc, #56]	; (6340 <strlen+0x5c>)
    6306:	4c0f      	ldr	r4, [pc, #60]	; (6344 <strlen+0x60>)
    6308:	188a      	adds	r2, r1, r2
    630a:	438a      	bics	r2, r1
    630c:	4222      	tst	r2, r4
    630e:	d106      	bne.n	631e <strlen+0x3a>
    6310:	3304      	adds	r3, #4
    6312:	6819      	ldr	r1, [r3, #0]
    6314:	4a0a      	ldr	r2, [pc, #40]	; (6340 <strlen+0x5c>)
    6316:	188a      	adds	r2, r1, r2
    6318:	438a      	bics	r2, r1
    631a:	4222      	tst	r2, r4
    631c:	d0f8      	beq.n	6310 <strlen+0x2c>
    631e:	001a      	movs	r2, r3
    6320:	781b      	ldrb	r3, [r3, #0]
    6322:	2b00      	cmp	r3, #0
    6324:	d003      	beq.n	632e <strlen+0x4a>
    6326:	3201      	adds	r2, #1
    6328:	7811      	ldrb	r1, [r2, #0]
    632a:	2900      	cmp	r1, #0
    632c:	d1fb      	bne.n	6326 <strlen+0x42>
    632e:	1a10      	subs	r0, r2, r0
    6330:	bd10      	pop	{r4, pc}
    6332:	1a18      	subs	r0, r3, r0
    6334:	e7fc      	b.n	6330 <strlen+0x4c>
    6336:	0003      	movs	r3, r0
    6338:	e7e3      	b.n	6302 <strlen+0x1e>
    633a:	2000      	movs	r0, #0
    633c:	e7f8      	b.n	6330 <strlen+0x4c>
    633e:	46c0      	nop			; (mov r8, r8)
    6340:	fefefeff 	.word	0xfefefeff
    6344:	80808080 	.word	0x80808080

00006348 <__ssprint_r>:
    6348:	b5f0      	push	{r4, r5, r6, r7, lr}
    634a:	4657      	mov	r7, sl
    634c:	464e      	mov	r6, r9
    634e:	46de      	mov	lr, fp
    6350:	4645      	mov	r5, r8
    6352:	b5e0      	push	{r5, r6, r7, lr}
    6354:	6893      	ldr	r3, [r2, #8]
    6356:	b083      	sub	sp, #12
    6358:	9001      	str	r0, [sp, #4]
    635a:	000e      	movs	r6, r1
    635c:	4692      	mov	sl, r2
    635e:	2b00      	cmp	r3, #0
    6360:	d070      	beq.n	6444 <__ssprint_r+0xfc>
    6362:	688d      	ldr	r5, [r1, #8]
    6364:	6813      	ldr	r3, [r2, #0]
    6366:	002c      	movs	r4, r5
    6368:	6808      	ldr	r0, [r1, #0]
    636a:	001d      	movs	r5, r3
    636c:	e046      	b.n	63fc <__ssprint_r+0xb4>
    636e:	2290      	movs	r2, #144	; 0x90
    6370:	89b3      	ldrh	r3, [r6, #12]
    6372:	00d2      	lsls	r2, r2, #3
    6374:	4213      	tst	r3, r2
    6376:	d030      	beq.n	63da <__ssprint_r+0x92>
    6378:	6931      	ldr	r1, [r6, #16]
    637a:	1a42      	subs	r2, r0, r1
    637c:	4693      	mov	fp, r2
    637e:	6970      	ldr	r0, [r6, #20]
    6380:	0042      	lsls	r2, r0, #1
    6382:	1812      	adds	r2, r2, r0
    6384:	0fd0      	lsrs	r0, r2, #31
    6386:	1882      	adds	r2, r0, r2
    6388:	1052      	asrs	r2, r2, #1
    638a:	4690      	mov	r8, r2
    638c:	465a      	mov	r2, fp
    638e:	1c50      	adds	r0, r2, #1
    6390:	19c0      	adds	r0, r0, r7
    6392:	4642      	mov	r2, r8
    6394:	4540      	cmp	r0, r8
    6396:	d901      	bls.n	639c <__ssprint_r+0x54>
    6398:	4680      	mov	r8, r0
    639a:	0002      	movs	r2, r0
    639c:	2080      	movs	r0, #128	; 0x80
    639e:	00c0      	lsls	r0, r0, #3
    63a0:	4203      	tst	r3, r0
    63a2:	d038      	beq.n	6416 <__ssprint_r+0xce>
    63a4:	0011      	movs	r1, r2
    63a6:	9801      	ldr	r0, [sp, #4]
    63a8:	f7ff f8fc 	bl	55a4 <_malloc_r>
    63ac:	1e04      	subs	r4, r0, #0
    63ae:	d054      	beq.n	645a <__ssprint_r+0x112>
    63b0:	465a      	mov	r2, fp
    63b2:	6931      	ldr	r1, [r6, #16]
    63b4:	f7ff fbea 	bl	5b8c <memcpy>
    63b8:	89b3      	ldrh	r3, [r6, #12]
    63ba:	4a2a      	ldr	r2, [pc, #168]	; (6464 <__ssprint_r+0x11c>)
    63bc:	4013      	ands	r3, r2
    63be:	2280      	movs	r2, #128	; 0x80
    63c0:	4313      	orrs	r3, r2
    63c2:	81b3      	strh	r3, [r6, #12]
    63c4:	4643      	mov	r3, r8
    63c6:	0020      	movs	r0, r4
    63c8:	465a      	mov	r2, fp
    63ca:	6134      	str	r4, [r6, #16]
    63cc:	46b8      	mov	r8, r7
    63ce:	003c      	movs	r4, r7
    63d0:	4458      	add	r0, fp
    63d2:	6173      	str	r3, [r6, #20]
    63d4:	1a9b      	subs	r3, r3, r2
    63d6:	6030      	str	r0, [r6, #0]
    63d8:	60b3      	str	r3, [r6, #8]
    63da:	4642      	mov	r2, r8
    63dc:	4649      	mov	r1, r9
    63de:	f000 fa2d 	bl	683c <memmove>
    63e2:	68b3      	ldr	r3, [r6, #8]
    63e4:	1b1c      	subs	r4, r3, r4
    63e6:	6833      	ldr	r3, [r6, #0]
    63e8:	60b4      	str	r4, [r6, #8]
    63ea:	4443      	add	r3, r8
    63ec:	6033      	str	r3, [r6, #0]
    63ee:	0018      	movs	r0, r3
    63f0:	4653      	mov	r3, sl
    63f2:	689b      	ldr	r3, [r3, #8]
    63f4:	1bdf      	subs	r7, r3, r7
    63f6:	4653      	mov	r3, sl
    63f8:	609f      	str	r7, [r3, #8]
    63fa:	d023      	beq.n	6444 <__ssprint_r+0xfc>
    63fc:	686f      	ldr	r7, [r5, #4]
    63fe:	002b      	movs	r3, r5
    6400:	3508      	adds	r5, #8
    6402:	2f00      	cmp	r7, #0
    6404:	d0fa      	beq.n	63fc <__ssprint_r+0xb4>
    6406:	681b      	ldr	r3, [r3, #0]
    6408:	46a0      	mov	r8, r4
    640a:	4699      	mov	r9, r3
    640c:	42a7      	cmp	r7, r4
    640e:	d2ae      	bcs.n	636e <__ssprint_r+0x26>
    6410:	003c      	movs	r4, r7
    6412:	46b8      	mov	r8, r7
    6414:	e7e1      	b.n	63da <__ssprint_r+0x92>
    6416:	9801      	ldr	r0, [sp, #4]
    6418:	f000 fa60 	bl	68dc <_realloc_r>
    641c:	1e04      	subs	r4, r0, #0
    641e:	d1d1      	bne.n	63c4 <__ssprint_r+0x7c>
    6420:	9c01      	ldr	r4, [sp, #4]
    6422:	6931      	ldr	r1, [r6, #16]
    6424:	0020      	movs	r0, r4
    6426:	f000 f915 	bl	6654 <_free_r>
    642a:	230c      	movs	r3, #12
    642c:	6023      	str	r3, [r4, #0]
    642e:	2240      	movs	r2, #64	; 0x40
    6430:	89b3      	ldrh	r3, [r6, #12]
    6432:	2001      	movs	r0, #1
    6434:	4313      	orrs	r3, r2
    6436:	81b3      	strh	r3, [r6, #12]
    6438:	4652      	mov	r2, sl
    643a:	2300      	movs	r3, #0
    643c:	4240      	negs	r0, r0
    643e:	6093      	str	r3, [r2, #8]
    6440:	6053      	str	r3, [r2, #4]
    6442:	e003      	b.n	644c <__ssprint_r+0x104>
    6444:	2300      	movs	r3, #0
    6446:	4652      	mov	r2, sl
    6448:	2000      	movs	r0, #0
    644a:	6053      	str	r3, [r2, #4]
    644c:	b003      	add	sp, #12
    644e:	bc3c      	pop	{r2, r3, r4, r5}
    6450:	4690      	mov	r8, r2
    6452:	4699      	mov	r9, r3
    6454:	46a2      	mov	sl, r4
    6456:	46ab      	mov	fp, r5
    6458:	bdf0      	pop	{r4, r5, r6, r7, pc}
    645a:	230c      	movs	r3, #12
    645c:	9a01      	ldr	r2, [sp, #4]
    645e:	6013      	str	r3, [r2, #0]
    6460:	e7e5      	b.n	642e <__ssprint_r+0xe6>
    6462:	46c0      	nop			; (mov r8, r8)
    6464:	fffffb7f 	.word	0xfffffb7f

00006468 <__register_exitproc>:
    6468:	b5f0      	push	{r4, r5, r6, r7, lr}
    646a:	464e      	mov	r6, r9
    646c:	4645      	mov	r5, r8
    646e:	46de      	mov	lr, fp
    6470:	4657      	mov	r7, sl
    6472:	b5e0      	push	{r5, r6, r7, lr}
    6474:	4d36      	ldr	r5, [pc, #216]	; (6550 <__register_exitproc+0xe8>)
    6476:	b083      	sub	sp, #12
    6478:	0006      	movs	r6, r0
    647a:	6828      	ldr	r0, [r5, #0]
    647c:	4698      	mov	r8, r3
    647e:	000f      	movs	r7, r1
    6480:	4691      	mov	r9, r2
    6482:	f7ff f88b 	bl	559c <__retarget_lock_acquire_recursive>
    6486:	4b33      	ldr	r3, [pc, #204]	; (6554 <__register_exitproc+0xec>)
    6488:	681c      	ldr	r4, [r3, #0]
    648a:	23a4      	movs	r3, #164	; 0xa4
    648c:	005b      	lsls	r3, r3, #1
    648e:	58e0      	ldr	r0, [r4, r3]
    6490:	2800      	cmp	r0, #0
    6492:	d052      	beq.n	653a <__register_exitproc+0xd2>
    6494:	6843      	ldr	r3, [r0, #4]
    6496:	2b1f      	cmp	r3, #31
    6498:	dc13      	bgt.n	64c2 <__register_exitproc+0x5a>
    649a:	1c5a      	adds	r2, r3, #1
    649c:	9201      	str	r2, [sp, #4]
    649e:	2e00      	cmp	r6, #0
    64a0:	d128      	bne.n	64f4 <__register_exitproc+0x8c>
    64a2:	9a01      	ldr	r2, [sp, #4]
    64a4:	3302      	adds	r3, #2
    64a6:	009b      	lsls	r3, r3, #2
    64a8:	6042      	str	r2, [r0, #4]
    64aa:	501f      	str	r7, [r3, r0]
    64ac:	6828      	ldr	r0, [r5, #0]
    64ae:	f7ff f877 	bl	55a0 <__retarget_lock_release_recursive>
    64b2:	2000      	movs	r0, #0
    64b4:	b003      	add	sp, #12
    64b6:	bc3c      	pop	{r2, r3, r4, r5}
    64b8:	4690      	mov	r8, r2
    64ba:	4699      	mov	r9, r3
    64bc:	46a2      	mov	sl, r4
    64be:	46ab      	mov	fp, r5
    64c0:	bdf0      	pop	{r4, r5, r6, r7, pc}
    64c2:	4b25      	ldr	r3, [pc, #148]	; (6558 <__register_exitproc+0xf0>)
    64c4:	2b00      	cmp	r3, #0
    64c6:	d03d      	beq.n	6544 <__register_exitproc+0xdc>
    64c8:	20c8      	movs	r0, #200	; 0xc8
    64ca:	0040      	lsls	r0, r0, #1
    64cc:	e000      	b.n	64d0 <__register_exitproc+0x68>
    64ce:	bf00      	nop
    64d0:	2800      	cmp	r0, #0
    64d2:	d037      	beq.n	6544 <__register_exitproc+0xdc>
    64d4:	22a4      	movs	r2, #164	; 0xa4
    64d6:	2300      	movs	r3, #0
    64d8:	0052      	lsls	r2, r2, #1
    64da:	58a1      	ldr	r1, [r4, r2]
    64dc:	6043      	str	r3, [r0, #4]
    64de:	6001      	str	r1, [r0, #0]
    64e0:	50a0      	str	r0, [r4, r2]
    64e2:	3240      	adds	r2, #64	; 0x40
    64e4:	5083      	str	r3, [r0, r2]
    64e6:	3204      	adds	r2, #4
    64e8:	5083      	str	r3, [r0, r2]
    64ea:	3301      	adds	r3, #1
    64ec:	9301      	str	r3, [sp, #4]
    64ee:	2300      	movs	r3, #0
    64f0:	2e00      	cmp	r6, #0
    64f2:	d0d6      	beq.n	64a2 <__register_exitproc+0x3a>
    64f4:	009a      	lsls	r2, r3, #2
    64f6:	4692      	mov	sl, r2
    64f8:	4482      	add	sl, r0
    64fa:	464a      	mov	r2, r9
    64fc:	2188      	movs	r1, #136	; 0x88
    64fe:	4654      	mov	r4, sl
    6500:	5062      	str	r2, [r4, r1]
    6502:	22c4      	movs	r2, #196	; 0xc4
    6504:	0052      	lsls	r2, r2, #1
    6506:	4691      	mov	r9, r2
    6508:	4481      	add	r9, r0
    650a:	464a      	mov	r2, r9
    650c:	3987      	subs	r1, #135	; 0x87
    650e:	4099      	lsls	r1, r3
    6510:	6812      	ldr	r2, [r2, #0]
    6512:	468b      	mov	fp, r1
    6514:	430a      	orrs	r2, r1
    6516:	4694      	mov	ip, r2
    6518:	464a      	mov	r2, r9
    651a:	4661      	mov	r1, ip
    651c:	6011      	str	r1, [r2, #0]
    651e:	2284      	movs	r2, #132	; 0x84
    6520:	4641      	mov	r1, r8
    6522:	0052      	lsls	r2, r2, #1
    6524:	50a1      	str	r1, [r4, r2]
    6526:	2e02      	cmp	r6, #2
    6528:	d1bb      	bne.n	64a2 <__register_exitproc+0x3a>
    652a:	0002      	movs	r2, r0
    652c:	465c      	mov	r4, fp
    652e:	328d      	adds	r2, #141	; 0x8d
    6530:	32ff      	adds	r2, #255	; 0xff
    6532:	6811      	ldr	r1, [r2, #0]
    6534:	430c      	orrs	r4, r1
    6536:	6014      	str	r4, [r2, #0]
    6538:	e7b3      	b.n	64a2 <__register_exitproc+0x3a>
    653a:	0020      	movs	r0, r4
    653c:	304d      	adds	r0, #77	; 0x4d
    653e:	30ff      	adds	r0, #255	; 0xff
    6540:	50e0      	str	r0, [r4, r3]
    6542:	e7a7      	b.n	6494 <__register_exitproc+0x2c>
    6544:	6828      	ldr	r0, [r5, #0]
    6546:	f7ff f82b 	bl	55a0 <__retarget_lock_release_recursive>
    654a:	2001      	movs	r0, #1
    654c:	4240      	negs	r0, r0
    654e:	e7b1      	b.n	64b4 <__register_exitproc+0x4c>
    6550:	20000430 	.word	0x20000430
    6554:	00008b20 	.word	0x00008b20
    6558:	00000000 	.word	0x00000000

0000655c <_calloc_r>:
    655c:	b510      	push	{r4, lr}
    655e:	4351      	muls	r1, r2
    6560:	f7ff f820 	bl	55a4 <_malloc_r>
    6564:	1e04      	subs	r4, r0, #0
    6566:	d01c      	beq.n	65a2 <_calloc_r+0x46>
    6568:	0003      	movs	r3, r0
    656a:	3b08      	subs	r3, #8
    656c:	685a      	ldr	r2, [r3, #4]
    656e:	2303      	movs	r3, #3
    6570:	439a      	bics	r2, r3
    6572:	3a04      	subs	r2, #4
    6574:	2a24      	cmp	r2, #36	; 0x24
    6576:	d816      	bhi.n	65a6 <_calloc_r+0x4a>
    6578:	0003      	movs	r3, r0
    657a:	2a13      	cmp	r2, #19
    657c:	d90d      	bls.n	659a <_calloc_r+0x3e>
    657e:	2100      	movs	r1, #0
    6580:	3308      	adds	r3, #8
    6582:	6001      	str	r1, [r0, #0]
    6584:	6041      	str	r1, [r0, #4]
    6586:	2a1b      	cmp	r2, #27
    6588:	d907      	bls.n	659a <_calloc_r+0x3e>
    658a:	6081      	str	r1, [r0, #8]
    658c:	60c1      	str	r1, [r0, #12]
    658e:	2a24      	cmp	r2, #36	; 0x24
    6590:	d10d      	bne.n	65ae <_calloc_r+0x52>
    6592:	0003      	movs	r3, r0
    6594:	6101      	str	r1, [r0, #16]
    6596:	3318      	adds	r3, #24
    6598:	6141      	str	r1, [r0, #20]
    659a:	2200      	movs	r2, #0
    659c:	601a      	str	r2, [r3, #0]
    659e:	605a      	str	r2, [r3, #4]
    65a0:	609a      	str	r2, [r3, #8]
    65a2:	0020      	movs	r0, r4
    65a4:	bd10      	pop	{r4, pc}
    65a6:	2100      	movs	r1, #0
    65a8:	f7fc fbde 	bl	2d68 <memset>
    65ac:	e7f9      	b.n	65a2 <_calloc_r+0x46>
    65ae:	0003      	movs	r3, r0
    65b0:	3310      	adds	r3, #16
    65b2:	e7f2      	b.n	659a <_calloc_r+0x3e>

000065b4 <_malloc_trim_r>:
    65b4:	b5f8      	push	{r3, r4, r5, r6, r7, lr}
    65b6:	000c      	movs	r4, r1
    65b8:	0006      	movs	r6, r0
    65ba:	f7ff fb29 	bl	5c10 <__malloc_lock>
    65be:	4f20      	ldr	r7, [pc, #128]	; (6640 <_malloc_trim_r+0x8c>)
    65c0:	68bb      	ldr	r3, [r7, #8]
    65c2:	685d      	ldr	r5, [r3, #4]
    65c4:	2303      	movs	r3, #3
    65c6:	439d      	bics	r5, r3
    65c8:	4b1e      	ldr	r3, [pc, #120]	; (6644 <_malloc_trim_r+0x90>)
    65ca:	1b2c      	subs	r4, r5, r4
    65cc:	469c      	mov	ip, r3
    65ce:	4464      	add	r4, ip
    65d0:	0b24      	lsrs	r4, r4, #12
    65d2:	4b1d      	ldr	r3, [pc, #116]	; (6648 <_malloc_trim_r+0x94>)
    65d4:	3c01      	subs	r4, #1
    65d6:	0324      	lsls	r4, r4, #12
    65d8:	429c      	cmp	r4, r3
    65da:	dd07      	ble.n	65ec <_malloc_trim_r+0x38>
    65dc:	2100      	movs	r1, #0
    65de:	0030      	movs	r0, r6
    65e0:	f7ff fe6e 	bl	62c0 <_sbrk_r>
    65e4:	68bb      	ldr	r3, [r7, #8]
    65e6:	195b      	adds	r3, r3, r5
    65e8:	4298      	cmp	r0, r3
    65ea:	d004      	beq.n	65f6 <_malloc_trim_r+0x42>
    65ec:	0030      	movs	r0, r6
    65ee:	f7ff fb17 	bl	5c20 <__malloc_unlock>
    65f2:	2000      	movs	r0, #0
    65f4:	bdf8      	pop	{r3, r4, r5, r6, r7, pc}
    65f6:	4261      	negs	r1, r4
    65f8:	0030      	movs	r0, r6
    65fa:	f7ff fe61 	bl	62c0 <_sbrk_r>
    65fe:	1c43      	adds	r3, r0, #1
    6600:	d00d      	beq.n	661e <_malloc_trim_r+0x6a>
    6602:	2201      	movs	r2, #1
    6604:	68bb      	ldr	r3, [r7, #8]
    6606:	1b2d      	subs	r5, r5, r4
    6608:	4315      	orrs	r5, r2
    660a:	605d      	str	r5, [r3, #4]
    660c:	4b0f      	ldr	r3, [pc, #60]	; (664c <_malloc_trim_r+0x98>)
    660e:	0030      	movs	r0, r6
    6610:	681a      	ldr	r2, [r3, #0]
    6612:	1b14      	subs	r4, r2, r4
    6614:	601c      	str	r4, [r3, #0]
    6616:	f7ff fb03 	bl	5c20 <__malloc_unlock>
    661a:	2001      	movs	r0, #1
    661c:	e7ea      	b.n	65f4 <_malloc_trim_r+0x40>
    661e:	2100      	movs	r1, #0
    6620:	0030      	movs	r0, r6
    6622:	f7ff fe4d 	bl	62c0 <_sbrk_r>
    6626:	68ba      	ldr	r2, [r7, #8]
    6628:	1a83      	subs	r3, r0, r2
    662a:	2b0f      	cmp	r3, #15
    662c:	ddde      	ble.n	65ec <_malloc_trim_r+0x38>
    662e:	4908      	ldr	r1, [pc, #32]	; (6650 <_malloc_trim_r+0x9c>)
    6630:	6809      	ldr	r1, [r1, #0]
    6632:	1a40      	subs	r0, r0, r1
    6634:	4905      	ldr	r1, [pc, #20]	; (664c <_malloc_trim_r+0x98>)
    6636:	6008      	str	r0, [r1, #0]
    6638:	2101      	movs	r1, #1
    663a:	430b      	orrs	r3, r1
    663c:	6053      	str	r3, [r2, #4]
    663e:	e7d5      	b.n	65ec <_malloc_trim_r+0x38>
    6640:	20000434 	.word	0x20000434
    6644:	00000fef 	.word	0x00000fef
    6648:	00000fff 	.word	0x00000fff
    664c:	200009d0 	.word	0x200009d0
    6650:	2000083c 	.word	0x2000083c

00006654 <_free_r>:
    6654:	b5f8      	push	{r3, r4, r5, r6, r7, lr}
    6656:	0004      	movs	r4, r0
    6658:	1e0d      	subs	r5, r1, #0
    665a:	d03c      	beq.n	66d6 <_free_r+0x82>
    665c:	f7ff fad8 	bl	5c10 <__malloc_lock>
    6660:	0029      	movs	r1, r5
    6662:	3908      	subs	r1, #8
    6664:	6848      	ldr	r0, [r1, #4]
    6666:	2301      	movs	r3, #1
    6668:	0005      	movs	r5, r0
    666a:	2603      	movs	r6, #3
    666c:	439d      	bics	r5, r3
    666e:	194a      	adds	r2, r1, r5
    6670:	469c      	mov	ip, r3
    6672:	4f61      	ldr	r7, [pc, #388]	; (67f8 <_free_r+0x1a4>)
    6674:	6853      	ldr	r3, [r2, #4]
    6676:	43b3      	bics	r3, r6
    6678:	68be      	ldr	r6, [r7, #8]
    667a:	42b2      	cmp	r2, r6
    667c:	d056      	beq.n	672c <_free_r+0xd8>
    667e:	4666      	mov	r6, ip
    6680:	6053      	str	r3, [r2, #4]
    6682:	4206      	tst	r6, r0
    6684:	d10a      	bne.n	669c <_free_r+0x48>
    6686:	003e      	movs	r6, r7
    6688:	6808      	ldr	r0, [r1, #0]
    668a:	3608      	adds	r6, #8
    668c:	1a09      	subs	r1, r1, r0
    668e:	182d      	adds	r5, r5, r0
    6690:	6888      	ldr	r0, [r1, #8]
    6692:	42b0      	cmp	r0, r6
    6694:	d065      	beq.n	6762 <_free_r+0x10e>
    6696:	68ce      	ldr	r6, [r1, #12]
    6698:	60c6      	str	r6, [r0, #12]
    669a:	60b0      	str	r0, [r6, #8]
    669c:	2001      	movs	r0, #1
    669e:	18d6      	adds	r6, r2, r3
    66a0:	6876      	ldr	r6, [r6, #4]
    66a2:	4206      	tst	r6, r0
    66a4:	d033      	beq.n	670e <_free_r+0xba>
    66a6:	4b55      	ldr	r3, [pc, #340]	; (67fc <_free_r+0x1a8>)
    66a8:	4328      	orrs	r0, r5
    66aa:	6048      	str	r0, [r1, #4]
    66ac:	514d      	str	r5, [r1, r5]
    66ae:	429d      	cmp	r5, r3
    66b0:	d812      	bhi.n	66d8 <_free_r+0x84>
    66b2:	08ed      	lsrs	r5, r5, #3
    66b4:	3bff      	subs	r3, #255	; 0xff
    66b6:	10aa      	asrs	r2, r5, #2
    66b8:	3bff      	subs	r3, #255	; 0xff
    66ba:	4093      	lsls	r3, r2
    66bc:	687a      	ldr	r2, [r7, #4]
    66be:	00ed      	lsls	r5, r5, #3
    66c0:	4313      	orrs	r3, r2
    66c2:	607b      	str	r3, [r7, #4]
    66c4:	19ef      	adds	r7, r5, r7
    66c6:	68bb      	ldr	r3, [r7, #8]
    66c8:	60cf      	str	r7, [r1, #12]
    66ca:	608b      	str	r3, [r1, #8]
    66cc:	60b9      	str	r1, [r7, #8]
    66ce:	60d9      	str	r1, [r3, #12]
    66d0:	0020      	movs	r0, r4
    66d2:	f7ff faa5 	bl	5c20 <__malloc_unlock>
    66d6:	bdf8      	pop	{r3, r4, r5, r6, r7, pc}
    66d8:	0a68      	lsrs	r0, r5, #9
    66da:	2804      	cmp	r0, #4
    66dc:	d850      	bhi.n	6780 <_free_r+0x12c>
    66de:	09a8      	lsrs	r0, r5, #6
    66e0:	0002      	movs	r2, r0
    66e2:	3039      	adds	r0, #57	; 0x39
    66e4:	3238      	adds	r2, #56	; 0x38
    66e6:	00c0      	lsls	r0, r0, #3
    66e8:	1838      	adds	r0, r7, r0
    66ea:	3808      	subs	r0, #8
    66ec:	6883      	ldr	r3, [r0, #8]
    66ee:	2603      	movs	r6, #3
    66f0:	4298      	cmp	r0, r3
    66f2:	d04c      	beq.n	678e <_free_r+0x13a>
    66f4:	685a      	ldr	r2, [r3, #4]
    66f6:	43b2      	bics	r2, r6
    66f8:	4295      	cmp	r5, r2
    66fa:	d230      	bcs.n	675e <_free_r+0x10a>
    66fc:	689b      	ldr	r3, [r3, #8]
    66fe:	4298      	cmp	r0, r3
    6700:	d1f8      	bne.n	66f4 <_free_r+0xa0>
    6702:	68c3      	ldr	r3, [r0, #12]
    6704:	60cb      	str	r3, [r1, #12]
    6706:	6088      	str	r0, [r1, #8]
    6708:	6099      	str	r1, [r3, #8]
    670a:	60c1      	str	r1, [r0, #12]
    670c:	e7e0      	b.n	66d0 <_free_r+0x7c>
    670e:	18ed      	adds	r5, r5, r3
    6710:	4e3b      	ldr	r6, [pc, #236]	; (6800 <_free_r+0x1ac>)
    6712:	6893      	ldr	r3, [r2, #8]
    6714:	42b3      	cmp	r3, r6
    6716:	d042      	beq.n	679e <_free_r+0x14a>
    6718:	68d2      	ldr	r2, [r2, #12]
    671a:	4328      	orrs	r0, r5
    671c:	60da      	str	r2, [r3, #12]
    671e:	6093      	str	r3, [r2, #8]
    6720:	4b36      	ldr	r3, [pc, #216]	; (67fc <_free_r+0x1a8>)
    6722:	6048      	str	r0, [r1, #4]
    6724:	514d      	str	r5, [r1, r5]
    6726:	429d      	cmp	r5, r3
    6728:	d8d6      	bhi.n	66d8 <_free_r+0x84>
    672a:	e7c2      	b.n	66b2 <_free_r+0x5e>
    672c:	4662      	mov	r2, ip
    672e:	18eb      	adds	r3, r5, r3
    6730:	4202      	tst	r2, r0
    6732:	d106      	bne.n	6742 <_free_r+0xee>
    6734:	680a      	ldr	r2, [r1, #0]
    6736:	1a89      	subs	r1, r1, r2
    6738:	6888      	ldr	r0, [r1, #8]
    673a:	189b      	adds	r3, r3, r2
    673c:	68ca      	ldr	r2, [r1, #12]
    673e:	60c2      	str	r2, [r0, #12]
    6740:	6090      	str	r0, [r2, #8]
    6742:	2201      	movs	r2, #1
    6744:	431a      	orrs	r2, r3
    6746:	604a      	str	r2, [r1, #4]
    6748:	4a2e      	ldr	r2, [pc, #184]	; (6804 <_free_r+0x1b0>)
    674a:	60b9      	str	r1, [r7, #8]
    674c:	6812      	ldr	r2, [r2, #0]
    674e:	4293      	cmp	r3, r2
    6750:	d3be      	bcc.n	66d0 <_free_r+0x7c>
    6752:	4b2d      	ldr	r3, [pc, #180]	; (6808 <_free_r+0x1b4>)
    6754:	0020      	movs	r0, r4
    6756:	6819      	ldr	r1, [r3, #0]
    6758:	f7ff ff2c 	bl	65b4 <_malloc_trim_r>
    675c:	e7b8      	b.n	66d0 <_free_r+0x7c>
    675e:	0018      	movs	r0, r3
    6760:	e7cf      	b.n	6702 <_free_r+0xae>
    6762:	4666      	mov	r6, ip
    6764:	18d0      	adds	r0, r2, r3
    6766:	6840      	ldr	r0, [r0, #4]
    6768:	4230      	tst	r0, r6
    676a:	d13f      	bne.n	67ec <_free_r+0x198>
    676c:	6890      	ldr	r0, [r2, #8]
    676e:	195d      	adds	r5, r3, r5
    6770:	68d3      	ldr	r3, [r2, #12]
    6772:	60c3      	str	r3, [r0, #12]
    6774:	6098      	str	r0, [r3, #8]
    6776:	4663      	mov	r3, ip
    6778:	432b      	orrs	r3, r5
    677a:	604b      	str	r3, [r1, #4]
    677c:	514d      	str	r5, [r1, r5]
    677e:	e7a7      	b.n	66d0 <_free_r+0x7c>
    6780:	2814      	cmp	r0, #20
    6782:	d814      	bhi.n	67ae <_free_r+0x15a>
    6784:	0002      	movs	r2, r0
    6786:	305c      	adds	r0, #92	; 0x5c
    6788:	325b      	adds	r2, #91	; 0x5b
    678a:	00c0      	lsls	r0, r0, #3
    678c:	e7ac      	b.n	66e8 <_free_r+0x94>
    678e:	2301      	movs	r3, #1
    6790:	1092      	asrs	r2, r2, #2
    6792:	4093      	lsls	r3, r2
    6794:	687a      	ldr	r2, [r7, #4]
    6796:	4313      	orrs	r3, r2
    6798:	607b      	str	r3, [r7, #4]
    679a:	0003      	movs	r3, r0
    679c:	e7b2      	b.n	6704 <_free_r+0xb0>
    679e:	4328      	orrs	r0, r5
    67a0:	60d9      	str	r1, [r3, #12]
    67a2:	6099      	str	r1, [r3, #8]
    67a4:	60cb      	str	r3, [r1, #12]
    67a6:	608b      	str	r3, [r1, #8]
    67a8:	6048      	str	r0, [r1, #4]
    67aa:	514d      	str	r5, [r1, r5]
    67ac:	e790      	b.n	66d0 <_free_r+0x7c>
    67ae:	2854      	cmp	r0, #84	; 0x54
    67b0:	d805      	bhi.n	67be <_free_r+0x16a>
    67b2:	0b28      	lsrs	r0, r5, #12
    67b4:	0002      	movs	r2, r0
    67b6:	306f      	adds	r0, #111	; 0x6f
    67b8:	326e      	adds	r2, #110	; 0x6e
    67ba:	00c0      	lsls	r0, r0, #3
    67bc:	e794      	b.n	66e8 <_free_r+0x94>
    67be:	22aa      	movs	r2, #170	; 0xaa
    67c0:	0052      	lsls	r2, r2, #1
    67c2:	4290      	cmp	r0, r2
    67c4:	d805      	bhi.n	67d2 <_free_r+0x17e>
    67c6:	0be8      	lsrs	r0, r5, #15
    67c8:	0002      	movs	r2, r0
    67ca:	3078      	adds	r0, #120	; 0x78
    67cc:	3277      	adds	r2, #119	; 0x77
    67ce:	00c0      	lsls	r0, r0, #3
    67d0:	e78a      	b.n	66e8 <_free_r+0x94>
    67d2:	4a0e      	ldr	r2, [pc, #56]	; (680c <_free_r+0x1b8>)
    67d4:	4290      	cmp	r0, r2
    67d6:	d805      	bhi.n	67e4 <_free_r+0x190>
    67d8:	0ca8      	lsrs	r0, r5, #18
    67da:	0002      	movs	r2, r0
    67dc:	307d      	adds	r0, #125	; 0x7d
    67de:	327c      	adds	r2, #124	; 0x7c
    67e0:	00c0      	lsls	r0, r0, #3
    67e2:	e781      	b.n	66e8 <_free_r+0x94>
    67e4:	20fe      	movs	r0, #254	; 0xfe
    67e6:	227e      	movs	r2, #126	; 0x7e
    67e8:	0080      	lsls	r0, r0, #2
    67ea:	e77d      	b.n	66e8 <_free_r+0x94>
    67ec:	4663      	mov	r3, ip
    67ee:	432b      	orrs	r3, r5
    67f0:	604b      	str	r3, [r1, #4]
    67f2:	6015      	str	r5, [r2, #0]
    67f4:	e76c      	b.n	66d0 <_free_r+0x7c>
    67f6:	46c0      	nop			; (mov r8, r8)
    67f8:	20000434 	.word	0x20000434
    67fc:	000001ff 	.word	0x000001ff
    6800:	2000043c 	.word	0x2000043c
    6804:	20000840 	.word	0x20000840
    6808:	20000a00 	.word	0x20000a00
    680c:	00000554 	.word	0x00000554

00006810 <__ascii_mbtowc>:
    6810:	b082      	sub	sp, #8
    6812:	2900      	cmp	r1, #0
    6814:	d00a      	beq.n	682c <__ascii_mbtowc+0x1c>
    6816:	2a00      	cmp	r2, #0
    6818:	d00b      	beq.n	6832 <__ascii_mbtowc+0x22>
    681a:	2b00      	cmp	r3, #0
    681c:	d00b      	beq.n	6836 <__ascii_mbtowc+0x26>
    681e:	7813      	ldrb	r3, [r2, #0]
    6820:	600b      	str	r3, [r1, #0]
    6822:	7810      	ldrb	r0, [r2, #0]
    6824:	1e43      	subs	r3, r0, #1
    6826:	4198      	sbcs	r0, r3
    6828:	b002      	add	sp, #8
    682a:	4770      	bx	lr
    682c:	a901      	add	r1, sp, #4
    682e:	2a00      	cmp	r2, #0
    6830:	d1f3      	bne.n	681a <__ascii_mbtowc+0xa>
    6832:	2000      	movs	r0, #0
    6834:	e7f8      	b.n	6828 <__ascii_mbtowc+0x18>
    6836:	2002      	movs	r0, #2
    6838:	4240      	negs	r0, r0
    683a:	e7f5      	b.n	6828 <__ascii_mbtowc+0x18>

0000683c <memmove>:
    683c:	b5f0      	push	{r4, r5, r6, r7, lr}
    683e:	4288      	cmp	r0, r1
    6840:	d90a      	bls.n	6858 <memmove+0x1c>
    6842:	188b      	adds	r3, r1, r2
    6844:	4298      	cmp	r0, r3
    6846:	d207      	bcs.n	6858 <memmove+0x1c>
    6848:	1e53      	subs	r3, r2, #1
    684a:	2a00      	cmp	r2, #0
    684c:	d003      	beq.n	6856 <memmove+0x1a>
    684e:	5cca      	ldrb	r2, [r1, r3]
    6850:	54c2      	strb	r2, [r0, r3]
    6852:	3b01      	subs	r3, #1
    6854:	d2fb      	bcs.n	684e <memmove+0x12>
    6856:	bdf0      	pop	{r4, r5, r6, r7, pc}
    6858:	0005      	movs	r5, r0
    685a:	2a0f      	cmp	r2, #15
    685c:	d808      	bhi.n	6870 <memmove+0x34>
    685e:	2a00      	cmp	r2, #0
    6860:	d0f9      	beq.n	6856 <memmove+0x1a>
    6862:	2300      	movs	r3, #0
    6864:	5ccc      	ldrb	r4, [r1, r3]
    6866:	54ec      	strb	r4, [r5, r3]
    6868:	3301      	adds	r3, #1
    686a:	4293      	cmp	r3, r2
    686c:	d1fa      	bne.n	6864 <memmove+0x28>
    686e:	e7f2      	b.n	6856 <memmove+0x1a>
    6870:	000b      	movs	r3, r1
    6872:	4303      	orrs	r3, r0
    6874:	079b      	lsls	r3, r3, #30
    6876:	d12d      	bne.n	68d4 <memmove+0x98>
    6878:	0015      	movs	r5, r2
    687a:	000c      	movs	r4, r1
    687c:	0003      	movs	r3, r0
    687e:	3d10      	subs	r5, #16
    6880:	092f      	lsrs	r7, r5, #4
    6882:	3701      	adds	r7, #1
    6884:	013f      	lsls	r7, r7, #4
    6886:	19c7      	adds	r7, r0, r7
    6888:	6826      	ldr	r6, [r4, #0]
    688a:	601e      	str	r6, [r3, #0]
    688c:	6866      	ldr	r6, [r4, #4]
    688e:	605e      	str	r6, [r3, #4]
    6890:	68a6      	ldr	r6, [r4, #8]
    6892:	609e      	str	r6, [r3, #8]
    6894:	68e6      	ldr	r6, [r4, #12]
    6896:	3410      	adds	r4, #16
    6898:	60de      	str	r6, [r3, #12]
    689a:	3310      	adds	r3, #16
    689c:	429f      	cmp	r7, r3
    689e:	d1f3      	bne.n	6888 <memmove+0x4c>
    68a0:	240f      	movs	r4, #15
    68a2:	43a5      	bics	r5, r4
    68a4:	3510      	adds	r5, #16
    68a6:	1949      	adds	r1, r1, r5
    68a8:	4014      	ands	r4, r2
    68aa:	1945      	adds	r5, r0, r5
    68ac:	2c03      	cmp	r4, #3
    68ae:	d913      	bls.n	68d8 <memmove+0x9c>
    68b0:	2300      	movs	r3, #0
    68b2:	1f27      	subs	r7, r4, #4
    68b4:	08be      	lsrs	r6, r7, #2
    68b6:	3601      	adds	r6, #1
    68b8:	00b6      	lsls	r6, r6, #2
    68ba:	58cc      	ldr	r4, [r1, r3]
    68bc:	50ec      	str	r4, [r5, r3]
    68be:	3304      	adds	r3, #4
    68c0:	42b3      	cmp	r3, r6
    68c2:	d1fa      	bne.n	68ba <memmove+0x7e>
    68c4:	2603      	movs	r6, #3
    68c6:	43b7      	bics	r7, r6
    68c8:	1d3c      	adds	r4, r7, #4
    68ca:	1909      	adds	r1, r1, r4
    68cc:	192d      	adds	r5, r5, r4
    68ce:	4032      	ands	r2, r6
    68d0:	d1c7      	bne.n	6862 <memmove+0x26>
    68d2:	e7c0      	b.n	6856 <memmove+0x1a>
    68d4:	0005      	movs	r5, r0
    68d6:	e7c4      	b.n	6862 <memmove+0x26>
    68d8:	0022      	movs	r2, r4
    68da:	e7c0      	b.n	685e <memmove+0x22>

000068dc <_realloc_r>:
    68dc:	b5f0      	push	{r4, r5, r6, r7, lr}
    68de:	464e      	mov	r6, r9
    68e0:	4645      	mov	r5, r8
    68e2:	46de      	mov	lr, fp
    68e4:	4657      	mov	r7, sl
    68e6:	b5e0      	push	{r5, r6, r7, lr}
    68e8:	b085      	sub	sp, #20
    68ea:	9001      	str	r0, [sp, #4]
    68ec:	000e      	movs	r6, r1
    68ee:	0015      	movs	r5, r2
    68f0:	2900      	cmp	r1, #0
    68f2:	d100      	bne.n	68f6 <_realloc_r+0x1a>
    68f4:	e09e      	b.n	6a34 <_realloc_r+0x158>
    68f6:	0037      	movs	r7, r6
    68f8:	9801      	ldr	r0, [sp, #4]
    68fa:	3f08      	subs	r7, #8
    68fc:	f7ff f988 	bl	5c10 <__malloc_lock>
    6900:	687a      	ldr	r2, [r7, #4]
    6902:	2303      	movs	r3, #3
    6904:	0014      	movs	r4, r2
    6906:	439c      	bics	r4, r3
    6908:	002b      	movs	r3, r5
    690a:	330b      	adds	r3, #11
    690c:	46b9      	mov	r9, r7
    690e:	2b16      	cmp	r3, #22
    6910:	d847      	bhi.n	69a2 <_realloc_r+0xc6>
    6912:	2110      	movs	r1, #16
    6914:	2310      	movs	r3, #16
    6916:	4688      	mov	r8, r1
    6918:	4545      	cmp	r5, r8
    691a:	d846      	bhi.n	69aa <_realloc_r+0xce>
    691c:	429c      	cmp	r4, r3
    691e:	da49      	bge.n	69b4 <_realloc_r+0xd8>
    6920:	49cc      	ldr	r1, [pc, #816]	; (6c54 <_realloc_r+0x378>)
    6922:	1938      	adds	r0, r7, r4
    6924:	468b      	mov	fp, r1
    6926:	6889      	ldr	r1, [r1, #8]
    6928:	9002      	str	r0, [sp, #8]
    692a:	4288      	cmp	r0, r1
    692c:	d100      	bne.n	6930 <_realloc_r+0x54>
    692e:	e0c2      	b.n	6ab6 <_realloc_r+0x1da>
    6930:	2101      	movs	r1, #1
    6932:	468a      	mov	sl, r1
    6934:	6840      	ldr	r0, [r0, #4]
    6936:	0001      	movs	r1, r0
    6938:	9003      	str	r0, [sp, #12]
    693a:	4650      	mov	r0, sl
    693c:	4381      	bics	r1, r0
    693e:	468c      	mov	ip, r1
    6940:	9902      	ldr	r1, [sp, #8]
    6942:	468b      	mov	fp, r1
    6944:	44dc      	add	ip, fp
    6946:	4661      	mov	r1, ip
    6948:	6849      	ldr	r1, [r1, #4]
    694a:	4201      	tst	r1, r0
    694c:	d04d      	beq.n	69ea <_realloc_r+0x10e>
    694e:	4210      	tst	r0, r2
    6950:	d100      	bne.n	6954 <_realloc_r+0x78>
    6952:	e0a2      	b.n	6a9a <_realloc_r+0x1be>
    6954:	0029      	movs	r1, r5
    6956:	9801      	ldr	r0, [sp, #4]
    6958:	f7fe fe24 	bl	55a4 <_malloc_r>
    695c:	1e05      	subs	r5, r0, #0
    695e:	d039      	beq.n	69d4 <_realloc_r+0xf8>
    6960:	2301      	movs	r3, #1
    6962:	0002      	movs	r2, r0
    6964:	6879      	ldr	r1, [r7, #4]
    6966:	3a08      	subs	r2, #8
    6968:	4399      	bics	r1, r3
    696a:	187f      	adds	r7, r7, r1
    696c:	42ba      	cmp	r2, r7
    696e:	d100      	bne.n	6972 <_realloc_r+0x96>
    6970:	e12e      	b.n	6bd0 <_realloc_r+0x2f4>
    6972:	1f22      	subs	r2, r4, #4
    6974:	2a24      	cmp	r2, #36	; 0x24
    6976:	d900      	bls.n	697a <_realloc_r+0x9e>
    6978:	e114      	b.n	6ba4 <_realloc_r+0x2c8>
    697a:	2a13      	cmp	r2, #19
    697c:	d900      	bls.n	6980 <_realloc_r+0xa4>
    697e:	e0e8      	b.n	6b52 <_realloc_r+0x276>
    6980:	0003      	movs	r3, r0
    6982:	0032      	movs	r2, r6
    6984:	6811      	ldr	r1, [r2, #0]
    6986:	6019      	str	r1, [r3, #0]
    6988:	6851      	ldr	r1, [r2, #4]
    698a:	6059      	str	r1, [r3, #4]
    698c:	6892      	ldr	r2, [r2, #8]
    698e:	609a      	str	r2, [r3, #8]
    6990:	9c01      	ldr	r4, [sp, #4]
    6992:	0031      	movs	r1, r6
    6994:	0020      	movs	r0, r4
    6996:	f7ff fe5d 	bl	6654 <_free_r>
    699a:	0020      	movs	r0, r4
    699c:	f7ff f940 	bl	5c20 <__malloc_unlock>
    69a0:	e01b      	b.n	69da <_realloc_r+0xfe>
    69a2:	2107      	movs	r1, #7
    69a4:	438b      	bics	r3, r1
    69a6:	4698      	mov	r8, r3
    69a8:	d5b6      	bpl.n	6918 <_realloc_r+0x3c>
    69aa:	230c      	movs	r3, #12
    69ac:	9a01      	ldr	r2, [sp, #4]
    69ae:	2500      	movs	r5, #0
    69b0:	6013      	str	r3, [r2, #0]
    69b2:	e012      	b.n	69da <_realloc_r+0xfe>
    69b4:	0035      	movs	r5, r6
    69b6:	4643      	mov	r3, r8
    69b8:	1ae3      	subs	r3, r4, r3
    69ba:	2b0f      	cmp	r3, #15
    69bc:	d825      	bhi.n	6a0a <_realloc_r+0x12e>
    69be:	464b      	mov	r3, r9
    69c0:	2201      	movs	r2, #1
    69c2:	4649      	mov	r1, r9
    69c4:	685b      	ldr	r3, [r3, #4]
    69c6:	4013      	ands	r3, r2
    69c8:	4323      	orrs	r3, r4
    69ca:	604b      	str	r3, [r1, #4]
    69cc:	444c      	add	r4, r9
    69ce:	6863      	ldr	r3, [r4, #4]
    69d0:	431a      	orrs	r2, r3
    69d2:	6062      	str	r2, [r4, #4]
    69d4:	9801      	ldr	r0, [sp, #4]
    69d6:	f7ff f923 	bl	5c20 <__malloc_unlock>
    69da:	0028      	movs	r0, r5
    69dc:	b005      	add	sp, #20
    69de:	bc3c      	pop	{r2, r3, r4, r5}
    69e0:	4690      	mov	r8, r2
    69e2:	4699      	mov	r9, r3
    69e4:	46a2      	mov	sl, r4
    69e6:	46ab      	mov	fp, r5
    69e8:	bdf0      	pop	{r4, r5, r6, r7, pc}
    69ea:	2103      	movs	r1, #3
    69ec:	9803      	ldr	r0, [sp, #12]
    69ee:	468c      	mov	ip, r1
    69f0:	4388      	bics	r0, r1
    69f2:	1821      	adds	r1, r4, r0
    69f4:	468b      	mov	fp, r1
    69f6:	4299      	cmp	r1, r3
    69f8:	db21      	blt.n	6a3e <_realloc_r+0x162>
    69fa:	9a02      	ldr	r2, [sp, #8]
    69fc:	0035      	movs	r5, r6
    69fe:	68d3      	ldr	r3, [r2, #12]
    6a00:	6892      	ldr	r2, [r2, #8]
    6a02:	465c      	mov	r4, fp
    6a04:	60d3      	str	r3, [r2, #12]
    6a06:	609a      	str	r2, [r3, #8]
    6a08:	e7d5      	b.n	69b6 <_realloc_r+0xda>
    6a0a:	464a      	mov	r2, r9
    6a0c:	2001      	movs	r0, #1
    6a0e:	4646      	mov	r6, r8
    6a10:	6852      	ldr	r2, [r2, #4]
    6a12:	4649      	mov	r1, r9
    6a14:	4002      	ands	r2, r0
    6a16:	4332      	orrs	r2, r6
    6a18:	464e      	mov	r6, r9
    6a1a:	4441      	add	r1, r8
    6a1c:	4303      	orrs	r3, r0
    6a1e:	6072      	str	r2, [r6, #4]
    6a20:	444c      	add	r4, r9
    6a22:	604b      	str	r3, [r1, #4]
    6a24:	6863      	ldr	r3, [r4, #4]
    6a26:	3108      	adds	r1, #8
    6a28:	4318      	orrs	r0, r3
    6a2a:	6060      	str	r0, [r4, #4]
    6a2c:	9801      	ldr	r0, [sp, #4]
    6a2e:	f7ff fe11 	bl	6654 <_free_r>
    6a32:	e7cf      	b.n	69d4 <_realloc_r+0xf8>
    6a34:	0011      	movs	r1, r2
    6a36:	f7fe fdb5 	bl	55a4 <_malloc_r>
    6a3a:	0005      	movs	r5, r0
    6a3c:	e7cd      	b.n	69da <_realloc_r+0xfe>
    6a3e:	4651      	mov	r1, sl
    6a40:	4211      	tst	r1, r2
    6a42:	d000      	beq.n	6a46 <_realloc_r+0x16a>
    6a44:	e786      	b.n	6954 <_realloc_r+0x78>
    6a46:	4661      	mov	r1, ip
    6a48:	683a      	ldr	r2, [r7, #0]
    6a4a:	1aba      	subs	r2, r7, r2
    6a4c:	4692      	mov	sl, r2
    6a4e:	6852      	ldr	r2, [r2, #4]
    6a50:	438a      	bics	r2, r1
    6a52:	1880      	adds	r0, r0, r2
    6a54:	4683      	mov	fp, r0
    6a56:	44a3      	add	fp, r4
    6a58:	459b      	cmp	fp, r3
    6a5a:	db26      	blt.n	6aaa <_realloc_r+0x1ce>
    6a5c:	9a02      	ldr	r2, [sp, #8]
    6a5e:	68d3      	ldr	r3, [r2, #12]
    6a60:	6892      	ldr	r2, [r2, #8]
    6a62:	60d3      	str	r3, [r2, #12]
    6a64:	609a      	str	r2, [r3, #8]
    6a66:	4653      	mov	r3, sl
    6a68:	4652      	mov	r2, sl
    6a6a:	4655      	mov	r5, sl
    6a6c:	6892      	ldr	r2, [r2, #8]
    6a6e:	68db      	ldr	r3, [r3, #12]
    6a70:	3508      	adds	r5, #8
    6a72:	60d3      	str	r3, [r2, #12]
    6a74:	609a      	str	r2, [r3, #8]
    6a76:	1f22      	subs	r2, r4, #4
    6a78:	2a24      	cmp	r2, #36	; 0x24
    6a7a:	d900      	bls.n	6a7e <_realloc_r+0x1a2>
    6a7c:	e096      	b.n	6bac <_realloc_r+0x2d0>
    6a7e:	2a13      	cmp	r2, #19
    6a80:	d972      	bls.n	6b68 <_realloc_r+0x28c>
    6a82:	4653      	mov	r3, sl
    6a84:	6831      	ldr	r1, [r6, #0]
    6a86:	6099      	str	r1, [r3, #8]
    6a88:	6871      	ldr	r1, [r6, #4]
    6a8a:	60d9      	str	r1, [r3, #12]
    6a8c:	2a1b      	cmp	r2, #27
    6a8e:	d900      	bls.n	6a92 <_realloc_r+0x1b6>
    6a90:	e0a4      	b.n	6bdc <_realloc_r+0x300>
    6a92:	0032      	movs	r2, r6
    6a94:	3310      	adds	r3, #16
    6a96:	3208      	adds	r2, #8
    6a98:	e068      	b.n	6b6c <_realloc_r+0x290>
    6a9a:	683a      	ldr	r2, [r7, #0]
    6a9c:	1aba      	subs	r2, r7, r2
    6a9e:	4692      	mov	sl, r2
    6aa0:	4651      	mov	r1, sl
    6aa2:	2203      	movs	r2, #3
    6aa4:	6849      	ldr	r1, [r1, #4]
    6aa6:	4391      	bics	r1, r2
    6aa8:	000a      	movs	r2, r1
    6aaa:	4693      	mov	fp, r2
    6aac:	44a3      	add	fp, r4
    6aae:	459b      	cmp	fp, r3
    6ab0:	da00      	bge.n	6ab4 <_realloc_r+0x1d8>
    6ab2:	e74f      	b.n	6954 <_realloc_r+0x78>
    6ab4:	e7d7      	b.n	6a66 <_realloc_r+0x18a>
    6ab6:	2003      	movs	r0, #3
    6ab8:	9902      	ldr	r1, [sp, #8]
    6aba:	4684      	mov	ip, r0
    6abc:	6849      	ldr	r1, [r1, #4]
    6abe:	4381      	bics	r1, r0
    6ac0:	4640      	mov	r0, r8
    6ac2:	1909      	adds	r1, r1, r4
    6ac4:	3010      	adds	r0, #16
    6ac6:	9002      	str	r0, [sp, #8]
    6ac8:	4281      	cmp	r1, r0
    6aca:	da58      	bge.n	6b7e <_realloc_r+0x2a2>
    6acc:	07d2      	lsls	r2, r2, #31
    6ace:	d500      	bpl.n	6ad2 <_realloc_r+0x1f6>
    6ad0:	e740      	b.n	6954 <_realloc_r+0x78>
    6ad2:	4660      	mov	r0, ip
    6ad4:	683a      	ldr	r2, [r7, #0]
    6ad6:	1aba      	subs	r2, r7, r2
    6ad8:	4692      	mov	sl, r2
    6ada:	6852      	ldr	r2, [r2, #4]
    6adc:	4382      	bics	r2, r0
    6ade:	9802      	ldr	r0, [sp, #8]
    6ae0:	1851      	adds	r1, r2, r1
    6ae2:	9103      	str	r1, [sp, #12]
    6ae4:	4288      	cmp	r0, r1
    6ae6:	dce0      	bgt.n	6aaa <_realloc_r+0x1ce>
    6ae8:	4653      	mov	r3, sl
    6aea:	4652      	mov	r2, sl
    6aec:	4655      	mov	r5, sl
    6aee:	6892      	ldr	r2, [r2, #8]
    6af0:	68db      	ldr	r3, [r3, #12]
    6af2:	3508      	adds	r5, #8
    6af4:	60d3      	str	r3, [r2, #12]
    6af6:	609a      	str	r2, [r3, #8]
    6af8:	1f22      	subs	r2, r4, #4
    6afa:	2a24      	cmp	r2, #36	; 0x24
    6afc:	d900      	bls.n	6b00 <_realloc_r+0x224>
    6afe:	e08e      	b.n	6c1e <_realloc_r+0x342>
    6b00:	2a13      	cmp	r2, #19
    6b02:	d800      	bhi.n	6b06 <_realloc_r+0x22a>
    6b04:	e088      	b.n	6c18 <_realloc_r+0x33c>
    6b06:	4653      	mov	r3, sl
    6b08:	6831      	ldr	r1, [r6, #0]
    6b0a:	6099      	str	r1, [r3, #8]
    6b0c:	6871      	ldr	r1, [r6, #4]
    6b0e:	60d9      	str	r1, [r3, #12]
    6b10:	2a1b      	cmp	r2, #27
    6b12:	d900      	bls.n	6b16 <_realloc_r+0x23a>
    6b14:	e088      	b.n	6c28 <_realloc_r+0x34c>
    6b16:	0032      	movs	r2, r6
    6b18:	3310      	adds	r3, #16
    6b1a:	3208      	adds	r2, #8
    6b1c:	6811      	ldr	r1, [r2, #0]
    6b1e:	6019      	str	r1, [r3, #0]
    6b20:	6851      	ldr	r1, [r2, #4]
    6b22:	6059      	str	r1, [r3, #4]
    6b24:	6892      	ldr	r2, [r2, #8]
    6b26:	609a      	str	r2, [r3, #8]
    6b28:	4651      	mov	r1, sl
    6b2a:	465b      	mov	r3, fp
    6b2c:	4642      	mov	r2, r8
    6b2e:	4441      	add	r1, r8
    6b30:	6099      	str	r1, [r3, #8]
    6b32:	9b03      	ldr	r3, [sp, #12]
    6b34:	9801      	ldr	r0, [sp, #4]
    6b36:	1a9a      	subs	r2, r3, r2
    6b38:	2301      	movs	r3, #1
    6b3a:	431a      	orrs	r2, r3
    6b3c:	604a      	str	r2, [r1, #4]
    6b3e:	4652      	mov	r2, sl
    6b40:	6852      	ldr	r2, [r2, #4]
    6b42:	4013      	ands	r3, r2
    6b44:	4642      	mov	r2, r8
    6b46:	4313      	orrs	r3, r2
    6b48:	4652      	mov	r2, sl
    6b4a:	6053      	str	r3, [r2, #4]
    6b4c:	f7ff f868 	bl	5c20 <__malloc_unlock>
    6b50:	e743      	b.n	69da <_realloc_r+0xfe>
    6b52:	6833      	ldr	r3, [r6, #0]
    6b54:	6003      	str	r3, [r0, #0]
    6b56:	6873      	ldr	r3, [r6, #4]
    6b58:	6043      	str	r3, [r0, #4]
    6b5a:	2a1b      	cmp	r2, #27
    6b5c:	d82d      	bhi.n	6bba <_realloc_r+0x2de>
    6b5e:	0003      	movs	r3, r0
    6b60:	0032      	movs	r2, r6
    6b62:	3308      	adds	r3, #8
    6b64:	3208      	adds	r2, #8
    6b66:	e70d      	b.n	6984 <_realloc_r+0xa8>
    6b68:	002b      	movs	r3, r5
    6b6a:	0032      	movs	r2, r6
    6b6c:	6811      	ldr	r1, [r2, #0]
    6b6e:	465c      	mov	r4, fp
    6b70:	6019      	str	r1, [r3, #0]
    6b72:	6851      	ldr	r1, [r2, #4]
    6b74:	46d1      	mov	r9, sl
    6b76:	6059      	str	r1, [r3, #4]
    6b78:	6892      	ldr	r2, [r2, #8]
    6b7a:	609a      	str	r2, [r3, #8]
    6b7c:	e71b      	b.n	69b6 <_realloc_r+0xda>
    6b7e:	4643      	mov	r3, r8
    6b80:	18fa      	adds	r2, r7, r3
    6b82:	465b      	mov	r3, fp
    6b84:	609a      	str	r2, [r3, #8]
    6b86:	4643      	mov	r3, r8
    6b88:	1ac9      	subs	r1, r1, r3
    6b8a:	2301      	movs	r3, #1
    6b8c:	4319      	orrs	r1, r3
    6b8e:	6051      	str	r1, [r2, #4]
    6b90:	687a      	ldr	r2, [r7, #4]
    6b92:	9801      	ldr	r0, [sp, #4]
    6b94:	4013      	ands	r3, r2
    6b96:	4642      	mov	r2, r8
    6b98:	4313      	orrs	r3, r2
    6b9a:	607b      	str	r3, [r7, #4]
    6b9c:	f7ff f840 	bl	5c20 <__malloc_unlock>
    6ba0:	0035      	movs	r5, r6
    6ba2:	e71a      	b.n	69da <_realloc_r+0xfe>
    6ba4:	0031      	movs	r1, r6
    6ba6:	f7ff fe49 	bl	683c <memmove>
    6baa:	e6f1      	b.n	6990 <_realloc_r+0xb4>
    6bac:	0031      	movs	r1, r6
    6bae:	0028      	movs	r0, r5
    6bb0:	f7ff fe44 	bl	683c <memmove>
    6bb4:	465c      	mov	r4, fp
    6bb6:	46d1      	mov	r9, sl
    6bb8:	e6fd      	b.n	69b6 <_realloc_r+0xda>
    6bba:	68b3      	ldr	r3, [r6, #8]
    6bbc:	6083      	str	r3, [r0, #8]
    6bbe:	68f3      	ldr	r3, [r6, #12]
    6bc0:	60c3      	str	r3, [r0, #12]
    6bc2:	2a24      	cmp	r2, #36	; 0x24
    6bc4:	d015      	beq.n	6bf2 <_realloc_r+0x316>
    6bc6:	0003      	movs	r3, r0
    6bc8:	0032      	movs	r2, r6
    6bca:	3310      	adds	r3, #16
    6bcc:	3210      	adds	r2, #16
    6bce:	e6d9      	b.n	6984 <_realloc_r+0xa8>
    6bd0:	6853      	ldr	r3, [r2, #4]
    6bd2:	2203      	movs	r2, #3
    6bd4:	4393      	bics	r3, r2
    6bd6:	18e4      	adds	r4, r4, r3
    6bd8:	0035      	movs	r5, r6
    6bda:	e6ec      	b.n	69b6 <_realloc_r+0xda>
    6bdc:	4653      	mov	r3, sl
    6bde:	68b1      	ldr	r1, [r6, #8]
    6be0:	6119      	str	r1, [r3, #16]
    6be2:	68f1      	ldr	r1, [r6, #12]
    6be4:	6159      	str	r1, [r3, #20]
    6be6:	2a24      	cmp	r2, #36	; 0x24
    6be8:	d00c      	beq.n	6c04 <_realloc_r+0x328>
    6bea:	0032      	movs	r2, r6
    6bec:	3318      	adds	r3, #24
    6bee:	3210      	adds	r2, #16
    6bf0:	e7bc      	b.n	6b6c <_realloc_r+0x290>
    6bf2:	6933      	ldr	r3, [r6, #16]
    6bf4:	0032      	movs	r2, r6
    6bf6:	6103      	str	r3, [r0, #16]
    6bf8:	0003      	movs	r3, r0
    6bfa:	6971      	ldr	r1, [r6, #20]
    6bfc:	3318      	adds	r3, #24
    6bfe:	3218      	adds	r2, #24
    6c00:	6141      	str	r1, [r0, #20]
    6c02:	e6bf      	b.n	6984 <_realloc_r+0xa8>
    6c04:	4653      	mov	r3, sl
    6c06:	6932      	ldr	r2, [r6, #16]
    6c08:	4651      	mov	r1, sl
    6c0a:	619a      	str	r2, [r3, #24]
    6c0c:	0032      	movs	r2, r6
    6c0e:	6970      	ldr	r0, [r6, #20]
    6c10:	3320      	adds	r3, #32
    6c12:	3218      	adds	r2, #24
    6c14:	61c8      	str	r0, [r1, #28]
    6c16:	e7a9      	b.n	6b6c <_realloc_r+0x290>
    6c18:	002b      	movs	r3, r5
    6c1a:	0032      	movs	r2, r6
    6c1c:	e77e      	b.n	6b1c <_realloc_r+0x240>
    6c1e:	0031      	movs	r1, r6
    6c20:	0028      	movs	r0, r5
    6c22:	f7ff fe0b 	bl	683c <memmove>
    6c26:	e77f      	b.n	6b28 <_realloc_r+0x24c>
    6c28:	4653      	mov	r3, sl
    6c2a:	68b1      	ldr	r1, [r6, #8]
    6c2c:	6119      	str	r1, [r3, #16]
    6c2e:	68f1      	ldr	r1, [r6, #12]
    6c30:	6159      	str	r1, [r3, #20]
    6c32:	2a24      	cmp	r2, #36	; 0x24
    6c34:	d003      	beq.n	6c3e <_realloc_r+0x362>
    6c36:	0032      	movs	r2, r6
    6c38:	3318      	adds	r3, #24
    6c3a:	3210      	adds	r2, #16
    6c3c:	e76e      	b.n	6b1c <_realloc_r+0x240>
    6c3e:	4653      	mov	r3, sl
    6c40:	6932      	ldr	r2, [r6, #16]
    6c42:	4651      	mov	r1, sl
    6c44:	619a      	str	r2, [r3, #24]
    6c46:	0032      	movs	r2, r6
    6c48:	6970      	ldr	r0, [r6, #20]
    6c4a:	3320      	adds	r3, #32
    6c4c:	3218      	adds	r2, #24
    6c4e:	61c8      	str	r0, [r1, #28]
    6c50:	e764      	b.n	6b1c <_realloc_r+0x240>
    6c52:	46c0      	nop			; (mov r8, r8)
    6c54:	20000434 	.word	0x20000434

00006c58 <__ascii_wctomb>:
    6c58:	2900      	cmp	r1, #0
    6c5a:	d004      	beq.n	6c66 <__ascii_wctomb+0xe>
    6c5c:	2aff      	cmp	r2, #255	; 0xff
    6c5e:	d804      	bhi.n	6c6a <__ascii_wctomb+0x12>
    6c60:	2001      	movs	r0, #1
    6c62:	700a      	strb	r2, [r1, #0]
    6c64:	4770      	bx	lr
    6c66:	2000      	movs	r0, #0
    6c68:	e7fc      	b.n	6c64 <__ascii_wctomb+0xc>
    6c6a:	238a      	movs	r3, #138	; 0x8a
    6c6c:	6003      	str	r3, [r0, #0]
    6c6e:	2001      	movs	r0, #1
    6c70:	4240      	negs	r0, r0
    6c72:	e7f7      	b.n	6c64 <__ascii_wctomb+0xc>

00006c74 <__aeabi_cdrcmple>:
    6c74:	4684      	mov	ip, r0
    6c76:	1c10      	adds	r0, r2, #0
    6c78:	4662      	mov	r2, ip
    6c7a:	468c      	mov	ip, r1
    6c7c:	1c19      	adds	r1, r3, #0
    6c7e:	4663      	mov	r3, ip
    6c80:	e000      	b.n	6c84 <__aeabi_cdcmpeq>
    6c82:	46c0      	nop			; (mov r8, r8)

00006c84 <__aeabi_cdcmpeq>:
    6c84:	b51f      	push	{r0, r1, r2, r3, r4, lr}
    6c86:	f000 ff15 	bl	7ab4 <__ledf2>
    6c8a:	2800      	cmp	r0, #0
    6c8c:	d401      	bmi.n	6c92 <__aeabi_cdcmpeq+0xe>
    6c8e:	2100      	movs	r1, #0
    6c90:	42c8      	cmn	r0, r1
    6c92:	bd1f      	pop	{r0, r1, r2, r3, r4, pc}

00006c94 <__aeabi_dcmpeq>:
    6c94:	b510      	push	{r4, lr}
    6c96:	f000 fe6f 	bl	7978 <__eqdf2>
    6c9a:	4240      	negs	r0, r0
    6c9c:	3001      	adds	r0, #1
    6c9e:	bd10      	pop	{r4, pc}

00006ca0 <__aeabi_dcmplt>:
    6ca0:	b510      	push	{r4, lr}
    6ca2:	f000 ff07 	bl	7ab4 <__ledf2>
    6ca6:	2800      	cmp	r0, #0
    6ca8:	db01      	blt.n	6cae <__aeabi_dcmplt+0xe>
    6caa:	2000      	movs	r0, #0
    6cac:	bd10      	pop	{r4, pc}
    6cae:	2001      	movs	r0, #1
    6cb0:	bd10      	pop	{r4, pc}
    6cb2:	46c0      	nop			; (mov r8, r8)

00006cb4 <__aeabi_dcmple>:
    6cb4:	b510      	push	{r4, lr}
    6cb6:	f000 fefd 	bl	7ab4 <__ledf2>
    6cba:	2800      	cmp	r0, #0
    6cbc:	dd01      	ble.n	6cc2 <__aeabi_dcmple+0xe>
    6cbe:	2000      	movs	r0, #0
    6cc0:	bd10      	pop	{r4, pc}
    6cc2:	2001      	movs	r0, #1
    6cc4:	bd10      	pop	{r4, pc}
    6cc6:	46c0      	nop			; (mov r8, r8)

00006cc8 <__aeabi_dcmpgt>:
    6cc8:	b510      	push	{r4, lr}
    6cca:	f000 fe8f 	bl	79ec <__gedf2>
    6cce:	2800      	cmp	r0, #0
    6cd0:	dc01      	bgt.n	6cd6 <__aeabi_dcmpgt+0xe>
    6cd2:	2000      	movs	r0, #0
    6cd4:	bd10      	pop	{r4, pc}
    6cd6:	2001      	movs	r0, #1
    6cd8:	bd10      	pop	{r4, pc}
    6cda:	46c0      	nop			; (mov r8, r8)

00006cdc <__aeabi_dcmpge>:
    6cdc:	b510      	push	{r4, lr}
    6cde:	f000 fe85 	bl	79ec <__gedf2>
    6ce2:	2800      	cmp	r0, #0
    6ce4:	da01      	bge.n	6cea <__aeabi_dcmpge+0xe>
    6ce6:	2000      	movs	r0, #0
    6ce8:	bd10      	pop	{r4, pc}
    6cea:	2001      	movs	r0, #1
    6cec:	bd10      	pop	{r4, pc}
    6cee:	46c0      	nop			; (mov r8, r8)

00006cf0 <__aeabi_dadd>:
    6cf0:	b5f8      	push	{r3, r4, r5, r6, r7, lr}
    6cf2:	4645      	mov	r5, r8
    6cf4:	46de      	mov	lr, fp
    6cf6:	4657      	mov	r7, sl
    6cf8:	464e      	mov	r6, r9
    6cfa:	030c      	lsls	r4, r1, #12
    6cfc:	b5e0      	push	{r5, r6, r7, lr}
    6cfe:	004e      	lsls	r6, r1, #1
    6d00:	0fc9      	lsrs	r1, r1, #31
    6d02:	4688      	mov	r8, r1
    6d04:	000d      	movs	r5, r1
    6d06:	0a61      	lsrs	r1, r4, #9
    6d08:	0f44      	lsrs	r4, r0, #29
    6d0a:	430c      	orrs	r4, r1
    6d0c:	00c7      	lsls	r7, r0, #3
    6d0e:	0319      	lsls	r1, r3, #12
    6d10:	0058      	lsls	r0, r3, #1
    6d12:	0fdb      	lsrs	r3, r3, #31
    6d14:	469b      	mov	fp, r3
    6d16:	0a4b      	lsrs	r3, r1, #9
    6d18:	0f51      	lsrs	r1, r2, #29
    6d1a:	430b      	orrs	r3, r1
    6d1c:	0d76      	lsrs	r6, r6, #21
    6d1e:	0d40      	lsrs	r0, r0, #21
    6d20:	0019      	movs	r1, r3
    6d22:	00d2      	lsls	r2, r2, #3
    6d24:	45d8      	cmp	r8, fp
    6d26:	d100      	bne.n	6d2a <__aeabi_dadd+0x3a>
    6d28:	e0ae      	b.n	6e88 <__aeabi_dadd+0x198>
    6d2a:	1a35      	subs	r5, r6, r0
    6d2c:	2d00      	cmp	r5, #0
    6d2e:	dc00      	bgt.n	6d32 <__aeabi_dadd+0x42>
    6d30:	e0f6      	b.n	6f20 <__aeabi_dadd+0x230>
    6d32:	2800      	cmp	r0, #0
    6d34:	d10f      	bne.n	6d56 <__aeabi_dadd+0x66>
    6d36:	4313      	orrs	r3, r2
    6d38:	d100      	bne.n	6d3c <__aeabi_dadd+0x4c>
    6d3a:	e0db      	b.n	6ef4 <__aeabi_dadd+0x204>
    6d3c:	1e6b      	subs	r3, r5, #1
    6d3e:	2b00      	cmp	r3, #0
    6d40:	d000      	beq.n	6d44 <__aeabi_dadd+0x54>
    6d42:	e137      	b.n	6fb4 <__aeabi_dadd+0x2c4>
    6d44:	1aba      	subs	r2, r7, r2
    6d46:	4297      	cmp	r7, r2
    6d48:	41bf      	sbcs	r7, r7
    6d4a:	1a64      	subs	r4, r4, r1
    6d4c:	427f      	negs	r7, r7
    6d4e:	1be4      	subs	r4, r4, r7
    6d50:	2601      	movs	r6, #1
    6d52:	0017      	movs	r7, r2
    6d54:	e024      	b.n	6da0 <__aeabi_dadd+0xb0>
    6d56:	4bc6      	ldr	r3, [pc, #792]	; (7070 <__aeabi_dadd+0x380>)
    6d58:	429e      	cmp	r6, r3
    6d5a:	d04d      	beq.n	6df8 <__aeabi_dadd+0x108>
    6d5c:	2380      	movs	r3, #128	; 0x80
    6d5e:	041b      	lsls	r3, r3, #16
    6d60:	4319      	orrs	r1, r3
    6d62:	2d38      	cmp	r5, #56	; 0x38
    6d64:	dd00      	ble.n	6d68 <__aeabi_dadd+0x78>
    6d66:	e107      	b.n	6f78 <__aeabi_dadd+0x288>
    6d68:	2d1f      	cmp	r5, #31
    6d6a:	dd00      	ble.n	6d6e <__aeabi_dadd+0x7e>
    6d6c:	e138      	b.n	6fe0 <__aeabi_dadd+0x2f0>
    6d6e:	2020      	movs	r0, #32
    6d70:	1b43      	subs	r3, r0, r5
    6d72:	469a      	mov	sl, r3
    6d74:	000b      	movs	r3, r1
    6d76:	4650      	mov	r0, sl
    6d78:	4083      	lsls	r3, r0
    6d7a:	4699      	mov	r9, r3
    6d7c:	0013      	movs	r3, r2
    6d7e:	4648      	mov	r0, r9
    6d80:	40eb      	lsrs	r3, r5
    6d82:	4318      	orrs	r0, r3
    6d84:	0003      	movs	r3, r0
    6d86:	4650      	mov	r0, sl
    6d88:	4082      	lsls	r2, r0
    6d8a:	1e50      	subs	r0, r2, #1
    6d8c:	4182      	sbcs	r2, r0
    6d8e:	40e9      	lsrs	r1, r5
    6d90:	431a      	orrs	r2, r3
    6d92:	1aba      	subs	r2, r7, r2
    6d94:	1a61      	subs	r1, r4, r1
    6d96:	4297      	cmp	r7, r2
    6d98:	41a4      	sbcs	r4, r4
    6d9a:	0017      	movs	r7, r2
    6d9c:	4264      	negs	r4, r4
    6d9e:	1b0c      	subs	r4, r1, r4
    6da0:	0223      	lsls	r3, r4, #8
    6da2:	d562      	bpl.n	6e6a <__aeabi_dadd+0x17a>
    6da4:	0264      	lsls	r4, r4, #9
    6da6:	0a65      	lsrs	r5, r4, #9
    6da8:	2d00      	cmp	r5, #0
    6daa:	d100      	bne.n	6dae <__aeabi_dadd+0xbe>
    6dac:	e0df      	b.n	6f6e <__aeabi_dadd+0x27e>
    6dae:	0028      	movs	r0, r5
    6db0:	f7fb ff98 	bl	2ce4 <__clzsi2>
    6db4:	0003      	movs	r3, r0
    6db6:	3b08      	subs	r3, #8
    6db8:	2b1f      	cmp	r3, #31
    6dba:	dd00      	ble.n	6dbe <__aeabi_dadd+0xce>
    6dbc:	e0d2      	b.n	6f64 <__aeabi_dadd+0x274>
    6dbe:	2220      	movs	r2, #32
    6dc0:	003c      	movs	r4, r7
    6dc2:	1ad2      	subs	r2, r2, r3
    6dc4:	409d      	lsls	r5, r3
    6dc6:	40d4      	lsrs	r4, r2
    6dc8:	409f      	lsls	r7, r3
    6dca:	4325      	orrs	r5, r4
    6dcc:	429e      	cmp	r6, r3
    6dce:	dd00      	ble.n	6dd2 <__aeabi_dadd+0xe2>
    6dd0:	e0c4      	b.n	6f5c <__aeabi_dadd+0x26c>
    6dd2:	1b9e      	subs	r6, r3, r6
    6dd4:	1c73      	adds	r3, r6, #1
    6dd6:	2b1f      	cmp	r3, #31
    6dd8:	dd00      	ble.n	6ddc <__aeabi_dadd+0xec>
    6dda:	e0f1      	b.n	6fc0 <__aeabi_dadd+0x2d0>
    6ddc:	2220      	movs	r2, #32
    6dde:	0038      	movs	r0, r7
    6de0:	0029      	movs	r1, r5
    6de2:	1ad2      	subs	r2, r2, r3
    6de4:	40d8      	lsrs	r0, r3
    6de6:	4091      	lsls	r1, r2
    6de8:	4097      	lsls	r7, r2
    6dea:	002c      	movs	r4, r5
    6dec:	4301      	orrs	r1, r0
    6dee:	1e78      	subs	r0, r7, #1
    6df0:	4187      	sbcs	r7, r0
    6df2:	40dc      	lsrs	r4, r3
    6df4:	2600      	movs	r6, #0
    6df6:	430f      	orrs	r7, r1
    6df8:	077b      	lsls	r3, r7, #29
    6dfa:	d009      	beq.n	6e10 <__aeabi_dadd+0x120>
    6dfc:	230f      	movs	r3, #15
    6dfe:	403b      	ands	r3, r7
    6e00:	2b04      	cmp	r3, #4
    6e02:	d005      	beq.n	6e10 <__aeabi_dadd+0x120>
    6e04:	1d3b      	adds	r3, r7, #4
    6e06:	42bb      	cmp	r3, r7
    6e08:	41bf      	sbcs	r7, r7
    6e0a:	427f      	negs	r7, r7
    6e0c:	19e4      	adds	r4, r4, r7
    6e0e:	001f      	movs	r7, r3
    6e10:	0223      	lsls	r3, r4, #8
    6e12:	d52c      	bpl.n	6e6e <__aeabi_dadd+0x17e>
    6e14:	4b96      	ldr	r3, [pc, #600]	; (7070 <__aeabi_dadd+0x380>)
    6e16:	3601      	adds	r6, #1
    6e18:	429e      	cmp	r6, r3
    6e1a:	d100      	bne.n	6e1e <__aeabi_dadd+0x12e>
    6e1c:	e09a      	b.n	6f54 <__aeabi_dadd+0x264>
    6e1e:	4645      	mov	r5, r8
    6e20:	4b94      	ldr	r3, [pc, #592]	; (7074 <__aeabi_dadd+0x384>)
    6e22:	08ff      	lsrs	r7, r7, #3
    6e24:	401c      	ands	r4, r3
    6e26:	0760      	lsls	r0, r4, #29
    6e28:	0576      	lsls	r6, r6, #21
    6e2a:	0264      	lsls	r4, r4, #9
    6e2c:	4307      	orrs	r7, r0
    6e2e:	0b24      	lsrs	r4, r4, #12
    6e30:	0d76      	lsrs	r6, r6, #21
    6e32:	2100      	movs	r1, #0
    6e34:	0324      	lsls	r4, r4, #12
    6e36:	0b23      	lsrs	r3, r4, #12
    6e38:	0d0c      	lsrs	r4, r1, #20
    6e3a:	4a8f      	ldr	r2, [pc, #572]	; (7078 <__aeabi_dadd+0x388>)
    6e3c:	0524      	lsls	r4, r4, #20
    6e3e:	431c      	orrs	r4, r3
    6e40:	4014      	ands	r4, r2
    6e42:	0533      	lsls	r3, r6, #20
    6e44:	4323      	orrs	r3, r4
    6e46:	005b      	lsls	r3, r3, #1
    6e48:	07ed      	lsls	r5, r5, #31
    6e4a:	085b      	lsrs	r3, r3, #1
    6e4c:	432b      	orrs	r3, r5
    6e4e:	0038      	movs	r0, r7
    6e50:	0019      	movs	r1, r3
    6e52:	bc3c      	pop	{r2, r3, r4, r5}
    6e54:	4690      	mov	r8, r2
    6e56:	4699      	mov	r9, r3
    6e58:	46a2      	mov	sl, r4
    6e5a:	46ab      	mov	fp, r5
    6e5c:	bdf8      	pop	{r3, r4, r5, r6, r7, pc}
    6e5e:	4664      	mov	r4, ip
    6e60:	4304      	orrs	r4, r0
    6e62:	d100      	bne.n	6e66 <__aeabi_dadd+0x176>
    6e64:	e211      	b.n	728a <__aeabi_dadd+0x59a>
    6e66:	0004      	movs	r4, r0
    6e68:	4667      	mov	r7, ip
    6e6a:	077b      	lsls	r3, r7, #29
    6e6c:	d1c6      	bne.n	6dfc <__aeabi_dadd+0x10c>
    6e6e:	4645      	mov	r5, r8
    6e70:	0760      	lsls	r0, r4, #29
    6e72:	08ff      	lsrs	r7, r7, #3
    6e74:	4307      	orrs	r7, r0
    6e76:	08e4      	lsrs	r4, r4, #3
    6e78:	4b7d      	ldr	r3, [pc, #500]	; (7070 <__aeabi_dadd+0x380>)
    6e7a:	429e      	cmp	r6, r3
    6e7c:	d030      	beq.n	6ee0 <__aeabi_dadd+0x1f0>
    6e7e:	0324      	lsls	r4, r4, #12
    6e80:	0576      	lsls	r6, r6, #21
    6e82:	0b24      	lsrs	r4, r4, #12
    6e84:	0d76      	lsrs	r6, r6, #21
    6e86:	e7d4      	b.n	6e32 <__aeabi_dadd+0x142>
    6e88:	1a33      	subs	r3, r6, r0
    6e8a:	469a      	mov	sl, r3
    6e8c:	2b00      	cmp	r3, #0
    6e8e:	dd78      	ble.n	6f82 <__aeabi_dadd+0x292>
    6e90:	2800      	cmp	r0, #0
    6e92:	d031      	beq.n	6ef8 <__aeabi_dadd+0x208>
    6e94:	4876      	ldr	r0, [pc, #472]	; (7070 <__aeabi_dadd+0x380>)
    6e96:	4286      	cmp	r6, r0
    6e98:	d0ae      	beq.n	6df8 <__aeabi_dadd+0x108>
    6e9a:	2080      	movs	r0, #128	; 0x80
    6e9c:	0400      	lsls	r0, r0, #16
    6e9e:	4301      	orrs	r1, r0
    6ea0:	4653      	mov	r3, sl
    6ea2:	2b38      	cmp	r3, #56	; 0x38
    6ea4:	dc00      	bgt.n	6ea8 <__aeabi_dadd+0x1b8>
    6ea6:	e0e9      	b.n	707c <__aeabi_dadd+0x38c>
    6ea8:	430a      	orrs	r2, r1
    6eaa:	1e51      	subs	r1, r2, #1
    6eac:	418a      	sbcs	r2, r1
    6eae:	2100      	movs	r1, #0
    6eb0:	19d2      	adds	r2, r2, r7
    6eb2:	42ba      	cmp	r2, r7
    6eb4:	41bf      	sbcs	r7, r7
    6eb6:	1909      	adds	r1, r1, r4
    6eb8:	427c      	negs	r4, r7
    6eba:	0017      	movs	r7, r2
    6ebc:	190c      	adds	r4, r1, r4
    6ebe:	0223      	lsls	r3, r4, #8
    6ec0:	d5d3      	bpl.n	6e6a <__aeabi_dadd+0x17a>
    6ec2:	4b6b      	ldr	r3, [pc, #428]	; (7070 <__aeabi_dadd+0x380>)
    6ec4:	3601      	adds	r6, #1
    6ec6:	429e      	cmp	r6, r3
    6ec8:	d100      	bne.n	6ecc <__aeabi_dadd+0x1dc>
    6eca:	e13a      	b.n	7142 <__aeabi_dadd+0x452>
    6ecc:	2001      	movs	r0, #1
    6ece:	4b69      	ldr	r3, [pc, #420]	; (7074 <__aeabi_dadd+0x384>)
    6ed0:	401c      	ands	r4, r3
    6ed2:	087b      	lsrs	r3, r7, #1
    6ed4:	4007      	ands	r7, r0
    6ed6:	431f      	orrs	r7, r3
    6ed8:	07e0      	lsls	r0, r4, #31
    6eda:	4307      	orrs	r7, r0
    6edc:	0864      	lsrs	r4, r4, #1
    6ede:	e78b      	b.n	6df8 <__aeabi_dadd+0x108>
    6ee0:	0023      	movs	r3, r4
    6ee2:	433b      	orrs	r3, r7
    6ee4:	d100      	bne.n	6ee8 <__aeabi_dadd+0x1f8>
    6ee6:	e1cb      	b.n	7280 <__aeabi_dadd+0x590>
    6ee8:	2280      	movs	r2, #128	; 0x80
    6eea:	0312      	lsls	r2, r2, #12
    6eec:	4314      	orrs	r4, r2
    6eee:	0324      	lsls	r4, r4, #12
    6ef0:	0b24      	lsrs	r4, r4, #12
    6ef2:	e79e      	b.n	6e32 <__aeabi_dadd+0x142>
    6ef4:	002e      	movs	r6, r5
    6ef6:	e77f      	b.n	6df8 <__aeabi_dadd+0x108>
    6ef8:	0008      	movs	r0, r1
    6efa:	4310      	orrs	r0, r2
    6efc:	d100      	bne.n	6f00 <__aeabi_dadd+0x210>
    6efe:	e0b4      	b.n	706a <__aeabi_dadd+0x37a>
    6f00:	1e58      	subs	r0, r3, #1
    6f02:	2800      	cmp	r0, #0
    6f04:	d000      	beq.n	6f08 <__aeabi_dadd+0x218>
    6f06:	e0de      	b.n	70c6 <__aeabi_dadd+0x3d6>
    6f08:	18ba      	adds	r2, r7, r2
    6f0a:	42ba      	cmp	r2, r7
    6f0c:	419b      	sbcs	r3, r3
    6f0e:	1864      	adds	r4, r4, r1
    6f10:	425b      	negs	r3, r3
    6f12:	18e4      	adds	r4, r4, r3
    6f14:	0017      	movs	r7, r2
    6f16:	2601      	movs	r6, #1
    6f18:	0223      	lsls	r3, r4, #8
    6f1a:	d5a6      	bpl.n	6e6a <__aeabi_dadd+0x17a>
    6f1c:	2602      	movs	r6, #2
    6f1e:	e7d5      	b.n	6ecc <__aeabi_dadd+0x1dc>
    6f20:	2d00      	cmp	r5, #0
    6f22:	d16e      	bne.n	7002 <__aeabi_dadd+0x312>
    6f24:	1c70      	adds	r0, r6, #1
    6f26:	0540      	lsls	r0, r0, #21
    6f28:	0d40      	lsrs	r0, r0, #21
    6f2a:	2801      	cmp	r0, #1
    6f2c:	dc00      	bgt.n	6f30 <__aeabi_dadd+0x240>
    6f2e:	e0f9      	b.n	7124 <__aeabi_dadd+0x434>
    6f30:	1ab8      	subs	r0, r7, r2
    6f32:	4684      	mov	ip, r0
    6f34:	4287      	cmp	r7, r0
    6f36:	4180      	sbcs	r0, r0
    6f38:	1ae5      	subs	r5, r4, r3
    6f3a:	4240      	negs	r0, r0
    6f3c:	1a2d      	subs	r5, r5, r0
    6f3e:	0228      	lsls	r0, r5, #8
    6f40:	d400      	bmi.n	6f44 <__aeabi_dadd+0x254>
    6f42:	e089      	b.n	7058 <__aeabi_dadd+0x368>
    6f44:	1bd7      	subs	r7, r2, r7
    6f46:	42ba      	cmp	r2, r7
    6f48:	4192      	sbcs	r2, r2
    6f4a:	1b1c      	subs	r4, r3, r4
    6f4c:	4252      	negs	r2, r2
    6f4e:	1aa5      	subs	r5, r4, r2
    6f50:	46d8      	mov	r8, fp
    6f52:	e729      	b.n	6da8 <__aeabi_dadd+0xb8>
    6f54:	4645      	mov	r5, r8
    6f56:	2400      	movs	r4, #0
    6f58:	2700      	movs	r7, #0
    6f5a:	e76a      	b.n	6e32 <__aeabi_dadd+0x142>
    6f5c:	4c45      	ldr	r4, [pc, #276]	; (7074 <__aeabi_dadd+0x384>)
    6f5e:	1af6      	subs	r6, r6, r3
    6f60:	402c      	ands	r4, r5
    6f62:	e749      	b.n	6df8 <__aeabi_dadd+0x108>
    6f64:	003d      	movs	r5, r7
    6f66:	3828      	subs	r0, #40	; 0x28
    6f68:	4085      	lsls	r5, r0
    6f6a:	2700      	movs	r7, #0
    6f6c:	e72e      	b.n	6dcc <__aeabi_dadd+0xdc>
    6f6e:	0038      	movs	r0, r7
    6f70:	f7fb feb8 	bl	2ce4 <__clzsi2>
    6f74:	3020      	adds	r0, #32
    6f76:	e71d      	b.n	6db4 <__aeabi_dadd+0xc4>
    6f78:	430a      	orrs	r2, r1
    6f7a:	1e51      	subs	r1, r2, #1
    6f7c:	418a      	sbcs	r2, r1
    6f7e:	2100      	movs	r1, #0
    6f80:	e707      	b.n	6d92 <__aeabi_dadd+0xa2>
    6f82:	2b00      	cmp	r3, #0
    6f84:	d000      	beq.n	6f88 <__aeabi_dadd+0x298>
    6f86:	e0f3      	b.n	7170 <__aeabi_dadd+0x480>
    6f88:	1c70      	adds	r0, r6, #1
    6f8a:	0543      	lsls	r3, r0, #21
    6f8c:	0d5b      	lsrs	r3, r3, #21
    6f8e:	2b01      	cmp	r3, #1
    6f90:	dc00      	bgt.n	6f94 <__aeabi_dadd+0x2a4>
    6f92:	e0ad      	b.n	70f0 <__aeabi_dadd+0x400>
    6f94:	4b36      	ldr	r3, [pc, #216]	; (7070 <__aeabi_dadd+0x380>)
    6f96:	4298      	cmp	r0, r3
    6f98:	d100      	bne.n	6f9c <__aeabi_dadd+0x2ac>
    6f9a:	e0d1      	b.n	7140 <__aeabi_dadd+0x450>
    6f9c:	18ba      	adds	r2, r7, r2
    6f9e:	42ba      	cmp	r2, r7
    6fa0:	41bf      	sbcs	r7, r7
    6fa2:	1864      	adds	r4, r4, r1
    6fa4:	427f      	negs	r7, r7
    6fa6:	19e4      	adds	r4, r4, r7
    6fa8:	07e7      	lsls	r7, r4, #31
    6faa:	0852      	lsrs	r2, r2, #1
    6fac:	4317      	orrs	r7, r2
    6fae:	0864      	lsrs	r4, r4, #1
    6fb0:	0006      	movs	r6, r0
    6fb2:	e721      	b.n	6df8 <__aeabi_dadd+0x108>
    6fb4:	482e      	ldr	r0, [pc, #184]	; (7070 <__aeabi_dadd+0x380>)
    6fb6:	4285      	cmp	r5, r0
    6fb8:	d100      	bne.n	6fbc <__aeabi_dadd+0x2cc>
    6fba:	e093      	b.n	70e4 <__aeabi_dadd+0x3f4>
    6fbc:	001d      	movs	r5, r3
    6fbe:	e6d0      	b.n	6d62 <__aeabi_dadd+0x72>
    6fc0:	0029      	movs	r1, r5
    6fc2:	3e1f      	subs	r6, #31
    6fc4:	40f1      	lsrs	r1, r6
    6fc6:	2b20      	cmp	r3, #32
    6fc8:	d100      	bne.n	6fcc <__aeabi_dadd+0x2dc>
    6fca:	e08d      	b.n	70e8 <__aeabi_dadd+0x3f8>
    6fcc:	2240      	movs	r2, #64	; 0x40
    6fce:	1ad3      	subs	r3, r2, r3
    6fd0:	409d      	lsls	r5, r3
    6fd2:	432f      	orrs	r7, r5
    6fd4:	1e7d      	subs	r5, r7, #1
    6fd6:	41af      	sbcs	r7, r5
    6fd8:	2400      	movs	r4, #0
    6fda:	430f      	orrs	r7, r1
    6fdc:	2600      	movs	r6, #0
    6fde:	e744      	b.n	6e6a <__aeabi_dadd+0x17a>
    6fe0:	002b      	movs	r3, r5
    6fe2:	0008      	movs	r0, r1
    6fe4:	3b20      	subs	r3, #32
    6fe6:	40d8      	lsrs	r0, r3
    6fe8:	0003      	movs	r3, r0
    6fea:	2d20      	cmp	r5, #32
    6fec:	d100      	bne.n	6ff0 <__aeabi_dadd+0x300>
    6fee:	e07d      	b.n	70ec <__aeabi_dadd+0x3fc>
    6ff0:	2040      	movs	r0, #64	; 0x40
    6ff2:	1b45      	subs	r5, r0, r5
    6ff4:	40a9      	lsls	r1, r5
    6ff6:	430a      	orrs	r2, r1
    6ff8:	1e51      	subs	r1, r2, #1
    6ffa:	418a      	sbcs	r2, r1
    6ffc:	2100      	movs	r1, #0
    6ffe:	431a      	orrs	r2, r3
    7000:	e6c7      	b.n	6d92 <__aeabi_dadd+0xa2>
    7002:	2e00      	cmp	r6, #0
    7004:	d050      	beq.n	70a8 <__aeabi_dadd+0x3b8>
    7006:	4e1a      	ldr	r6, [pc, #104]	; (7070 <__aeabi_dadd+0x380>)
    7008:	42b0      	cmp	r0, r6
    700a:	d057      	beq.n	70bc <__aeabi_dadd+0x3cc>
    700c:	2680      	movs	r6, #128	; 0x80
    700e:	426b      	negs	r3, r5
    7010:	4699      	mov	r9, r3
    7012:	0436      	lsls	r6, r6, #16
    7014:	4334      	orrs	r4, r6
    7016:	464b      	mov	r3, r9
    7018:	2b38      	cmp	r3, #56	; 0x38
    701a:	dd00      	ble.n	701e <__aeabi_dadd+0x32e>
    701c:	e0d6      	b.n	71cc <__aeabi_dadd+0x4dc>
    701e:	2b1f      	cmp	r3, #31
    7020:	dd00      	ble.n	7024 <__aeabi_dadd+0x334>
    7022:	e135      	b.n	7290 <__aeabi_dadd+0x5a0>
    7024:	2620      	movs	r6, #32
    7026:	1af5      	subs	r5, r6, r3
    7028:	0026      	movs	r6, r4
    702a:	40ae      	lsls	r6, r5
    702c:	46b2      	mov	sl, r6
    702e:	003e      	movs	r6, r7
    7030:	40de      	lsrs	r6, r3
    7032:	46ac      	mov	ip, r5
    7034:	0035      	movs	r5, r6
    7036:	4656      	mov	r6, sl
    7038:	432e      	orrs	r6, r5
    703a:	4665      	mov	r5, ip
    703c:	40af      	lsls	r7, r5
    703e:	1e7d      	subs	r5, r7, #1
    7040:	41af      	sbcs	r7, r5
    7042:	40dc      	lsrs	r4, r3
    7044:	4337      	orrs	r7, r6
    7046:	1bd7      	subs	r7, r2, r7
    7048:	42ba      	cmp	r2, r7
    704a:	4192      	sbcs	r2, r2
    704c:	1b0c      	subs	r4, r1, r4
    704e:	4252      	negs	r2, r2
    7050:	1aa4      	subs	r4, r4, r2
    7052:	0006      	movs	r6, r0
    7054:	46d8      	mov	r8, fp
    7056:	e6a3      	b.n	6da0 <__aeabi_dadd+0xb0>
    7058:	4664      	mov	r4, ip
    705a:	4667      	mov	r7, ip
    705c:	432c      	orrs	r4, r5
    705e:	d000      	beq.n	7062 <__aeabi_dadd+0x372>
    7060:	e6a2      	b.n	6da8 <__aeabi_dadd+0xb8>
    7062:	2500      	movs	r5, #0
    7064:	2600      	movs	r6, #0
    7066:	2700      	movs	r7, #0
    7068:	e706      	b.n	6e78 <__aeabi_dadd+0x188>
    706a:	001e      	movs	r6, r3
    706c:	e6c4      	b.n	6df8 <__aeabi_dadd+0x108>
    706e:	46c0      	nop			; (mov r8, r8)
    7070:	000007ff 	.word	0x000007ff
    7074:	ff7fffff 	.word	0xff7fffff
    7078:	800fffff 	.word	0x800fffff
    707c:	2b1f      	cmp	r3, #31
    707e:	dc63      	bgt.n	7148 <__aeabi_dadd+0x458>
    7080:	2020      	movs	r0, #32
    7082:	1ac3      	subs	r3, r0, r3
    7084:	0008      	movs	r0, r1
    7086:	4098      	lsls	r0, r3
    7088:	469c      	mov	ip, r3
    708a:	4683      	mov	fp, r0
    708c:	4653      	mov	r3, sl
    708e:	0010      	movs	r0, r2
    7090:	40d8      	lsrs	r0, r3
    7092:	0003      	movs	r3, r0
    7094:	4658      	mov	r0, fp
    7096:	4318      	orrs	r0, r3
    7098:	4663      	mov	r3, ip
    709a:	409a      	lsls	r2, r3
    709c:	1e53      	subs	r3, r2, #1
    709e:	419a      	sbcs	r2, r3
    70a0:	4653      	mov	r3, sl
    70a2:	4302      	orrs	r2, r0
    70a4:	40d9      	lsrs	r1, r3
    70a6:	e703      	b.n	6eb0 <__aeabi_dadd+0x1c0>
    70a8:	0026      	movs	r6, r4
    70aa:	433e      	orrs	r6, r7
    70ac:	d006      	beq.n	70bc <__aeabi_dadd+0x3cc>
    70ae:	43eb      	mvns	r3, r5
    70b0:	4699      	mov	r9, r3
    70b2:	2b00      	cmp	r3, #0
    70b4:	d0c7      	beq.n	7046 <__aeabi_dadd+0x356>
    70b6:	4e94      	ldr	r6, [pc, #592]	; (7308 <__aeabi_dadd+0x618>)
    70b8:	42b0      	cmp	r0, r6
    70ba:	d1ac      	bne.n	7016 <__aeabi_dadd+0x326>
    70bc:	000c      	movs	r4, r1
    70be:	0017      	movs	r7, r2
    70c0:	0006      	movs	r6, r0
    70c2:	46d8      	mov	r8, fp
    70c4:	e698      	b.n	6df8 <__aeabi_dadd+0x108>
    70c6:	4b90      	ldr	r3, [pc, #576]	; (7308 <__aeabi_dadd+0x618>)
    70c8:	459a      	cmp	sl, r3
    70ca:	d00b      	beq.n	70e4 <__aeabi_dadd+0x3f4>
    70cc:	4682      	mov	sl, r0
    70ce:	e6e7      	b.n	6ea0 <__aeabi_dadd+0x1b0>
    70d0:	2800      	cmp	r0, #0
    70d2:	d000      	beq.n	70d6 <__aeabi_dadd+0x3e6>
    70d4:	e09e      	b.n	7214 <__aeabi_dadd+0x524>
    70d6:	0018      	movs	r0, r3
    70d8:	4310      	orrs	r0, r2
    70da:	d100      	bne.n	70de <__aeabi_dadd+0x3ee>
    70dc:	e0e9      	b.n	72b2 <__aeabi_dadd+0x5c2>
    70de:	001c      	movs	r4, r3
    70e0:	0017      	movs	r7, r2
    70e2:	46d8      	mov	r8, fp
    70e4:	4e88      	ldr	r6, [pc, #544]	; (7308 <__aeabi_dadd+0x618>)
    70e6:	e687      	b.n	6df8 <__aeabi_dadd+0x108>
    70e8:	2500      	movs	r5, #0
    70ea:	e772      	b.n	6fd2 <__aeabi_dadd+0x2e2>
    70ec:	2100      	movs	r1, #0
    70ee:	e782      	b.n	6ff6 <__aeabi_dadd+0x306>
    70f0:	0023      	movs	r3, r4
    70f2:	433b      	orrs	r3, r7
    70f4:	2e00      	cmp	r6, #0
    70f6:	d000      	beq.n	70fa <__aeabi_dadd+0x40a>
    70f8:	e0ab      	b.n	7252 <__aeabi_dadd+0x562>
    70fa:	2b00      	cmp	r3, #0
    70fc:	d100      	bne.n	7100 <__aeabi_dadd+0x410>
    70fe:	e0e7      	b.n	72d0 <__aeabi_dadd+0x5e0>
    7100:	000b      	movs	r3, r1
    7102:	4313      	orrs	r3, r2
    7104:	d100      	bne.n	7108 <__aeabi_dadd+0x418>
    7106:	e677      	b.n	6df8 <__aeabi_dadd+0x108>
    7108:	18ba      	adds	r2, r7, r2
    710a:	42ba      	cmp	r2, r7
    710c:	41bf      	sbcs	r7, r7
    710e:	1864      	adds	r4, r4, r1
    7110:	427f      	negs	r7, r7
    7112:	19e4      	adds	r4, r4, r7
    7114:	0223      	lsls	r3, r4, #8
    7116:	d400      	bmi.n	711a <__aeabi_dadd+0x42a>
    7118:	e0f2      	b.n	7300 <__aeabi_dadd+0x610>
    711a:	4b7c      	ldr	r3, [pc, #496]	; (730c <__aeabi_dadd+0x61c>)
    711c:	0017      	movs	r7, r2
    711e:	401c      	ands	r4, r3
    7120:	0006      	movs	r6, r0
    7122:	e669      	b.n	6df8 <__aeabi_dadd+0x108>
    7124:	0020      	movs	r0, r4
    7126:	4338      	orrs	r0, r7
    7128:	2e00      	cmp	r6, #0
    712a:	d1d1      	bne.n	70d0 <__aeabi_dadd+0x3e0>
    712c:	2800      	cmp	r0, #0
    712e:	d15b      	bne.n	71e8 <__aeabi_dadd+0x4f8>
    7130:	001c      	movs	r4, r3
    7132:	4314      	orrs	r4, r2
    7134:	d100      	bne.n	7138 <__aeabi_dadd+0x448>
    7136:	e0a8      	b.n	728a <__aeabi_dadd+0x59a>
    7138:	001c      	movs	r4, r3
    713a:	0017      	movs	r7, r2
    713c:	46d8      	mov	r8, fp
    713e:	e65b      	b.n	6df8 <__aeabi_dadd+0x108>
    7140:	0006      	movs	r6, r0
    7142:	2400      	movs	r4, #0
    7144:	2700      	movs	r7, #0
    7146:	e697      	b.n	6e78 <__aeabi_dadd+0x188>
    7148:	4650      	mov	r0, sl
    714a:	000b      	movs	r3, r1
    714c:	3820      	subs	r0, #32
    714e:	40c3      	lsrs	r3, r0
    7150:	4699      	mov	r9, r3
    7152:	4653      	mov	r3, sl
    7154:	2b20      	cmp	r3, #32
    7156:	d100      	bne.n	715a <__aeabi_dadd+0x46a>
    7158:	e095      	b.n	7286 <__aeabi_dadd+0x596>
    715a:	2340      	movs	r3, #64	; 0x40
    715c:	4650      	mov	r0, sl
    715e:	1a1b      	subs	r3, r3, r0
    7160:	4099      	lsls	r1, r3
    7162:	430a      	orrs	r2, r1
    7164:	1e51      	subs	r1, r2, #1
    7166:	418a      	sbcs	r2, r1
    7168:	464b      	mov	r3, r9
    716a:	2100      	movs	r1, #0
    716c:	431a      	orrs	r2, r3
    716e:	e69f      	b.n	6eb0 <__aeabi_dadd+0x1c0>
    7170:	2e00      	cmp	r6, #0
    7172:	d130      	bne.n	71d6 <__aeabi_dadd+0x4e6>
    7174:	0026      	movs	r6, r4
    7176:	433e      	orrs	r6, r7
    7178:	d067      	beq.n	724a <__aeabi_dadd+0x55a>
    717a:	43db      	mvns	r3, r3
    717c:	469a      	mov	sl, r3
    717e:	2b00      	cmp	r3, #0
    7180:	d01c      	beq.n	71bc <__aeabi_dadd+0x4cc>
    7182:	4e61      	ldr	r6, [pc, #388]	; (7308 <__aeabi_dadd+0x618>)
    7184:	42b0      	cmp	r0, r6
    7186:	d060      	beq.n	724a <__aeabi_dadd+0x55a>
    7188:	4653      	mov	r3, sl
    718a:	2b38      	cmp	r3, #56	; 0x38
    718c:	dd00      	ble.n	7190 <__aeabi_dadd+0x4a0>
    718e:	e096      	b.n	72be <__aeabi_dadd+0x5ce>
    7190:	2b1f      	cmp	r3, #31
    7192:	dd00      	ble.n	7196 <__aeabi_dadd+0x4a6>
    7194:	e09f      	b.n	72d6 <__aeabi_dadd+0x5e6>
    7196:	2620      	movs	r6, #32
    7198:	1af3      	subs	r3, r6, r3
    719a:	0026      	movs	r6, r4
    719c:	409e      	lsls	r6, r3
    719e:	469c      	mov	ip, r3
    71a0:	46b3      	mov	fp, r6
    71a2:	4653      	mov	r3, sl
    71a4:	003e      	movs	r6, r7
    71a6:	40de      	lsrs	r6, r3
    71a8:	0033      	movs	r3, r6
    71aa:	465e      	mov	r6, fp
    71ac:	431e      	orrs	r6, r3
    71ae:	4663      	mov	r3, ip
    71b0:	409f      	lsls	r7, r3
    71b2:	1e7b      	subs	r3, r7, #1
    71b4:	419f      	sbcs	r7, r3
    71b6:	4653      	mov	r3, sl
    71b8:	40dc      	lsrs	r4, r3
    71ba:	4337      	orrs	r7, r6
    71bc:	18bf      	adds	r7, r7, r2
    71be:	4297      	cmp	r7, r2
    71c0:	4192      	sbcs	r2, r2
    71c2:	1864      	adds	r4, r4, r1
    71c4:	4252      	negs	r2, r2
    71c6:	18a4      	adds	r4, r4, r2
    71c8:	0006      	movs	r6, r0
    71ca:	e678      	b.n	6ebe <__aeabi_dadd+0x1ce>
    71cc:	4327      	orrs	r7, r4
    71ce:	1e7c      	subs	r4, r7, #1
    71d0:	41a7      	sbcs	r7, r4
    71d2:	2400      	movs	r4, #0
    71d4:	e737      	b.n	7046 <__aeabi_dadd+0x356>
    71d6:	4e4c      	ldr	r6, [pc, #304]	; (7308 <__aeabi_dadd+0x618>)
    71d8:	42b0      	cmp	r0, r6
    71da:	d036      	beq.n	724a <__aeabi_dadd+0x55a>
    71dc:	2680      	movs	r6, #128	; 0x80
    71de:	425b      	negs	r3, r3
    71e0:	0436      	lsls	r6, r6, #16
    71e2:	469a      	mov	sl, r3
    71e4:	4334      	orrs	r4, r6
    71e6:	e7cf      	b.n	7188 <__aeabi_dadd+0x498>
    71e8:	0018      	movs	r0, r3
    71ea:	4310      	orrs	r0, r2
    71ec:	d100      	bne.n	71f0 <__aeabi_dadd+0x500>
    71ee:	e603      	b.n	6df8 <__aeabi_dadd+0x108>
    71f0:	1ab8      	subs	r0, r7, r2
    71f2:	4684      	mov	ip, r0
    71f4:	4567      	cmp	r7, ip
    71f6:	41ad      	sbcs	r5, r5
    71f8:	1ae0      	subs	r0, r4, r3
    71fa:	426d      	negs	r5, r5
    71fc:	1b40      	subs	r0, r0, r5
    71fe:	0205      	lsls	r5, r0, #8
    7200:	d400      	bmi.n	7204 <__aeabi_dadd+0x514>
    7202:	e62c      	b.n	6e5e <__aeabi_dadd+0x16e>
    7204:	1bd7      	subs	r7, r2, r7
    7206:	42ba      	cmp	r2, r7
    7208:	4192      	sbcs	r2, r2
    720a:	1b1c      	subs	r4, r3, r4
    720c:	4252      	negs	r2, r2
    720e:	1aa4      	subs	r4, r4, r2
    7210:	46d8      	mov	r8, fp
    7212:	e5f1      	b.n	6df8 <__aeabi_dadd+0x108>
    7214:	0018      	movs	r0, r3
    7216:	4310      	orrs	r0, r2
    7218:	d100      	bne.n	721c <__aeabi_dadd+0x52c>
    721a:	e763      	b.n	70e4 <__aeabi_dadd+0x3f4>
    721c:	08f8      	lsrs	r0, r7, #3
    721e:	0767      	lsls	r7, r4, #29
    7220:	4307      	orrs	r7, r0
    7222:	2080      	movs	r0, #128	; 0x80
    7224:	08e4      	lsrs	r4, r4, #3
    7226:	0300      	lsls	r0, r0, #12
    7228:	4204      	tst	r4, r0
    722a:	d008      	beq.n	723e <__aeabi_dadd+0x54e>
    722c:	08dd      	lsrs	r5, r3, #3
    722e:	4205      	tst	r5, r0
    7230:	d105      	bne.n	723e <__aeabi_dadd+0x54e>
    7232:	08d2      	lsrs	r2, r2, #3
    7234:	0759      	lsls	r1, r3, #29
    7236:	4311      	orrs	r1, r2
    7238:	000f      	movs	r7, r1
    723a:	002c      	movs	r4, r5
    723c:	46d8      	mov	r8, fp
    723e:	0f7b      	lsrs	r3, r7, #29
    7240:	00e4      	lsls	r4, r4, #3
    7242:	431c      	orrs	r4, r3
    7244:	00ff      	lsls	r7, r7, #3
    7246:	4e30      	ldr	r6, [pc, #192]	; (7308 <__aeabi_dadd+0x618>)
    7248:	e5d6      	b.n	6df8 <__aeabi_dadd+0x108>
    724a:	000c      	movs	r4, r1
    724c:	0017      	movs	r7, r2
    724e:	0006      	movs	r6, r0
    7250:	e5d2      	b.n	6df8 <__aeabi_dadd+0x108>
    7252:	2b00      	cmp	r3, #0
    7254:	d038      	beq.n	72c8 <__aeabi_dadd+0x5d8>
    7256:	000b      	movs	r3, r1
    7258:	4313      	orrs	r3, r2
    725a:	d100      	bne.n	725e <__aeabi_dadd+0x56e>
    725c:	e742      	b.n	70e4 <__aeabi_dadd+0x3f4>
    725e:	08f8      	lsrs	r0, r7, #3
    7260:	0767      	lsls	r7, r4, #29
    7262:	4307      	orrs	r7, r0
    7264:	2080      	movs	r0, #128	; 0x80
    7266:	08e4      	lsrs	r4, r4, #3
    7268:	0300      	lsls	r0, r0, #12
    726a:	4204      	tst	r4, r0
    726c:	d0e7      	beq.n	723e <__aeabi_dadd+0x54e>
    726e:	08cb      	lsrs	r3, r1, #3
    7270:	4203      	tst	r3, r0
    7272:	d1e4      	bne.n	723e <__aeabi_dadd+0x54e>
    7274:	08d2      	lsrs	r2, r2, #3
    7276:	0749      	lsls	r1, r1, #29
    7278:	4311      	orrs	r1, r2
    727a:	000f      	movs	r7, r1
    727c:	001c      	movs	r4, r3
    727e:	e7de      	b.n	723e <__aeabi_dadd+0x54e>
    7280:	2700      	movs	r7, #0
    7282:	2400      	movs	r4, #0
    7284:	e5d5      	b.n	6e32 <__aeabi_dadd+0x142>
    7286:	2100      	movs	r1, #0
    7288:	e76b      	b.n	7162 <__aeabi_dadd+0x472>
    728a:	2500      	movs	r5, #0
    728c:	2700      	movs	r7, #0
    728e:	e5f3      	b.n	6e78 <__aeabi_dadd+0x188>
    7290:	464e      	mov	r6, r9
    7292:	0025      	movs	r5, r4
    7294:	3e20      	subs	r6, #32
    7296:	40f5      	lsrs	r5, r6
    7298:	464b      	mov	r3, r9
    729a:	002e      	movs	r6, r5
    729c:	2b20      	cmp	r3, #32
    729e:	d02d      	beq.n	72fc <__aeabi_dadd+0x60c>
    72a0:	2540      	movs	r5, #64	; 0x40
    72a2:	1aed      	subs	r5, r5, r3
    72a4:	40ac      	lsls	r4, r5
    72a6:	4327      	orrs	r7, r4
    72a8:	1e7c      	subs	r4, r7, #1
    72aa:	41a7      	sbcs	r7, r4
    72ac:	2400      	movs	r4, #0
    72ae:	4337      	orrs	r7, r6
    72b0:	e6c9      	b.n	7046 <__aeabi_dadd+0x356>
    72b2:	2480      	movs	r4, #128	; 0x80
    72b4:	2500      	movs	r5, #0
    72b6:	0324      	lsls	r4, r4, #12
    72b8:	4e13      	ldr	r6, [pc, #76]	; (7308 <__aeabi_dadd+0x618>)
    72ba:	2700      	movs	r7, #0
    72bc:	e5dc      	b.n	6e78 <__aeabi_dadd+0x188>
    72be:	4327      	orrs	r7, r4
    72c0:	1e7c      	subs	r4, r7, #1
    72c2:	41a7      	sbcs	r7, r4
    72c4:	2400      	movs	r4, #0
    72c6:	e779      	b.n	71bc <__aeabi_dadd+0x4cc>
    72c8:	000c      	movs	r4, r1
    72ca:	0017      	movs	r7, r2
    72cc:	4e0e      	ldr	r6, [pc, #56]	; (7308 <__aeabi_dadd+0x618>)
    72ce:	e593      	b.n	6df8 <__aeabi_dadd+0x108>
    72d0:	000c      	movs	r4, r1
    72d2:	0017      	movs	r7, r2
    72d4:	e590      	b.n	6df8 <__aeabi_dadd+0x108>
    72d6:	4656      	mov	r6, sl
    72d8:	0023      	movs	r3, r4
    72da:	3e20      	subs	r6, #32
    72dc:	40f3      	lsrs	r3, r6
    72de:	4699      	mov	r9, r3
    72e0:	4653      	mov	r3, sl
    72e2:	2b20      	cmp	r3, #32
    72e4:	d00e      	beq.n	7304 <__aeabi_dadd+0x614>
    72e6:	2340      	movs	r3, #64	; 0x40
    72e8:	4656      	mov	r6, sl
    72ea:	1b9b      	subs	r3, r3, r6
    72ec:	409c      	lsls	r4, r3
    72ee:	4327      	orrs	r7, r4
    72f0:	1e7c      	subs	r4, r7, #1
    72f2:	41a7      	sbcs	r7, r4
    72f4:	464b      	mov	r3, r9
    72f6:	2400      	movs	r4, #0
    72f8:	431f      	orrs	r7, r3
    72fa:	e75f      	b.n	71bc <__aeabi_dadd+0x4cc>
    72fc:	2400      	movs	r4, #0
    72fe:	e7d2      	b.n	72a6 <__aeabi_dadd+0x5b6>
    7300:	0017      	movs	r7, r2
    7302:	e5b2      	b.n	6e6a <__aeabi_dadd+0x17a>
    7304:	2400      	movs	r4, #0
    7306:	e7f2      	b.n	72ee <__aeabi_dadd+0x5fe>
    7308:	000007ff 	.word	0x000007ff
    730c:	ff7fffff 	.word	0xff7fffff

00007310 <__aeabi_ddiv>:
    7310:	b5f0      	push	{r4, r5, r6, r7, lr}
    7312:	4657      	mov	r7, sl
    7314:	4645      	mov	r5, r8
    7316:	46de      	mov	lr, fp
    7318:	464e      	mov	r6, r9
    731a:	b5e0      	push	{r5, r6, r7, lr}
    731c:	004c      	lsls	r4, r1, #1
    731e:	030e      	lsls	r6, r1, #12
    7320:	b087      	sub	sp, #28
    7322:	4683      	mov	fp, r0
    7324:	4692      	mov	sl, r2
    7326:	001d      	movs	r5, r3
    7328:	4680      	mov	r8, r0
    732a:	0b36      	lsrs	r6, r6, #12
    732c:	0d64      	lsrs	r4, r4, #21
    732e:	0fcf      	lsrs	r7, r1, #31
    7330:	2c00      	cmp	r4, #0
    7332:	d04f      	beq.n	73d4 <__aeabi_ddiv+0xc4>
    7334:	4b6f      	ldr	r3, [pc, #444]	; (74f4 <__aeabi_ddiv+0x1e4>)
    7336:	429c      	cmp	r4, r3
    7338:	d035      	beq.n	73a6 <__aeabi_ddiv+0x96>
    733a:	2380      	movs	r3, #128	; 0x80
    733c:	0f42      	lsrs	r2, r0, #29
    733e:	041b      	lsls	r3, r3, #16
    7340:	00f6      	lsls	r6, r6, #3
    7342:	4313      	orrs	r3, r2
    7344:	4333      	orrs	r3, r6
    7346:	4699      	mov	r9, r3
    7348:	00c3      	lsls	r3, r0, #3
    734a:	4698      	mov	r8, r3
    734c:	4b6a      	ldr	r3, [pc, #424]	; (74f8 <__aeabi_ddiv+0x1e8>)
    734e:	2600      	movs	r6, #0
    7350:	469c      	mov	ip, r3
    7352:	2300      	movs	r3, #0
    7354:	4464      	add	r4, ip
    7356:	9303      	str	r3, [sp, #12]
    7358:	032b      	lsls	r3, r5, #12
    735a:	0b1b      	lsrs	r3, r3, #12
    735c:	469b      	mov	fp, r3
    735e:	006b      	lsls	r3, r5, #1
    7360:	0fed      	lsrs	r5, r5, #31
    7362:	4650      	mov	r0, sl
    7364:	0d5b      	lsrs	r3, r3, #21
    7366:	9501      	str	r5, [sp, #4]
    7368:	d05e      	beq.n	7428 <__aeabi_ddiv+0x118>
    736a:	4a62      	ldr	r2, [pc, #392]	; (74f4 <__aeabi_ddiv+0x1e4>)
    736c:	4293      	cmp	r3, r2
    736e:	d053      	beq.n	7418 <__aeabi_ddiv+0x108>
    7370:	465a      	mov	r2, fp
    7372:	00d1      	lsls	r1, r2, #3
    7374:	2280      	movs	r2, #128	; 0x80
    7376:	0f40      	lsrs	r0, r0, #29
    7378:	0412      	lsls	r2, r2, #16
    737a:	4302      	orrs	r2, r0
    737c:	430a      	orrs	r2, r1
    737e:	4693      	mov	fp, r2
    7380:	4652      	mov	r2, sl
    7382:	00d1      	lsls	r1, r2, #3
    7384:	4a5c      	ldr	r2, [pc, #368]	; (74f8 <__aeabi_ddiv+0x1e8>)
    7386:	4694      	mov	ip, r2
    7388:	2200      	movs	r2, #0
    738a:	4463      	add	r3, ip
    738c:	0038      	movs	r0, r7
    738e:	4068      	eors	r0, r5
    7390:	4684      	mov	ip, r0
    7392:	9002      	str	r0, [sp, #8]
    7394:	1ae4      	subs	r4, r4, r3
    7396:	4316      	orrs	r6, r2
    7398:	2e0f      	cmp	r6, #15
    739a:	d900      	bls.n	739e <__aeabi_ddiv+0x8e>
    739c:	e0b4      	b.n	7508 <__aeabi_ddiv+0x1f8>
    739e:	4b57      	ldr	r3, [pc, #348]	; (74fc <__aeabi_ddiv+0x1ec>)
    73a0:	00b6      	lsls	r6, r6, #2
    73a2:	599b      	ldr	r3, [r3, r6]
    73a4:	469f      	mov	pc, r3
    73a6:	0003      	movs	r3, r0
    73a8:	4333      	orrs	r3, r6
    73aa:	4699      	mov	r9, r3
    73ac:	d16c      	bne.n	7488 <__aeabi_ddiv+0x178>
    73ae:	2300      	movs	r3, #0
    73b0:	4698      	mov	r8, r3
    73b2:	3302      	adds	r3, #2
    73b4:	2608      	movs	r6, #8
    73b6:	9303      	str	r3, [sp, #12]
    73b8:	e7ce      	b.n	7358 <__aeabi_ddiv+0x48>
    73ba:	46cb      	mov	fp, r9
    73bc:	4641      	mov	r1, r8
    73be:	9a03      	ldr	r2, [sp, #12]
    73c0:	9701      	str	r7, [sp, #4]
    73c2:	2a02      	cmp	r2, #2
    73c4:	d165      	bne.n	7492 <__aeabi_ddiv+0x182>
    73c6:	9b01      	ldr	r3, [sp, #4]
    73c8:	4c4a      	ldr	r4, [pc, #296]	; (74f4 <__aeabi_ddiv+0x1e4>)
    73ca:	469c      	mov	ip, r3
    73cc:	2300      	movs	r3, #0
    73ce:	2200      	movs	r2, #0
    73d0:	4698      	mov	r8, r3
    73d2:	e06b      	b.n	74ac <__aeabi_ddiv+0x19c>
    73d4:	0003      	movs	r3, r0
    73d6:	4333      	orrs	r3, r6
    73d8:	4699      	mov	r9, r3
    73da:	d04e      	beq.n	747a <__aeabi_ddiv+0x16a>
    73dc:	2e00      	cmp	r6, #0
    73de:	d100      	bne.n	73e2 <__aeabi_ddiv+0xd2>
    73e0:	e1bc      	b.n	775c <__aeabi_ddiv+0x44c>
    73e2:	0030      	movs	r0, r6
    73e4:	f7fb fc7e 	bl	2ce4 <__clzsi2>
    73e8:	0003      	movs	r3, r0
    73ea:	3b0b      	subs	r3, #11
    73ec:	2b1c      	cmp	r3, #28
    73ee:	dd00      	ble.n	73f2 <__aeabi_ddiv+0xe2>
    73f0:	e1ac      	b.n	774c <__aeabi_ddiv+0x43c>
    73f2:	221d      	movs	r2, #29
    73f4:	1ad3      	subs	r3, r2, r3
    73f6:	465a      	mov	r2, fp
    73f8:	0001      	movs	r1, r0
    73fa:	40da      	lsrs	r2, r3
    73fc:	3908      	subs	r1, #8
    73fe:	408e      	lsls	r6, r1
    7400:	0013      	movs	r3, r2
    7402:	4333      	orrs	r3, r6
    7404:	4699      	mov	r9, r3
    7406:	465b      	mov	r3, fp
    7408:	408b      	lsls	r3, r1
    740a:	4698      	mov	r8, r3
    740c:	2300      	movs	r3, #0
    740e:	4c3c      	ldr	r4, [pc, #240]	; (7500 <__aeabi_ddiv+0x1f0>)
    7410:	2600      	movs	r6, #0
    7412:	1a24      	subs	r4, r4, r0
    7414:	9303      	str	r3, [sp, #12]
    7416:	e79f      	b.n	7358 <__aeabi_ddiv+0x48>
    7418:	4651      	mov	r1, sl
    741a:	465a      	mov	r2, fp
    741c:	4311      	orrs	r1, r2
    741e:	d129      	bne.n	7474 <__aeabi_ddiv+0x164>
    7420:	2200      	movs	r2, #0
    7422:	4693      	mov	fp, r2
    7424:	3202      	adds	r2, #2
    7426:	e7b1      	b.n	738c <__aeabi_ddiv+0x7c>
    7428:	4659      	mov	r1, fp
    742a:	4301      	orrs	r1, r0
    742c:	d01e      	beq.n	746c <__aeabi_ddiv+0x15c>
    742e:	465b      	mov	r3, fp
    7430:	2b00      	cmp	r3, #0
    7432:	d100      	bne.n	7436 <__aeabi_ddiv+0x126>
    7434:	e19e      	b.n	7774 <__aeabi_ddiv+0x464>
    7436:	4658      	mov	r0, fp
    7438:	f7fb fc54 	bl	2ce4 <__clzsi2>
    743c:	0003      	movs	r3, r0
    743e:	3b0b      	subs	r3, #11
    7440:	2b1c      	cmp	r3, #28
    7442:	dd00      	ble.n	7446 <__aeabi_ddiv+0x136>
    7444:	e18f      	b.n	7766 <__aeabi_ddiv+0x456>
    7446:	0002      	movs	r2, r0
    7448:	4659      	mov	r1, fp
    744a:	3a08      	subs	r2, #8
    744c:	4091      	lsls	r1, r2
    744e:	468b      	mov	fp, r1
    7450:	211d      	movs	r1, #29
    7452:	1acb      	subs	r3, r1, r3
    7454:	4651      	mov	r1, sl
    7456:	40d9      	lsrs	r1, r3
    7458:	000b      	movs	r3, r1
    745a:	4659      	mov	r1, fp
    745c:	430b      	orrs	r3, r1
    745e:	4651      	mov	r1, sl
    7460:	469b      	mov	fp, r3
    7462:	4091      	lsls	r1, r2
    7464:	4b26      	ldr	r3, [pc, #152]	; (7500 <__aeabi_ddiv+0x1f0>)
    7466:	2200      	movs	r2, #0
    7468:	1a1b      	subs	r3, r3, r0
    746a:	e78f      	b.n	738c <__aeabi_ddiv+0x7c>
    746c:	2300      	movs	r3, #0
    746e:	2201      	movs	r2, #1
    7470:	469b      	mov	fp, r3
    7472:	e78b      	b.n	738c <__aeabi_ddiv+0x7c>
    7474:	4651      	mov	r1, sl
    7476:	2203      	movs	r2, #3
    7478:	e788      	b.n	738c <__aeabi_ddiv+0x7c>
    747a:	2300      	movs	r3, #0
    747c:	4698      	mov	r8, r3
    747e:	3301      	adds	r3, #1
    7480:	2604      	movs	r6, #4
    7482:	2400      	movs	r4, #0
    7484:	9303      	str	r3, [sp, #12]
    7486:	e767      	b.n	7358 <__aeabi_ddiv+0x48>
    7488:	2303      	movs	r3, #3
    748a:	46b1      	mov	r9, r6
    748c:	9303      	str	r3, [sp, #12]
    748e:	260c      	movs	r6, #12
    7490:	e762      	b.n	7358 <__aeabi_ddiv+0x48>
    7492:	2a03      	cmp	r2, #3
    7494:	d100      	bne.n	7498 <__aeabi_ddiv+0x188>
    7496:	e25c      	b.n	7952 <__aeabi_ddiv+0x642>
    7498:	9b01      	ldr	r3, [sp, #4]
    749a:	2a01      	cmp	r2, #1
    749c:	d000      	beq.n	74a0 <__aeabi_ddiv+0x190>
    749e:	e1e4      	b.n	786a <__aeabi_ddiv+0x55a>
    74a0:	4013      	ands	r3, r2
    74a2:	469c      	mov	ip, r3
    74a4:	2300      	movs	r3, #0
    74a6:	2400      	movs	r4, #0
    74a8:	2200      	movs	r2, #0
    74aa:	4698      	mov	r8, r3
    74ac:	2100      	movs	r1, #0
    74ae:	0312      	lsls	r2, r2, #12
    74b0:	0b13      	lsrs	r3, r2, #12
    74b2:	0d0a      	lsrs	r2, r1, #20
    74b4:	0512      	lsls	r2, r2, #20
    74b6:	431a      	orrs	r2, r3
    74b8:	0523      	lsls	r3, r4, #20
    74ba:	4c12      	ldr	r4, [pc, #72]	; (7504 <__aeabi_ddiv+0x1f4>)
    74bc:	4640      	mov	r0, r8
    74be:	4022      	ands	r2, r4
    74c0:	4313      	orrs	r3, r2
    74c2:	4662      	mov	r2, ip
    74c4:	005b      	lsls	r3, r3, #1
    74c6:	07d2      	lsls	r2, r2, #31
    74c8:	085b      	lsrs	r3, r3, #1
    74ca:	4313      	orrs	r3, r2
    74cc:	0019      	movs	r1, r3
    74ce:	b007      	add	sp, #28
    74d0:	bc3c      	pop	{r2, r3, r4, r5}
    74d2:	4690      	mov	r8, r2
    74d4:	4699      	mov	r9, r3
    74d6:	46a2      	mov	sl, r4
    74d8:	46ab      	mov	fp, r5
    74da:	bdf0      	pop	{r4, r5, r6, r7, pc}
    74dc:	2300      	movs	r3, #0
    74de:	2280      	movs	r2, #128	; 0x80
    74e0:	469c      	mov	ip, r3
    74e2:	0312      	lsls	r2, r2, #12
    74e4:	4698      	mov	r8, r3
    74e6:	4c03      	ldr	r4, [pc, #12]	; (74f4 <__aeabi_ddiv+0x1e4>)
    74e8:	e7e0      	b.n	74ac <__aeabi_ddiv+0x19c>
    74ea:	2300      	movs	r3, #0
    74ec:	4c01      	ldr	r4, [pc, #4]	; (74f4 <__aeabi_ddiv+0x1e4>)
    74ee:	2200      	movs	r2, #0
    74f0:	4698      	mov	r8, r3
    74f2:	e7db      	b.n	74ac <__aeabi_ddiv+0x19c>
    74f4:	000007ff 	.word	0x000007ff
    74f8:	fffffc01 	.word	0xfffffc01
    74fc:	00008f10 	.word	0x00008f10
    7500:	fffffc0d 	.word	0xfffffc0d
    7504:	800fffff 	.word	0x800fffff
    7508:	45d9      	cmp	r9, fp
    750a:	d900      	bls.n	750e <__aeabi_ddiv+0x1fe>
    750c:	e139      	b.n	7782 <__aeabi_ddiv+0x472>
    750e:	d100      	bne.n	7512 <__aeabi_ddiv+0x202>
    7510:	e134      	b.n	777c <__aeabi_ddiv+0x46c>
    7512:	2300      	movs	r3, #0
    7514:	4646      	mov	r6, r8
    7516:	464d      	mov	r5, r9
    7518:	469a      	mov	sl, r3
    751a:	3c01      	subs	r4, #1
    751c:	465b      	mov	r3, fp
    751e:	0e0a      	lsrs	r2, r1, #24
    7520:	021b      	lsls	r3, r3, #8
    7522:	431a      	orrs	r2, r3
    7524:	020b      	lsls	r3, r1, #8
    7526:	0c17      	lsrs	r7, r2, #16
    7528:	9303      	str	r3, [sp, #12]
    752a:	0413      	lsls	r3, r2, #16
    752c:	0c1b      	lsrs	r3, r3, #16
    752e:	0039      	movs	r1, r7
    7530:	0028      	movs	r0, r5
    7532:	4690      	mov	r8, r2
    7534:	9301      	str	r3, [sp, #4]
    7536:	f7fb f973 	bl	2820 <__udivsi3>
    753a:	0002      	movs	r2, r0
    753c:	9b01      	ldr	r3, [sp, #4]
    753e:	4683      	mov	fp, r0
    7540:	435a      	muls	r2, r3
    7542:	0028      	movs	r0, r5
    7544:	0039      	movs	r1, r7
    7546:	4691      	mov	r9, r2
    7548:	f7fb f9f0 	bl	292c <__aeabi_uidivmod>
    754c:	0c35      	lsrs	r5, r6, #16
    754e:	0409      	lsls	r1, r1, #16
    7550:	430d      	orrs	r5, r1
    7552:	45a9      	cmp	r9, r5
    7554:	d90d      	bls.n	7572 <__aeabi_ddiv+0x262>
    7556:	465b      	mov	r3, fp
    7558:	4445      	add	r5, r8
    755a:	3b01      	subs	r3, #1
    755c:	45a8      	cmp	r8, r5
    755e:	d900      	bls.n	7562 <__aeabi_ddiv+0x252>
    7560:	e13a      	b.n	77d8 <__aeabi_ddiv+0x4c8>
    7562:	45a9      	cmp	r9, r5
    7564:	d800      	bhi.n	7568 <__aeabi_ddiv+0x258>
    7566:	e137      	b.n	77d8 <__aeabi_ddiv+0x4c8>
    7568:	2302      	movs	r3, #2
    756a:	425b      	negs	r3, r3
    756c:	469c      	mov	ip, r3
    756e:	4445      	add	r5, r8
    7570:	44e3      	add	fp, ip
    7572:	464b      	mov	r3, r9
    7574:	1aeb      	subs	r3, r5, r3
    7576:	0039      	movs	r1, r7
    7578:	0018      	movs	r0, r3
    757a:	9304      	str	r3, [sp, #16]
    757c:	f7fb f950 	bl	2820 <__udivsi3>
    7580:	9b01      	ldr	r3, [sp, #4]
    7582:	0005      	movs	r5, r0
    7584:	4343      	muls	r3, r0
    7586:	0039      	movs	r1, r7
    7588:	9804      	ldr	r0, [sp, #16]
    758a:	4699      	mov	r9, r3
    758c:	f7fb f9ce 	bl	292c <__aeabi_uidivmod>
    7590:	0433      	lsls	r3, r6, #16
    7592:	0409      	lsls	r1, r1, #16
    7594:	0c1b      	lsrs	r3, r3, #16
    7596:	430b      	orrs	r3, r1
    7598:	4599      	cmp	r9, r3
    759a:	d909      	bls.n	75b0 <__aeabi_ddiv+0x2a0>
    759c:	4443      	add	r3, r8
    759e:	1e6a      	subs	r2, r5, #1
    75a0:	4598      	cmp	r8, r3
    75a2:	d900      	bls.n	75a6 <__aeabi_ddiv+0x296>
    75a4:	e11a      	b.n	77dc <__aeabi_ddiv+0x4cc>
    75a6:	4599      	cmp	r9, r3
    75a8:	d800      	bhi.n	75ac <__aeabi_ddiv+0x29c>
    75aa:	e117      	b.n	77dc <__aeabi_ddiv+0x4cc>
    75ac:	3d02      	subs	r5, #2
    75ae:	4443      	add	r3, r8
    75b0:	464a      	mov	r2, r9
    75b2:	1a9b      	subs	r3, r3, r2
    75b4:	465a      	mov	r2, fp
    75b6:	0412      	lsls	r2, r2, #16
    75b8:	432a      	orrs	r2, r5
    75ba:	9903      	ldr	r1, [sp, #12]
    75bc:	4693      	mov	fp, r2
    75be:	0c10      	lsrs	r0, r2, #16
    75c0:	0c0a      	lsrs	r2, r1, #16
    75c2:	4691      	mov	r9, r2
    75c4:	0409      	lsls	r1, r1, #16
    75c6:	465a      	mov	r2, fp
    75c8:	0c09      	lsrs	r1, r1, #16
    75ca:	464e      	mov	r6, r9
    75cc:	000d      	movs	r5, r1
    75ce:	0412      	lsls	r2, r2, #16
    75d0:	0c12      	lsrs	r2, r2, #16
    75d2:	4345      	muls	r5, r0
    75d4:	9105      	str	r1, [sp, #20]
    75d6:	4351      	muls	r1, r2
    75d8:	4372      	muls	r2, r6
    75da:	4370      	muls	r0, r6
    75dc:	1952      	adds	r2, r2, r5
    75de:	0c0e      	lsrs	r6, r1, #16
    75e0:	18b2      	adds	r2, r6, r2
    75e2:	4295      	cmp	r5, r2
    75e4:	d903      	bls.n	75ee <__aeabi_ddiv+0x2de>
    75e6:	2580      	movs	r5, #128	; 0x80
    75e8:	026d      	lsls	r5, r5, #9
    75ea:	46ac      	mov	ip, r5
    75ec:	4460      	add	r0, ip
    75ee:	0c15      	lsrs	r5, r2, #16
    75f0:	0409      	lsls	r1, r1, #16
    75f2:	0412      	lsls	r2, r2, #16
    75f4:	0c09      	lsrs	r1, r1, #16
    75f6:	1828      	adds	r0, r5, r0
    75f8:	1852      	adds	r2, r2, r1
    75fa:	4283      	cmp	r3, r0
    75fc:	d200      	bcs.n	7600 <__aeabi_ddiv+0x2f0>
    75fe:	e0ce      	b.n	779e <__aeabi_ddiv+0x48e>
    7600:	d100      	bne.n	7604 <__aeabi_ddiv+0x2f4>
    7602:	e0c8      	b.n	7796 <__aeabi_ddiv+0x486>
    7604:	1a1d      	subs	r5, r3, r0
    7606:	4653      	mov	r3, sl
    7608:	1a9e      	subs	r6, r3, r2
    760a:	45b2      	cmp	sl, r6
    760c:	4192      	sbcs	r2, r2
    760e:	4252      	negs	r2, r2
    7610:	1aab      	subs	r3, r5, r2
    7612:	469a      	mov	sl, r3
    7614:	4598      	cmp	r8, r3
    7616:	d100      	bne.n	761a <__aeabi_ddiv+0x30a>
    7618:	e117      	b.n	784a <__aeabi_ddiv+0x53a>
    761a:	0039      	movs	r1, r7
    761c:	0018      	movs	r0, r3
    761e:	f7fb f8ff 	bl	2820 <__udivsi3>
    7622:	9b01      	ldr	r3, [sp, #4]
    7624:	0005      	movs	r5, r0
    7626:	4343      	muls	r3, r0
    7628:	0039      	movs	r1, r7
    762a:	4650      	mov	r0, sl
    762c:	9304      	str	r3, [sp, #16]
    762e:	f7fb f97d 	bl	292c <__aeabi_uidivmod>
    7632:	9804      	ldr	r0, [sp, #16]
    7634:	040b      	lsls	r3, r1, #16
    7636:	0c31      	lsrs	r1, r6, #16
    7638:	4319      	orrs	r1, r3
    763a:	4288      	cmp	r0, r1
    763c:	d909      	bls.n	7652 <__aeabi_ddiv+0x342>
    763e:	4441      	add	r1, r8
    7640:	1e6b      	subs	r3, r5, #1
    7642:	4588      	cmp	r8, r1
    7644:	d900      	bls.n	7648 <__aeabi_ddiv+0x338>
    7646:	e107      	b.n	7858 <__aeabi_ddiv+0x548>
    7648:	4288      	cmp	r0, r1
    764a:	d800      	bhi.n	764e <__aeabi_ddiv+0x33e>
    764c:	e104      	b.n	7858 <__aeabi_ddiv+0x548>
    764e:	3d02      	subs	r5, #2
    7650:	4441      	add	r1, r8
    7652:	9b04      	ldr	r3, [sp, #16]
    7654:	1acb      	subs	r3, r1, r3
    7656:	0018      	movs	r0, r3
    7658:	0039      	movs	r1, r7
    765a:	9304      	str	r3, [sp, #16]
    765c:	f7fb f8e0 	bl	2820 <__udivsi3>
    7660:	9b01      	ldr	r3, [sp, #4]
    7662:	4682      	mov	sl, r0
    7664:	4343      	muls	r3, r0
    7666:	0039      	movs	r1, r7
    7668:	9804      	ldr	r0, [sp, #16]
    766a:	9301      	str	r3, [sp, #4]
    766c:	f7fb f95e 	bl	292c <__aeabi_uidivmod>
    7670:	9801      	ldr	r0, [sp, #4]
    7672:	040b      	lsls	r3, r1, #16
    7674:	0431      	lsls	r1, r6, #16
    7676:	0c09      	lsrs	r1, r1, #16
    7678:	4319      	orrs	r1, r3
    767a:	4288      	cmp	r0, r1
    767c:	d90d      	bls.n	769a <__aeabi_ddiv+0x38a>
    767e:	4653      	mov	r3, sl
    7680:	4441      	add	r1, r8
    7682:	3b01      	subs	r3, #1
    7684:	4588      	cmp	r8, r1
    7686:	d900      	bls.n	768a <__aeabi_ddiv+0x37a>
    7688:	e0e8      	b.n	785c <__aeabi_ddiv+0x54c>
    768a:	4288      	cmp	r0, r1
    768c:	d800      	bhi.n	7690 <__aeabi_ddiv+0x380>
    768e:	e0e5      	b.n	785c <__aeabi_ddiv+0x54c>
    7690:	2302      	movs	r3, #2
    7692:	425b      	negs	r3, r3
    7694:	469c      	mov	ip, r3
    7696:	4441      	add	r1, r8
    7698:	44e2      	add	sl, ip
    769a:	9b01      	ldr	r3, [sp, #4]
    769c:	042d      	lsls	r5, r5, #16
    769e:	1ace      	subs	r6, r1, r3
    76a0:	4651      	mov	r1, sl
    76a2:	4329      	orrs	r1, r5
    76a4:	9d05      	ldr	r5, [sp, #20]
    76a6:	464f      	mov	r7, r9
    76a8:	002a      	movs	r2, r5
    76aa:	040b      	lsls	r3, r1, #16
    76ac:	0c08      	lsrs	r0, r1, #16
    76ae:	0c1b      	lsrs	r3, r3, #16
    76b0:	435a      	muls	r2, r3
    76b2:	4345      	muls	r5, r0
    76b4:	437b      	muls	r3, r7
    76b6:	4378      	muls	r0, r7
    76b8:	195b      	adds	r3, r3, r5
    76ba:	0c17      	lsrs	r7, r2, #16
    76bc:	18fb      	adds	r3, r7, r3
    76be:	429d      	cmp	r5, r3
    76c0:	d903      	bls.n	76ca <__aeabi_ddiv+0x3ba>
    76c2:	2580      	movs	r5, #128	; 0x80
    76c4:	026d      	lsls	r5, r5, #9
    76c6:	46ac      	mov	ip, r5
    76c8:	4460      	add	r0, ip
    76ca:	0c1d      	lsrs	r5, r3, #16
    76cc:	0412      	lsls	r2, r2, #16
    76ce:	041b      	lsls	r3, r3, #16
    76d0:	0c12      	lsrs	r2, r2, #16
    76d2:	1828      	adds	r0, r5, r0
    76d4:	189b      	adds	r3, r3, r2
    76d6:	4286      	cmp	r6, r0
    76d8:	d200      	bcs.n	76dc <__aeabi_ddiv+0x3cc>
    76da:	e093      	b.n	7804 <__aeabi_ddiv+0x4f4>
    76dc:	d100      	bne.n	76e0 <__aeabi_ddiv+0x3d0>
    76de:	e08e      	b.n	77fe <__aeabi_ddiv+0x4ee>
    76e0:	2301      	movs	r3, #1
    76e2:	4319      	orrs	r1, r3
    76e4:	4ba0      	ldr	r3, [pc, #640]	; (7968 <__aeabi_ddiv+0x658>)
    76e6:	18e3      	adds	r3, r4, r3
    76e8:	2b00      	cmp	r3, #0
    76ea:	dc00      	bgt.n	76ee <__aeabi_ddiv+0x3de>
    76ec:	e099      	b.n	7822 <__aeabi_ddiv+0x512>
    76ee:	074a      	lsls	r2, r1, #29
    76f0:	d000      	beq.n	76f4 <__aeabi_ddiv+0x3e4>
    76f2:	e09e      	b.n	7832 <__aeabi_ddiv+0x522>
    76f4:	465a      	mov	r2, fp
    76f6:	01d2      	lsls	r2, r2, #7
    76f8:	d506      	bpl.n	7708 <__aeabi_ddiv+0x3f8>
    76fa:	465a      	mov	r2, fp
    76fc:	4b9b      	ldr	r3, [pc, #620]	; (796c <__aeabi_ddiv+0x65c>)
    76fe:	401a      	ands	r2, r3
    7700:	2380      	movs	r3, #128	; 0x80
    7702:	4693      	mov	fp, r2
    7704:	00db      	lsls	r3, r3, #3
    7706:	18e3      	adds	r3, r4, r3
    7708:	4a99      	ldr	r2, [pc, #612]	; (7970 <__aeabi_ddiv+0x660>)
    770a:	4293      	cmp	r3, r2
    770c:	dd68      	ble.n	77e0 <__aeabi_ddiv+0x4d0>
    770e:	2301      	movs	r3, #1
    7710:	9a02      	ldr	r2, [sp, #8]
    7712:	4c98      	ldr	r4, [pc, #608]	; (7974 <__aeabi_ddiv+0x664>)
    7714:	401a      	ands	r2, r3
    7716:	2300      	movs	r3, #0
    7718:	4694      	mov	ip, r2
    771a:	4698      	mov	r8, r3
    771c:	2200      	movs	r2, #0
    771e:	e6c5      	b.n	74ac <__aeabi_ddiv+0x19c>
    7720:	2280      	movs	r2, #128	; 0x80
    7722:	464b      	mov	r3, r9
    7724:	0312      	lsls	r2, r2, #12
    7726:	4213      	tst	r3, r2
    7728:	d00a      	beq.n	7740 <__aeabi_ddiv+0x430>
    772a:	465b      	mov	r3, fp
    772c:	4213      	tst	r3, r2
    772e:	d106      	bne.n	773e <__aeabi_ddiv+0x42e>
    7730:	431a      	orrs	r2, r3
    7732:	0312      	lsls	r2, r2, #12
    7734:	0b12      	lsrs	r2, r2, #12
    7736:	46ac      	mov	ip, r5
    7738:	4688      	mov	r8, r1
    773a:	4c8e      	ldr	r4, [pc, #568]	; (7974 <__aeabi_ddiv+0x664>)
    773c:	e6b6      	b.n	74ac <__aeabi_ddiv+0x19c>
    773e:	464b      	mov	r3, r9
    7740:	431a      	orrs	r2, r3
    7742:	0312      	lsls	r2, r2, #12
    7744:	0b12      	lsrs	r2, r2, #12
    7746:	46bc      	mov	ip, r7
    7748:	4c8a      	ldr	r4, [pc, #552]	; (7974 <__aeabi_ddiv+0x664>)
    774a:	e6af      	b.n	74ac <__aeabi_ddiv+0x19c>
    774c:	0003      	movs	r3, r0
    774e:	465a      	mov	r2, fp
    7750:	3b28      	subs	r3, #40	; 0x28
    7752:	409a      	lsls	r2, r3
    7754:	2300      	movs	r3, #0
    7756:	4691      	mov	r9, r2
    7758:	4698      	mov	r8, r3
    775a:	e657      	b.n	740c <__aeabi_ddiv+0xfc>
    775c:	4658      	mov	r0, fp
    775e:	f7fb fac1 	bl	2ce4 <__clzsi2>
    7762:	3020      	adds	r0, #32
    7764:	e640      	b.n	73e8 <__aeabi_ddiv+0xd8>
    7766:	0003      	movs	r3, r0
    7768:	4652      	mov	r2, sl
    776a:	3b28      	subs	r3, #40	; 0x28
    776c:	409a      	lsls	r2, r3
    776e:	2100      	movs	r1, #0
    7770:	4693      	mov	fp, r2
    7772:	e677      	b.n	7464 <__aeabi_ddiv+0x154>
    7774:	f7fb fab6 	bl	2ce4 <__clzsi2>
    7778:	3020      	adds	r0, #32
    777a:	e65f      	b.n	743c <__aeabi_ddiv+0x12c>
    777c:	4588      	cmp	r8, r1
    777e:	d200      	bcs.n	7782 <__aeabi_ddiv+0x472>
    7780:	e6c7      	b.n	7512 <__aeabi_ddiv+0x202>
    7782:	464b      	mov	r3, r9
    7784:	07de      	lsls	r6, r3, #31
    7786:	085d      	lsrs	r5, r3, #1
    7788:	4643      	mov	r3, r8
    778a:	085b      	lsrs	r3, r3, #1
    778c:	431e      	orrs	r6, r3
    778e:	4643      	mov	r3, r8
    7790:	07db      	lsls	r3, r3, #31
    7792:	469a      	mov	sl, r3
    7794:	e6c2      	b.n	751c <__aeabi_ddiv+0x20c>
    7796:	2500      	movs	r5, #0
    7798:	4592      	cmp	sl, r2
    779a:	d300      	bcc.n	779e <__aeabi_ddiv+0x48e>
    779c:	e733      	b.n	7606 <__aeabi_ddiv+0x2f6>
    779e:	9e03      	ldr	r6, [sp, #12]
    77a0:	4659      	mov	r1, fp
    77a2:	46b4      	mov	ip, r6
    77a4:	44e2      	add	sl, ip
    77a6:	45b2      	cmp	sl, r6
    77a8:	41ad      	sbcs	r5, r5
    77aa:	426d      	negs	r5, r5
    77ac:	4445      	add	r5, r8
    77ae:	18eb      	adds	r3, r5, r3
    77b0:	3901      	subs	r1, #1
    77b2:	4598      	cmp	r8, r3
    77b4:	d207      	bcs.n	77c6 <__aeabi_ddiv+0x4b6>
    77b6:	4298      	cmp	r0, r3
    77b8:	d900      	bls.n	77bc <__aeabi_ddiv+0x4ac>
    77ba:	e07f      	b.n	78bc <__aeabi_ddiv+0x5ac>
    77bc:	d100      	bne.n	77c0 <__aeabi_ddiv+0x4b0>
    77be:	e0bc      	b.n	793a <__aeabi_ddiv+0x62a>
    77c0:	1a1d      	subs	r5, r3, r0
    77c2:	468b      	mov	fp, r1
    77c4:	e71f      	b.n	7606 <__aeabi_ddiv+0x2f6>
    77c6:	4598      	cmp	r8, r3
    77c8:	d1fa      	bne.n	77c0 <__aeabi_ddiv+0x4b0>
    77ca:	9d03      	ldr	r5, [sp, #12]
    77cc:	4555      	cmp	r5, sl
    77ce:	d9f2      	bls.n	77b6 <__aeabi_ddiv+0x4a6>
    77d0:	4643      	mov	r3, r8
    77d2:	468b      	mov	fp, r1
    77d4:	1a1d      	subs	r5, r3, r0
    77d6:	e716      	b.n	7606 <__aeabi_ddiv+0x2f6>
    77d8:	469b      	mov	fp, r3
    77da:	e6ca      	b.n	7572 <__aeabi_ddiv+0x262>
    77dc:	0015      	movs	r5, r2
    77de:	e6e7      	b.n	75b0 <__aeabi_ddiv+0x2a0>
    77e0:	465a      	mov	r2, fp
    77e2:	08c9      	lsrs	r1, r1, #3
    77e4:	0752      	lsls	r2, r2, #29
    77e6:	430a      	orrs	r2, r1
    77e8:	055b      	lsls	r3, r3, #21
    77ea:	4690      	mov	r8, r2
    77ec:	0d5c      	lsrs	r4, r3, #21
    77ee:	465a      	mov	r2, fp
    77f0:	2301      	movs	r3, #1
    77f2:	9902      	ldr	r1, [sp, #8]
    77f4:	0252      	lsls	r2, r2, #9
    77f6:	4019      	ands	r1, r3
    77f8:	0b12      	lsrs	r2, r2, #12
    77fa:	468c      	mov	ip, r1
    77fc:	e656      	b.n	74ac <__aeabi_ddiv+0x19c>
    77fe:	2b00      	cmp	r3, #0
    7800:	d100      	bne.n	7804 <__aeabi_ddiv+0x4f4>
    7802:	e76f      	b.n	76e4 <__aeabi_ddiv+0x3d4>
    7804:	4446      	add	r6, r8
    7806:	1e4a      	subs	r2, r1, #1
    7808:	45b0      	cmp	r8, r6
    780a:	d929      	bls.n	7860 <__aeabi_ddiv+0x550>
    780c:	0011      	movs	r1, r2
    780e:	4286      	cmp	r6, r0
    7810:	d000      	beq.n	7814 <__aeabi_ddiv+0x504>
    7812:	e765      	b.n	76e0 <__aeabi_ddiv+0x3d0>
    7814:	9a03      	ldr	r2, [sp, #12]
    7816:	4293      	cmp	r3, r2
    7818:	d000      	beq.n	781c <__aeabi_ddiv+0x50c>
    781a:	e761      	b.n	76e0 <__aeabi_ddiv+0x3d0>
    781c:	e762      	b.n	76e4 <__aeabi_ddiv+0x3d4>
    781e:	2101      	movs	r1, #1
    7820:	4249      	negs	r1, r1
    7822:	2001      	movs	r0, #1
    7824:	1ac2      	subs	r2, r0, r3
    7826:	2a38      	cmp	r2, #56	; 0x38
    7828:	dd21      	ble.n	786e <__aeabi_ddiv+0x55e>
    782a:	9b02      	ldr	r3, [sp, #8]
    782c:	4003      	ands	r3, r0
    782e:	469c      	mov	ip, r3
    7830:	e638      	b.n	74a4 <__aeabi_ddiv+0x194>
    7832:	220f      	movs	r2, #15
    7834:	400a      	ands	r2, r1
    7836:	2a04      	cmp	r2, #4
    7838:	d100      	bne.n	783c <__aeabi_ddiv+0x52c>
    783a:	e75b      	b.n	76f4 <__aeabi_ddiv+0x3e4>
    783c:	000a      	movs	r2, r1
    783e:	1d11      	adds	r1, r2, #4
    7840:	4291      	cmp	r1, r2
    7842:	4192      	sbcs	r2, r2
    7844:	4252      	negs	r2, r2
    7846:	4493      	add	fp, r2
    7848:	e754      	b.n	76f4 <__aeabi_ddiv+0x3e4>
    784a:	4b47      	ldr	r3, [pc, #284]	; (7968 <__aeabi_ddiv+0x658>)
    784c:	18e3      	adds	r3, r4, r3
    784e:	2b00      	cmp	r3, #0
    7850:	dde5      	ble.n	781e <__aeabi_ddiv+0x50e>
    7852:	2201      	movs	r2, #1
    7854:	4252      	negs	r2, r2
    7856:	e7f2      	b.n	783e <__aeabi_ddiv+0x52e>
    7858:	001d      	movs	r5, r3
    785a:	e6fa      	b.n	7652 <__aeabi_ddiv+0x342>
    785c:	469a      	mov	sl, r3
    785e:	e71c      	b.n	769a <__aeabi_ddiv+0x38a>
    7860:	42b0      	cmp	r0, r6
    7862:	d839      	bhi.n	78d8 <__aeabi_ddiv+0x5c8>
    7864:	d06e      	beq.n	7944 <__aeabi_ddiv+0x634>
    7866:	0011      	movs	r1, r2
    7868:	e73a      	b.n	76e0 <__aeabi_ddiv+0x3d0>
    786a:	9302      	str	r3, [sp, #8]
    786c:	e73a      	b.n	76e4 <__aeabi_ddiv+0x3d4>
    786e:	2a1f      	cmp	r2, #31
    7870:	dc3c      	bgt.n	78ec <__aeabi_ddiv+0x5dc>
    7872:	2320      	movs	r3, #32
    7874:	1a9b      	subs	r3, r3, r2
    7876:	000c      	movs	r4, r1
    7878:	4658      	mov	r0, fp
    787a:	4099      	lsls	r1, r3
    787c:	4098      	lsls	r0, r3
    787e:	1e4b      	subs	r3, r1, #1
    7880:	4199      	sbcs	r1, r3
    7882:	465b      	mov	r3, fp
    7884:	40d4      	lsrs	r4, r2
    7886:	40d3      	lsrs	r3, r2
    7888:	4320      	orrs	r0, r4
    788a:	4308      	orrs	r0, r1
    788c:	001a      	movs	r2, r3
    788e:	0743      	lsls	r3, r0, #29
    7890:	d009      	beq.n	78a6 <__aeabi_ddiv+0x596>
    7892:	230f      	movs	r3, #15
    7894:	4003      	ands	r3, r0
    7896:	2b04      	cmp	r3, #4
    7898:	d005      	beq.n	78a6 <__aeabi_ddiv+0x596>
    789a:	0001      	movs	r1, r0
    789c:	1d08      	adds	r0, r1, #4
    789e:	4288      	cmp	r0, r1
    78a0:	419b      	sbcs	r3, r3
    78a2:	425b      	negs	r3, r3
    78a4:	18d2      	adds	r2, r2, r3
    78a6:	0213      	lsls	r3, r2, #8
    78a8:	d53a      	bpl.n	7920 <__aeabi_ddiv+0x610>
    78aa:	2301      	movs	r3, #1
    78ac:	9a02      	ldr	r2, [sp, #8]
    78ae:	2401      	movs	r4, #1
    78b0:	401a      	ands	r2, r3
    78b2:	2300      	movs	r3, #0
    78b4:	4694      	mov	ip, r2
    78b6:	4698      	mov	r8, r3
    78b8:	2200      	movs	r2, #0
    78ba:	e5f7      	b.n	74ac <__aeabi_ddiv+0x19c>
    78bc:	2102      	movs	r1, #2
    78be:	4249      	negs	r1, r1
    78c0:	468c      	mov	ip, r1
    78c2:	9d03      	ldr	r5, [sp, #12]
    78c4:	44e3      	add	fp, ip
    78c6:	46ac      	mov	ip, r5
    78c8:	44e2      	add	sl, ip
    78ca:	45aa      	cmp	sl, r5
    78cc:	41ad      	sbcs	r5, r5
    78ce:	426d      	negs	r5, r5
    78d0:	4445      	add	r5, r8
    78d2:	18ed      	adds	r5, r5, r3
    78d4:	1a2d      	subs	r5, r5, r0
    78d6:	e696      	b.n	7606 <__aeabi_ddiv+0x2f6>
    78d8:	1e8a      	subs	r2, r1, #2
    78da:	9903      	ldr	r1, [sp, #12]
    78dc:	004d      	lsls	r5, r1, #1
    78de:	428d      	cmp	r5, r1
    78e0:	4189      	sbcs	r1, r1
    78e2:	4249      	negs	r1, r1
    78e4:	4441      	add	r1, r8
    78e6:	1876      	adds	r6, r6, r1
    78e8:	9503      	str	r5, [sp, #12]
    78ea:	e78f      	b.n	780c <__aeabi_ddiv+0x4fc>
    78ec:	201f      	movs	r0, #31
    78ee:	4240      	negs	r0, r0
    78f0:	1ac3      	subs	r3, r0, r3
    78f2:	4658      	mov	r0, fp
    78f4:	40d8      	lsrs	r0, r3
    78f6:	0003      	movs	r3, r0
    78f8:	2a20      	cmp	r2, #32
    78fa:	d028      	beq.n	794e <__aeabi_ddiv+0x63e>
    78fc:	2040      	movs	r0, #64	; 0x40
    78fe:	465d      	mov	r5, fp
    7900:	1a82      	subs	r2, r0, r2
    7902:	4095      	lsls	r5, r2
    7904:	4329      	orrs	r1, r5
    7906:	1e4a      	subs	r2, r1, #1
    7908:	4191      	sbcs	r1, r2
    790a:	4319      	orrs	r1, r3
    790c:	2307      	movs	r3, #7
    790e:	2200      	movs	r2, #0
    7910:	400b      	ands	r3, r1
    7912:	d009      	beq.n	7928 <__aeabi_ddiv+0x618>
    7914:	230f      	movs	r3, #15
    7916:	2200      	movs	r2, #0
    7918:	400b      	ands	r3, r1
    791a:	0008      	movs	r0, r1
    791c:	2b04      	cmp	r3, #4
    791e:	d1bd      	bne.n	789c <__aeabi_ddiv+0x58c>
    7920:	0001      	movs	r1, r0
    7922:	0753      	lsls	r3, r2, #29
    7924:	0252      	lsls	r2, r2, #9
    7926:	0b12      	lsrs	r2, r2, #12
    7928:	08c9      	lsrs	r1, r1, #3
    792a:	4319      	orrs	r1, r3
    792c:	2301      	movs	r3, #1
    792e:	4688      	mov	r8, r1
    7930:	9902      	ldr	r1, [sp, #8]
    7932:	2400      	movs	r4, #0
    7934:	4019      	ands	r1, r3
    7936:	468c      	mov	ip, r1
    7938:	e5b8      	b.n	74ac <__aeabi_ddiv+0x19c>
    793a:	4552      	cmp	r2, sl
    793c:	d8be      	bhi.n	78bc <__aeabi_ddiv+0x5ac>
    793e:	468b      	mov	fp, r1
    7940:	2500      	movs	r5, #0
    7942:	e660      	b.n	7606 <__aeabi_ddiv+0x2f6>
    7944:	9d03      	ldr	r5, [sp, #12]
    7946:	429d      	cmp	r5, r3
    7948:	d3c6      	bcc.n	78d8 <__aeabi_ddiv+0x5c8>
    794a:	0011      	movs	r1, r2
    794c:	e762      	b.n	7814 <__aeabi_ddiv+0x504>
    794e:	2500      	movs	r5, #0
    7950:	e7d8      	b.n	7904 <__aeabi_ddiv+0x5f4>
    7952:	2280      	movs	r2, #128	; 0x80
    7954:	465b      	mov	r3, fp
    7956:	0312      	lsls	r2, r2, #12
    7958:	431a      	orrs	r2, r3
    795a:	9b01      	ldr	r3, [sp, #4]
    795c:	0312      	lsls	r2, r2, #12
    795e:	0b12      	lsrs	r2, r2, #12
    7960:	469c      	mov	ip, r3
    7962:	4688      	mov	r8, r1
    7964:	4c03      	ldr	r4, [pc, #12]	; (7974 <__aeabi_ddiv+0x664>)
    7966:	e5a1      	b.n	74ac <__aeabi_ddiv+0x19c>
    7968:	000003ff 	.word	0x000003ff
    796c:	feffffff 	.word	0xfeffffff
    7970:	000007fe 	.word	0x000007fe
    7974:	000007ff 	.word	0x000007ff

00007978 <__eqdf2>:
    7978:	b5f0      	push	{r4, r5, r6, r7, lr}
    797a:	464f      	mov	r7, r9
    797c:	4646      	mov	r6, r8
    797e:	46d6      	mov	lr, sl
    7980:	005c      	lsls	r4, r3, #1
    7982:	b5c0      	push	{r6, r7, lr}
    7984:	031f      	lsls	r7, r3, #12
    7986:	0fdb      	lsrs	r3, r3, #31
    7988:	469a      	mov	sl, r3
    798a:	4b17      	ldr	r3, [pc, #92]	; (79e8 <__eqdf2+0x70>)
    798c:	030e      	lsls	r6, r1, #12
    798e:	004d      	lsls	r5, r1, #1
    7990:	4684      	mov	ip, r0
    7992:	4680      	mov	r8, r0
    7994:	0b36      	lsrs	r6, r6, #12
    7996:	0d6d      	lsrs	r5, r5, #21
    7998:	0fc9      	lsrs	r1, r1, #31
    799a:	4691      	mov	r9, r2
    799c:	0b3f      	lsrs	r7, r7, #12
    799e:	0d64      	lsrs	r4, r4, #21
    79a0:	2001      	movs	r0, #1
    79a2:	429d      	cmp	r5, r3
    79a4:	d008      	beq.n	79b8 <__eqdf2+0x40>
    79a6:	429c      	cmp	r4, r3
    79a8:	d001      	beq.n	79ae <__eqdf2+0x36>
    79aa:	42a5      	cmp	r5, r4
    79ac:	d00b      	beq.n	79c6 <__eqdf2+0x4e>
    79ae:	bc1c      	pop	{r2, r3, r4}
    79b0:	4690      	mov	r8, r2
    79b2:	4699      	mov	r9, r3
    79b4:	46a2      	mov	sl, r4
    79b6:	bdf0      	pop	{r4, r5, r6, r7, pc}
    79b8:	4663      	mov	r3, ip
    79ba:	4333      	orrs	r3, r6
    79bc:	d1f7      	bne.n	79ae <__eqdf2+0x36>
    79be:	42ac      	cmp	r4, r5
    79c0:	d1f5      	bne.n	79ae <__eqdf2+0x36>
    79c2:	433a      	orrs	r2, r7
    79c4:	d1f3      	bne.n	79ae <__eqdf2+0x36>
    79c6:	2001      	movs	r0, #1
    79c8:	42be      	cmp	r6, r7
    79ca:	d1f0      	bne.n	79ae <__eqdf2+0x36>
    79cc:	45c8      	cmp	r8, r9
    79ce:	d1ee      	bne.n	79ae <__eqdf2+0x36>
    79d0:	4551      	cmp	r1, sl
    79d2:	d007      	beq.n	79e4 <__eqdf2+0x6c>
    79d4:	2d00      	cmp	r5, #0
    79d6:	d1ea      	bne.n	79ae <__eqdf2+0x36>
    79d8:	4663      	mov	r3, ip
    79da:	431e      	orrs	r6, r3
    79dc:	0030      	movs	r0, r6
    79de:	1e46      	subs	r6, r0, #1
    79e0:	41b0      	sbcs	r0, r6
    79e2:	e7e4      	b.n	79ae <__eqdf2+0x36>
    79e4:	2000      	movs	r0, #0
    79e6:	e7e2      	b.n	79ae <__eqdf2+0x36>
    79e8:	000007ff 	.word	0x000007ff

000079ec <__gedf2>:
    79ec:	b5f0      	push	{r4, r5, r6, r7, lr}
    79ee:	4645      	mov	r5, r8
    79f0:	46de      	mov	lr, fp
    79f2:	4657      	mov	r7, sl
    79f4:	464e      	mov	r6, r9
    79f6:	b5e0      	push	{r5, r6, r7, lr}
    79f8:	031f      	lsls	r7, r3, #12
    79fa:	0b3d      	lsrs	r5, r7, #12
    79fc:	4f2c      	ldr	r7, [pc, #176]	; (7ab0 <__gedf2+0xc4>)
    79fe:	030e      	lsls	r6, r1, #12
    7a00:	004c      	lsls	r4, r1, #1
    7a02:	46ab      	mov	fp, r5
    7a04:	005d      	lsls	r5, r3, #1
    7a06:	4684      	mov	ip, r0
    7a08:	0b36      	lsrs	r6, r6, #12
    7a0a:	0d64      	lsrs	r4, r4, #21
    7a0c:	0fc9      	lsrs	r1, r1, #31
    7a0e:	4690      	mov	r8, r2
    7a10:	0d6d      	lsrs	r5, r5, #21
    7a12:	0fdb      	lsrs	r3, r3, #31
    7a14:	42bc      	cmp	r4, r7
    7a16:	d02a      	beq.n	7a6e <__gedf2+0x82>
    7a18:	4f25      	ldr	r7, [pc, #148]	; (7ab0 <__gedf2+0xc4>)
    7a1a:	42bd      	cmp	r5, r7
    7a1c:	d02d      	beq.n	7a7a <__gedf2+0x8e>
    7a1e:	2c00      	cmp	r4, #0
    7a20:	d10f      	bne.n	7a42 <__gedf2+0x56>
    7a22:	4330      	orrs	r0, r6
    7a24:	0007      	movs	r7, r0
    7a26:	4681      	mov	r9, r0
    7a28:	4278      	negs	r0, r7
    7a2a:	4178      	adcs	r0, r7
    7a2c:	b2c0      	uxtb	r0, r0
    7a2e:	2d00      	cmp	r5, #0
    7a30:	d117      	bne.n	7a62 <__gedf2+0x76>
    7a32:	465f      	mov	r7, fp
    7a34:	433a      	orrs	r2, r7
    7a36:	d114      	bne.n	7a62 <__gedf2+0x76>
    7a38:	464b      	mov	r3, r9
    7a3a:	2000      	movs	r0, #0
    7a3c:	2b00      	cmp	r3, #0
    7a3e:	d00a      	beq.n	7a56 <__gedf2+0x6a>
    7a40:	e006      	b.n	7a50 <__gedf2+0x64>
    7a42:	2d00      	cmp	r5, #0
    7a44:	d102      	bne.n	7a4c <__gedf2+0x60>
    7a46:	4658      	mov	r0, fp
    7a48:	4302      	orrs	r2, r0
    7a4a:	d001      	beq.n	7a50 <__gedf2+0x64>
    7a4c:	4299      	cmp	r1, r3
    7a4e:	d018      	beq.n	7a82 <__gedf2+0x96>
    7a50:	4248      	negs	r0, r1
    7a52:	2101      	movs	r1, #1
    7a54:	4308      	orrs	r0, r1
    7a56:	bc3c      	pop	{r2, r3, r4, r5}
    7a58:	4690      	mov	r8, r2
    7a5a:	4699      	mov	r9, r3
    7a5c:	46a2      	mov	sl, r4
    7a5e:	46ab      	mov	fp, r5
    7a60:	bdf0      	pop	{r4, r5, r6, r7, pc}
    7a62:	2800      	cmp	r0, #0
    7a64:	d0f2      	beq.n	7a4c <__gedf2+0x60>
    7a66:	2001      	movs	r0, #1
    7a68:	3b01      	subs	r3, #1
    7a6a:	4318      	orrs	r0, r3
    7a6c:	e7f3      	b.n	7a56 <__gedf2+0x6a>
    7a6e:	0037      	movs	r7, r6
    7a70:	4307      	orrs	r7, r0
    7a72:	d0d1      	beq.n	7a18 <__gedf2+0x2c>
    7a74:	2002      	movs	r0, #2
    7a76:	4240      	negs	r0, r0
    7a78:	e7ed      	b.n	7a56 <__gedf2+0x6a>
    7a7a:	465f      	mov	r7, fp
    7a7c:	4317      	orrs	r7, r2
    7a7e:	d0ce      	beq.n	7a1e <__gedf2+0x32>
    7a80:	e7f8      	b.n	7a74 <__gedf2+0x88>
    7a82:	42ac      	cmp	r4, r5
    7a84:	dce4      	bgt.n	7a50 <__gedf2+0x64>
    7a86:	da03      	bge.n	7a90 <__gedf2+0xa4>
    7a88:	1e48      	subs	r0, r1, #1
    7a8a:	2101      	movs	r1, #1
    7a8c:	4308      	orrs	r0, r1
    7a8e:	e7e2      	b.n	7a56 <__gedf2+0x6a>
    7a90:	455e      	cmp	r6, fp
    7a92:	d8dd      	bhi.n	7a50 <__gedf2+0x64>
    7a94:	d006      	beq.n	7aa4 <__gedf2+0xb8>
    7a96:	2000      	movs	r0, #0
    7a98:	455e      	cmp	r6, fp
    7a9a:	d2dc      	bcs.n	7a56 <__gedf2+0x6a>
    7a9c:	2301      	movs	r3, #1
    7a9e:	1e48      	subs	r0, r1, #1
    7aa0:	4318      	orrs	r0, r3
    7aa2:	e7d8      	b.n	7a56 <__gedf2+0x6a>
    7aa4:	45c4      	cmp	ip, r8
    7aa6:	d8d3      	bhi.n	7a50 <__gedf2+0x64>
    7aa8:	2000      	movs	r0, #0
    7aaa:	45c4      	cmp	ip, r8
    7aac:	d3f6      	bcc.n	7a9c <__gedf2+0xb0>
    7aae:	e7d2      	b.n	7a56 <__gedf2+0x6a>
    7ab0:	000007ff 	.word	0x000007ff

00007ab4 <__ledf2>:
    7ab4:	b5f0      	push	{r4, r5, r6, r7, lr}
    7ab6:	464e      	mov	r6, r9
    7ab8:	4645      	mov	r5, r8
    7aba:	46de      	mov	lr, fp
    7abc:	4657      	mov	r7, sl
    7abe:	005c      	lsls	r4, r3, #1
    7ac0:	b5e0      	push	{r5, r6, r7, lr}
    7ac2:	031f      	lsls	r7, r3, #12
    7ac4:	0fdb      	lsrs	r3, r3, #31
    7ac6:	4699      	mov	r9, r3
    7ac8:	4b2a      	ldr	r3, [pc, #168]	; (7b74 <__ledf2+0xc0>)
    7aca:	030e      	lsls	r6, r1, #12
    7acc:	004d      	lsls	r5, r1, #1
    7ace:	0fc9      	lsrs	r1, r1, #31
    7ad0:	4684      	mov	ip, r0
    7ad2:	0b36      	lsrs	r6, r6, #12
    7ad4:	0d6d      	lsrs	r5, r5, #21
    7ad6:	468b      	mov	fp, r1
    7ad8:	4690      	mov	r8, r2
    7ada:	0b3f      	lsrs	r7, r7, #12
    7adc:	0d64      	lsrs	r4, r4, #21
    7ade:	429d      	cmp	r5, r3
    7ae0:	d020      	beq.n	7b24 <__ledf2+0x70>
    7ae2:	4b24      	ldr	r3, [pc, #144]	; (7b74 <__ledf2+0xc0>)
    7ae4:	429c      	cmp	r4, r3
    7ae6:	d022      	beq.n	7b2e <__ledf2+0x7a>
    7ae8:	2d00      	cmp	r5, #0
    7aea:	d112      	bne.n	7b12 <__ledf2+0x5e>
    7aec:	4330      	orrs	r0, r6
    7aee:	4243      	negs	r3, r0
    7af0:	4143      	adcs	r3, r0
    7af2:	b2db      	uxtb	r3, r3
    7af4:	2c00      	cmp	r4, #0
    7af6:	d01f      	beq.n	7b38 <__ledf2+0x84>
    7af8:	2b00      	cmp	r3, #0
    7afa:	d00c      	beq.n	7b16 <__ledf2+0x62>
    7afc:	464b      	mov	r3, r9
    7afe:	2001      	movs	r0, #1
    7b00:	3b01      	subs	r3, #1
    7b02:	4303      	orrs	r3, r0
    7b04:	0018      	movs	r0, r3
    7b06:	bc3c      	pop	{r2, r3, r4, r5}
    7b08:	4690      	mov	r8, r2
    7b0a:	4699      	mov	r9, r3
    7b0c:	46a2      	mov	sl, r4
    7b0e:	46ab      	mov	fp, r5
    7b10:	bdf0      	pop	{r4, r5, r6, r7, pc}
    7b12:	2c00      	cmp	r4, #0
    7b14:	d016      	beq.n	7b44 <__ledf2+0x90>
    7b16:	45cb      	cmp	fp, r9
    7b18:	d017      	beq.n	7b4a <__ledf2+0x96>
    7b1a:	465b      	mov	r3, fp
    7b1c:	4259      	negs	r1, r3
    7b1e:	2301      	movs	r3, #1
    7b20:	430b      	orrs	r3, r1
    7b22:	e7ef      	b.n	7b04 <__ledf2+0x50>
    7b24:	0031      	movs	r1, r6
    7b26:	2302      	movs	r3, #2
    7b28:	4301      	orrs	r1, r0
    7b2a:	d1eb      	bne.n	7b04 <__ledf2+0x50>
    7b2c:	e7d9      	b.n	7ae2 <__ledf2+0x2e>
    7b2e:	0039      	movs	r1, r7
    7b30:	2302      	movs	r3, #2
    7b32:	4311      	orrs	r1, r2
    7b34:	d1e6      	bne.n	7b04 <__ledf2+0x50>
    7b36:	e7d7      	b.n	7ae8 <__ledf2+0x34>
    7b38:	433a      	orrs	r2, r7
    7b3a:	d1dd      	bne.n	7af8 <__ledf2+0x44>
    7b3c:	2300      	movs	r3, #0
    7b3e:	2800      	cmp	r0, #0
    7b40:	d0e0      	beq.n	7b04 <__ledf2+0x50>
    7b42:	e7ea      	b.n	7b1a <__ledf2+0x66>
    7b44:	433a      	orrs	r2, r7
    7b46:	d1e6      	bne.n	7b16 <__ledf2+0x62>
    7b48:	e7e7      	b.n	7b1a <__ledf2+0x66>
    7b4a:	42a5      	cmp	r5, r4
    7b4c:	dce5      	bgt.n	7b1a <__ledf2+0x66>
    7b4e:	db05      	blt.n	7b5c <__ledf2+0xa8>
    7b50:	42be      	cmp	r6, r7
    7b52:	d8e2      	bhi.n	7b1a <__ledf2+0x66>
    7b54:	d007      	beq.n	7b66 <__ledf2+0xb2>
    7b56:	2300      	movs	r3, #0
    7b58:	42be      	cmp	r6, r7
    7b5a:	d2d3      	bcs.n	7b04 <__ledf2+0x50>
    7b5c:	4659      	mov	r1, fp
    7b5e:	2301      	movs	r3, #1
    7b60:	3901      	subs	r1, #1
    7b62:	430b      	orrs	r3, r1
    7b64:	e7ce      	b.n	7b04 <__ledf2+0x50>
    7b66:	45c4      	cmp	ip, r8
    7b68:	d8d7      	bhi.n	7b1a <__ledf2+0x66>
    7b6a:	2300      	movs	r3, #0
    7b6c:	45c4      	cmp	ip, r8
    7b6e:	d3f5      	bcc.n	7b5c <__ledf2+0xa8>
    7b70:	e7c8      	b.n	7b04 <__ledf2+0x50>
    7b72:	46c0      	nop			; (mov r8, r8)
    7b74:	000007ff 	.word	0x000007ff

00007b78 <__aeabi_dmul>:
    7b78:	b5f0      	push	{r4, r5, r6, r7, lr}
    7b7a:	4657      	mov	r7, sl
    7b7c:	4645      	mov	r5, r8
    7b7e:	46de      	mov	lr, fp
    7b80:	464e      	mov	r6, r9
    7b82:	b5e0      	push	{r5, r6, r7, lr}
    7b84:	030c      	lsls	r4, r1, #12
    7b86:	4698      	mov	r8, r3
    7b88:	004e      	lsls	r6, r1, #1
    7b8a:	0b23      	lsrs	r3, r4, #12
    7b8c:	b087      	sub	sp, #28
    7b8e:	0007      	movs	r7, r0
    7b90:	4692      	mov	sl, r2
    7b92:	469b      	mov	fp, r3
    7b94:	0d76      	lsrs	r6, r6, #21
    7b96:	0fcd      	lsrs	r5, r1, #31
    7b98:	2e00      	cmp	r6, #0
    7b9a:	d06b      	beq.n	7c74 <__aeabi_dmul+0xfc>
    7b9c:	4b6d      	ldr	r3, [pc, #436]	; (7d54 <__aeabi_dmul+0x1dc>)
    7b9e:	429e      	cmp	r6, r3
    7ba0:	d035      	beq.n	7c0e <__aeabi_dmul+0x96>
    7ba2:	2480      	movs	r4, #128	; 0x80
    7ba4:	465b      	mov	r3, fp
    7ba6:	0f42      	lsrs	r2, r0, #29
    7ba8:	0424      	lsls	r4, r4, #16
    7baa:	00db      	lsls	r3, r3, #3
    7bac:	4314      	orrs	r4, r2
    7bae:	431c      	orrs	r4, r3
    7bb0:	00c3      	lsls	r3, r0, #3
    7bb2:	4699      	mov	r9, r3
    7bb4:	4b68      	ldr	r3, [pc, #416]	; (7d58 <__aeabi_dmul+0x1e0>)
    7bb6:	46a3      	mov	fp, r4
    7bb8:	469c      	mov	ip, r3
    7bba:	2300      	movs	r3, #0
    7bbc:	2700      	movs	r7, #0
    7bbe:	4466      	add	r6, ip
    7bc0:	9302      	str	r3, [sp, #8]
    7bc2:	4643      	mov	r3, r8
    7bc4:	031c      	lsls	r4, r3, #12
    7bc6:	005a      	lsls	r2, r3, #1
    7bc8:	0fdb      	lsrs	r3, r3, #31
    7bca:	4650      	mov	r0, sl
    7bcc:	0b24      	lsrs	r4, r4, #12
    7bce:	0d52      	lsrs	r2, r2, #21
    7bd0:	4698      	mov	r8, r3
    7bd2:	d100      	bne.n	7bd6 <__aeabi_dmul+0x5e>
    7bd4:	e076      	b.n	7cc4 <__aeabi_dmul+0x14c>
    7bd6:	4b5f      	ldr	r3, [pc, #380]	; (7d54 <__aeabi_dmul+0x1dc>)
    7bd8:	429a      	cmp	r2, r3
    7bda:	d06d      	beq.n	7cb8 <__aeabi_dmul+0x140>
    7bdc:	2380      	movs	r3, #128	; 0x80
    7bde:	0f41      	lsrs	r1, r0, #29
    7be0:	041b      	lsls	r3, r3, #16
    7be2:	430b      	orrs	r3, r1
    7be4:	495c      	ldr	r1, [pc, #368]	; (7d58 <__aeabi_dmul+0x1e0>)
    7be6:	00e4      	lsls	r4, r4, #3
    7be8:	468c      	mov	ip, r1
    7bea:	431c      	orrs	r4, r3
    7bec:	00c3      	lsls	r3, r0, #3
    7bee:	2000      	movs	r0, #0
    7bf0:	4462      	add	r2, ip
    7bf2:	4641      	mov	r1, r8
    7bf4:	18b6      	adds	r6, r6, r2
    7bf6:	4069      	eors	r1, r5
    7bf8:	1c72      	adds	r2, r6, #1
    7bfa:	9101      	str	r1, [sp, #4]
    7bfc:	4694      	mov	ip, r2
    7bfe:	4307      	orrs	r7, r0
    7c00:	2f0f      	cmp	r7, #15
    7c02:	d900      	bls.n	7c06 <__aeabi_dmul+0x8e>
    7c04:	e0b0      	b.n	7d68 <__aeabi_dmul+0x1f0>
    7c06:	4a55      	ldr	r2, [pc, #340]	; (7d5c <__aeabi_dmul+0x1e4>)
    7c08:	00bf      	lsls	r7, r7, #2
    7c0a:	59d2      	ldr	r2, [r2, r7]
    7c0c:	4697      	mov	pc, r2
    7c0e:	465b      	mov	r3, fp
    7c10:	4303      	orrs	r3, r0
    7c12:	4699      	mov	r9, r3
    7c14:	d000      	beq.n	7c18 <__aeabi_dmul+0xa0>
    7c16:	e087      	b.n	7d28 <__aeabi_dmul+0x1b0>
    7c18:	2300      	movs	r3, #0
    7c1a:	469b      	mov	fp, r3
    7c1c:	3302      	adds	r3, #2
    7c1e:	2708      	movs	r7, #8
    7c20:	9302      	str	r3, [sp, #8]
    7c22:	e7ce      	b.n	7bc2 <__aeabi_dmul+0x4a>
    7c24:	4642      	mov	r2, r8
    7c26:	9201      	str	r2, [sp, #4]
    7c28:	2802      	cmp	r0, #2
    7c2a:	d067      	beq.n	7cfc <__aeabi_dmul+0x184>
    7c2c:	2803      	cmp	r0, #3
    7c2e:	d100      	bne.n	7c32 <__aeabi_dmul+0xba>
    7c30:	e20e      	b.n	8050 <__aeabi_dmul+0x4d8>
    7c32:	2801      	cmp	r0, #1
    7c34:	d000      	beq.n	7c38 <__aeabi_dmul+0xc0>
    7c36:	e162      	b.n	7efe <__aeabi_dmul+0x386>
    7c38:	2300      	movs	r3, #0
    7c3a:	2400      	movs	r4, #0
    7c3c:	2200      	movs	r2, #0
    7c3e:	4699      	mov	r9, r3
    7c40:	9901      	ldr	r1, [sp, #4]
    7c42:	4001      	ands	r1, r0
    7c44:	b2cd      	uxtb	r5, r1
    7c46:	2100      	movs	r1, #0
    7c48:	0312      	lsls	r2, r2, #12
    7c4a:	0d0b      	lsrs	r3, r1, #20
    7c4c:	0b12      	lsrs	r2, r2, #12
    7c4e:	051b      	lsls	r3, r3, #20
    7c50:	4313      	orrs	r3, r2
    7c52:	4a43      	ldr	r2, [pc, #268]	; (7d60 <__aeabi_dmul+0x1e8>)
    7c54:	0524      	lsls	r4, r4, #20
    7c56:	4013      	ands	r3, r2
    7c58:	431c      	orrs	r4, r3
    7c5a:	0064      	lsls	r4, r4, #1
    7c5c:	07ed      	lsls	r5, r5, #31
    7c5e:	0864      	lsrs	r4, r4, #1
    7c60:	432c      	orrs	r4, r5
    7c62:	4648      	mov	r0, r9
    7c64:	0021      	movs	r1, r4
    7c66:	b007      	add	sp, #28
    7c68:	bc3c      	pop	{r2, r3, r4, r5}
    7c6a:	4690      	mov	r8, r2
    7c6c:	4699      	mov	r9, r3
    7c6e:	46a2      	mov	sl, r4
    7c70:	46ab      	mov	fp, r5
    7c72:	bdf0      	pop	{r4, r5, r6, r7, pc}
    7c74:	4303      	orrs	r3, r0
    7c76:	4699      	mov	r9, r3
    7c78:	d04f      	beq.n	7d1a <__aeabi_dmul+0x1a2>
    7c7a:	465b      	mov	r3, fp
    7c7c:	2b00      	cmp	r3, #0
    7c7e:	d100      	bne.n	7c82 <__aeabi_dmul+0x10a>
    7c80:	e189      	b.n	7f96 <__aeabi_dmul+0x41e>
    7c82:	4658      	mov	r0, fp
    7c84:	f7fb f82e 	bl	2ce4 <__clzsi2>
    7c88:	0003      	movs	r3, r0
    7c8a:	3b0b      	subs	r3, #11
    7c8c:	2b1c      	cmp	r3, #28
    7c8e:	dd00      	ble.n	7c92 <__aeabi_dmul+0x11a>
    7c90:	e17a      	b.n	7f88 <__aeabi_dmul+0x410>
    7c92:	221d      	movs	r2, #29
    7c94:	1ad3      	subs	r3, r2, r3
    7c96:	003a      	movs	r2, r7
    7c98:	0001      	movs	r1, r0
    7c9a:	465c      	mov	r4, fp
    7c9c:	40da      	lsrs	r2, r3
    7c9e:	3908      	subs	r1, #8
    7ca0:	408c      	lsls	r4, r1
    7ca2:	0013      	movs	r3, r2
    7ca4:	408f      	lsls	r7, r1
    7ca6:	4323      	orrs	r3, r4
    7ca8:	469b      	mov	fp, r3
    7caa:	46b9      	mov	r9, r7
    7cac:	2300      	movs	r3, #0
    7cae:	4e2d      	ldr	r6, [pc, #180]	; (7d64 <__aeabi_dmul+0x1ec>)
    7cb0:	2700      	movs	r7, #0
    7cb2:	1a36      	subs	r6, r6, r0
    7cb4:	9302      	str	r3, [sp, #8]
    7cb6:	e784      	b.n	7bc2 <__aeabi_dmul+0x4a>
    7cb8:	4653      	mov	r3, sl
    7cba:	4323      	orrs	r3, r4
    7cbc:	d12a      	bne.n	7d14 <__aeabi_dmul+0x19c>
    7cbe:	2400      	movs	r4, #0
    7cc0:	2002      	movs	r0, #2
    7cc2:	e796      	b.n	7bf2 <__aeabi_dmul+0x7a>
    7cc4:	4653      	mov	r3, sl
    7cc6:	4323      	orrs	r3, r4
    7cc8:	d020      	beq.n	7d0c <__aeabi_dmul+0x194>
    7cca:	2c00      	cmp	r4, #0
    7ccc:	d100      	bne.n	7cd0 <__aeabi_dmul+0x158>
    7cce:	e157      	b.n	7f80 <__aeabi_dmul+0x408>
    7cd0:	0020      	movs	r0, r4
    7cd2:	f7fb f807 	bl	2ce4 <__clzsi2>
    7cd6:	0003      	movs	r3, r0
    7cd8:	3b0b      	subs	r3, #11
    7cda:	2b1c      	cmp	r3, #28
    7cdc:	dd00      	ble.n	7ce0 <__aeabi_dmul+0x168>
    7cde:	e149      	b.n	7f74 <__aeabi_dmul+0x3fc>
    7ce0:	211d      	movs	r1, #29
    7ce2:	1acb      	subs	r3, r1, r3
    7ce4:	4651      	mov	r1, sl
    7ce6:	0002      	movs	r2, r0
    7ce8:	40d9      	lsrs	r1, r3
    7cea:	4653      	mov	r3, sl
    7cec:	3a08      	subs	r2, #8
    7cee:	4094      	lsls	r4, r2
    7cf0:	4093      	lsls	r3, r2
    7cf2:	430c      	orrs	r4, r1
    7cf4:	4a1b      	ldr	r2, [pc, #108]	; (7d64 <__aeabi_dmul+0x1ec>)
    7cf6:	1a12      	subs	r2, r2, r0
    7cf8:	2000      	movs	r0, #0
    7cfa:	e77a      	b.n	7bf2 <__aeabi_dmul+0x7a>
    7cfc:	2501      	movs	r5, #1
    7cfe:	9b01      	ldr	r3, [sp, #4]
    7d00:	4c14      	ldr	r4, [pc, #80]	; (7d54 <__aeabi_dmul+0x1dc>)
    7d02:	401d      	ands	r5, r3
    7d04:	2300      	movs	r3, #0
    7d06:	2200      	movs	r2, #0
    7d08:	4699      	mov	r9, r3
    7d0a:	e79c      	b.n	7c46 <__aeabi_dmul+0xce>
    7d0c:	2400      	movs	r4, #0
    7d0e:	2200      	movs	r2, #0
    7d10:	2001      	movs	r0, #1
    7d12:	e76e      	b.n	7bf2 <__aeabi_dmul+0x7a>
    7d14:	4653      	mov	r3, sl
    7d16:	2003      	movs	r0, #3
    7d18:	e76b      	b.n	7bf2 <__aeabi_dmul+0x7a>
    7d1a:	2300      	movs	r3, #0
    7d1c:	469b      	mov	fp, r3
    7d1e:	3301      	adds	r3, #1
    7d20:	2704      	movs	r7, #4
    7d22:	2600      	movs	r6, #0
    7d24:	9302      	str	r3, [sp, #8]
    7d26:	e74c      	b.n	7bc2 <__aeabi_dmul+0x4a>
    7d28:	2303      	movs	r3, #3
    7d2a:	4681      	mov	r9, r0
    7d2c:	270c      	movs	r7, #12
    7d2e:	9302      	str	r3, [sp, #8]
    7d30:	e747      	b.n	7bc2 <__aeabi_dmul+0x4a>
    7d32:	2280      	movs	r2, #128	; 0x80
    7d34:	2300      	movs	r3, #0
    7d36:	2500      	movs	r5, #0
    7d38:	0312      	lsls	r2, r2, #12
    7d3a:	4699      	mov	r9, r3
    7d3c:	4c05      	ldr	r4, [pc, #20]	; (7d54 <__aeabi_dmul+0x1dc>)
    7d3e:	e782      	b.n	7c46 <__aeabi_dmul+0xce>
    7d40:	465c      	mov	r4, fp
    7d42:	464b      	mov	r3, r9
    7d44:	9802      	ldr	r0, [sp, #8]
    7d46:	e76f      	b.n	7c28 <__aeabi_dmul+0xb0>
    7d48:	465c      	mov	r4, fp
    7d4a:	464b      	mov	r3, r9
    7d4c:	9501      	str	r5, [sp, #4]
    7d4e:	9802      	ldr	r0, [sp, #8]
    7d50:	e76a      	b.n	7c28 <__aeabi_dmul+0xb0>
    7d52:	46c0      	nop			; (mov r8, r8)
    7d54:	000007ff 	.word	0x000007ff
    7d58:	fffffc01 	.word	0xfffffc01
    7d5c:	00008f50 	.word	0x00008f50
    7d60:	800fffff 	.word	0x800fffff
    7d64:	fffffc0d 	.word	0xfffffc0d
    7d68:	464a      	mov	r2, r9
    7d6a:	4649      	mov	r1, r9
    7d6c:	0c17      	lsrs	r7, r2, #16
    7d6e:	0c1a      	lsrs	r2, r3, #16
    7d70:	041b      	lsls	r3, r3, #16
    7d72:	0c1b      	lsrs	r3, r3, #16
    7d74:	0408      	lsls	r0, r1, #16
    7d76:	0019      	movs	r1, r3
    7d78:	0c00      	lsrs	r0, r0, #16
    7d7a:	4341      	muls	r1, r0
    7d7c:	0015      	movs	r5, r2
    7d7e:	4688      	mov	r8, r1
    7d80:	0019      	movs	r1, r3
    7d82:	437d      	muls	r5, r7
    7d84:	4379      	muls	r1, r7
    7d86:	9503      	str	r5, [sp, #12]
    7d88:	4689      	mov	r9, r1
    7d8a:	0029      	movs	r1, r5
    7d8c:	0015      	movs	r5, r2
    7d8e:	4345      	muls	r5, r0
    7d90:	444d      	add	r5, r9
    7d92:	9502      	str	r5, [sp, #8]
    7d94:	4645      	mov	r5, r8
    7d96:	0c2d      	lsrs	r5, r5, #16
    7d98:	46aa      	mov	sl, r5
    7d9a:	9d02      	ldr	r5, [sp, #8]
    7d9c:	4455      	add	r5, sl
    7d9e:	45a9      	cmp	r9, r5
    7da0:	d906      	bls.n	7db0 <__aeabi_dmul+0x238>
    7da2:	468a      	mov	sl, r1
    7da4:	2180      	movs	r1, #128	; 0x80
    7da6:	0249      	lsls	r1, r1, #9
    7da8:	4689      	mov	r9, r1
    7daa:	44ca      	add	sl, r9
    7dac:	4651      	mov	r1, sl
    7dae:	9103      	str	r1, [sp, #12]
    7db0:	0c29      	lsrs	r1, r5, #16
    7db2:	9104      	str	r1, [sp, #16]
    7db4:	4641      	mov	r1, r8
    7db6:	0409      	lsls	r1, r1, #16
    7db8:	042d      	lsls	r5, r5, #16
    7dba:	0c09      	lsrs	r1, r1, #16
    7dbc:	4688      	mov	r8, r1
    7dbe:	0029      	movs	r1, r5
    7dc0:	0c25      	lsrs	r5, r4, #16
    7dc2:	0424      	lsls	r4, r4, #16
    7dc4:	4441      	add	r1, r8
    7dc6:	0c24      	lsrs	r4, r4, #16
    7dc8:	9105      	str	r1, [sp, #20]
    7dca:	0021      	movs	r1, r4
    7dcc:	4341      	muls	r1, r0
    7dce:	4688      	mov	r8, r1
    7dd0:	0021      	movs	r1, r4
    7dd2:	4379      	muls	r1, r7
    7dd4:	468a      	mov	sl, r1
    7dd6:	4368      	muls	r0, r5
    7dd8:	4641      	mov	r1, r8
    7dda:	4450      	add	r0, sl
    7ddc:	4681      	mov	r9, r0
    7dde:	0c08      	lsrs	r0, r1, #16
    7de0:	4448      	add	r0, r9
    7de2:	436f      	muls	r7, r5
    7de4:	4582      	cmp	sl, r0
    7de6:	d903      	bls.n	7df0 <__aeabi_dmul+0x278>
    7de8:	2180      	movs	r1, #128	; 0x80
    7dea:	0249      	lsls	r1, r1, #9
    7dec:	4689      	mov	r9, r1
    7dee:	444f      	add	r7, r9
    7df0:	0c01      	lsrs	r1, r0, #16
    7df2:	4689      	mov	r9, r1
    7df4:	0039      	movs	r1, r7
    7df6:	4449      	add	r1, r9
    7df8:	9102      	str	r1, [sp, #8]
    7dfa:	4641      	mov	r1, r8
    7dfc:	040f      	lsls	r7, r1, #16
    7dfe:	9904      	ldr	r1, [sp, #16]
    7e00:	0c3f      	lsrs	r7, r7, #16
    7e02:	4688      	mov	r8, r1
    7e04:	0400      	lsls	r0, r0, #16
    7e06:	19c0      	adds	r0, r0, r7
    7e08:	4480      	add	r8, r0
    7e0a:	4641      	mov	r1, r8
    7e0c:	9104      	str	r1, [sp, #16]
    7e0e:	4659      	mov	r1, fp
    7e10:	0c0f      	lsrs	r7, r1, #16
    7e12:	0409      	lsls	r1, r1, #16
    7e14:	0c09      	lsrs	r1, r1, #16
    7e16:	4688      	mov	r8, r1
    7e18:	4359      	muls	r1, r3
    7e1a:	468a      	mov	sl, r1
    7e1c:	0039      	movs	r1, r7
    7e1e:	4351      	muls	r1, r2
    7e20:	4689      	mov	r9, r1
    7e22:	4641      	mov	r1, r8
    7e24:	434a      	muls	r2, r1
    7e26:	4651      	mov	r1, sl
    7e28:	0c09      	lsrs	r1, r1, #16
    7e2a:	468b      	mov	fp, r1
    7e2c:	437b      	muls	r3, r7
    7e2e:	18d2      	adds	r2, r2, r3
    7e30:	445a      	add	r2, fp
    7e32:	4293      	cmp	r3, r2
    7e34:	d903      	bls.n	7e3e <__aeabi_dmul+0x2c6>
    7e36:	2380      	movs	r3, #128	; 0x80
    7e38:	025b      	lsls	r3, r3, #9
    7e3a:	469b      	mov	fp, r3
    7e3c:	44d9      	add	r9, fp
    7e3e:	4651      	mov	r1, sl
    7e40:	0409      	lsls	r1, r1, #16
    7e42:	0c09      	lsrs	r1, r1, #16
    7e44:	468a      	mov	sl, r1
    7e46:	4641      	mov	r1, r8
    7e48:	4361      	muls	r1, r4
    7e4a:	437c      	muls	r4, r7
    7e4c:	0c13      	lsrs	r3, r2, #16
    7e4e:	0412      	lsls	r2, r2, #16
    7e50:	444b      	add	r3, r9
    7e52:	4452      	add	r2, sl
    7e54:	46a1      	mov	r9, r4
    7e56:	468a      	mov	sl, r1
    7e58:	003c      	movs	r4, r7
    7e5a:	4641      	mov	r1, r8
    7e5c:	436c      	muls	r4, r5
    7e5e:	434d      	muls	r5, r1
    7e60:	4651      	mov	r1, sl
    7e62:	444d      	add	r5, r9
    7e64:	0c0f      	lsrs	r7, r1, #16
    7e66:	197d      	adds	r5, r7, r5
    7e68:	45a9      	cmp	r9, r5
    7e6a:	d903      	bls.n	7e74 <__aeabi_dmul+0x2fc>
    7e6c:	2180      	movs	r1, #128	; 0x80
    7e6e:	0249      	lsls	r1, r1, #9
    7e70:	4688      	mov	r8, r1
    7e72:	4444      	add	r4, r8
    7e74:	9f04      	ldr	r7, [sp, #16]
    7e76:	9903      	ldr	r1, [sp, #12]
    7e78:	46b8      	mov	r8, r7
    7e7a:	4441      	add	r1, r8
    7e7c:	468b      	mov	fp, r1
    7e7e:	4583      	cmp	fp, r0
    7e80:	4180      	sbcs	r0, r0
    7e82:	4241      	negs	r1, r0
    7e84:	4688      	mov	r8, r1
    7e86:	4651      	mov	r1, sl
    7e88:	0408      	lsls	r0, r1, #16
    7e8a:	042f      	lsls	r7, r5, #16
    7e8c:	0c00      	lsrs	r0, r0, #16
    7e8e:	183f      	adds	r7, r7, r0
    7e90:	4658      	mov	r0, fp
    7e92:	9902      	ldr	r1, [sp, #8]
    7e94:	1810      	adds	r0, r2, r0
    7e96:	4689      	mov	r9, r1
    7e98:	4290      	cmp	r0, r2
    7e9a:	4192      	sbcs	r2, r2
    7e9c:	444f      	add	r7, r9
    7e9e:	46ba      	mov	sl, r7
    7ea0:	4252      	negs	r2, r2
    7ea2:	4699      	mov	r9, r3
    7ea4:	4693      	mov	fp, r2
    7ea6:	44c2      	add	sl, r8
    7ea8:	44d1      	add	r9, sl
    7eaa:	44cb      	add	fp, r9
    7eac:	428f      	cmp	r7, r1
    7eae:	41bf      	sbcs	r7, r7
    7eb0:	45c2      	cmp	sl, r8
    7eb2:	4189      	sbcs	r1, r1
    7eb4:	4599      	cmp	r9, r3
    7eb6:	419b      	sbcs	r3, r3
    7eb8:	4593      	cmp	fp, r2
    7eba:	4192      	sbcs	r2, r2
    7ebc:	427f      	negs	r7, r7
    7ebe:	4249      	negs	r1, r1
    7ec0:	0c2d      	lsrs	r5, r5, #16
    7ec2:	4252      	negs	r2, r2
    7ec4:	430f      	orrs	r7, r1
    7ec6:	425b      	negs	r3, r3
    7ec8:	4313      	orrs	r3, r2
    7eca:	197f      	adds	r7, r7, r5
    7ecc:	18ff      	adds	r7, r7, r3
    7ece:	465b      	mov	r3, fp
    7ed0:	193c      	adds	r4, r7, r4
    7ed2:	0ddb      	lsrs	r3, r3, #23
    7ed4:	9a05      	ldr	r2, [sp, #20]
    7ed6:	0264      	lsls	r4, r4, #9
    7ed8:	431c      	orrs	r4, r3
    7eda:	0243      	lsls	r3, r0, #9
    7edc:	4313      	orrs	r3, r2
    7ede:	1e5d      	subs	r5, r3, #1
    7ee0:	41ab      	sbcs	r3, r5
    7ee2:	465a      	mov	r2, fp
    7ee4:	0dc0      	lsrs	r0, r0, #23
    7ee6:	4303      	orrs	r3, r0
    7ee8:	0252      	lsls	r2, r2, #9
    7eea:	4313      	orrs	r3, r2
    7eec:	01e2      	lsls	r2, r4, #7
    7eee:	d556      	bpl.n	7f9e <__aeabi_dmul+0x426>
    7ef0:	2001      	movs	r0, #1
    7ef2:	085a      	lsrs	r2, r3, #1
    7ef4:	4003      	ands	r3, r0
    7ef6:	4313      	orrs	r3, r2
    7ef8:	07e2      	lsls	r2, r4, #31
    7efa:	4313      	orrs	r3, r2
    7efc:	0864      	lsrs	r4, r4, #1
    7efe:	485a      	ldr	r0, [pc, #360]	; (8068 <__aeabi_dmul+0x4f0>)
    7f00:	4460      	add	r0, ip
    7f02:	2800      	cmp	r0, #0
    7f04:	dd4d      	ble.n	7fa2 <__aeabi_dmul+0x42a>
    7f06:	075a      	lsls	r2, r3, #29
    7f08:	d009      	beq.n	7f1e <__aeabi_dmul+0x3a6>
    7f0a:	220f      	movs	r2, #15
    7f0c:	401a      	ands	r2, r3
    7f0e:	2a04      	cmp	r2, #4
    7f10:	d005      	beq.n	7f1e <__aeabi_dmul+0x3a6>
    7f12:	1d1a      	adds	r2, r3, #4
    7f14:	429a      	cmp	r2, r3
    7f16:	419b      	sbcs	r3, r3
    7f18:	425b      	negs	r3, r3
    7f1a:	18e4      	adds	r4, r4, r3
    7f1c:	0013      	movs	r3, r2
    7f1e:	01e2      	lsls	r2, r4, #7
    7f20:	d504      	bpl.n	7f2c <__aeabi_dmul+0x3b4>
    7f22:	2080      	movs	r0, #128	; 0x80
    7f24:	4a51      	ldr	r2, [pc, #324]	; (806c <__aeabi_dmul+0x4f4>)
    7f26:	00c0      	lsls	r0, r0, #3
    7f28:	4014      	ands	r4, r2
    7f2a:	4460      	add	r0, ip
    7f2c:	4a50      	ldr	r2, [pc, #320]	; (8070 <__aeabi_dmul+0x4f8>)
    7f2e:	4290      	cmp	r0, r2
    7f30:	dd00      	ble.n	7f34 <__aeabi_dmul+0x3bc>
    7f32:	e6e3      	b.n	7cfc <__aeabi_dmul+0x184>
    7f34:	2501      	movs	r5, #1
    7f36:	08db      	lsrs	r3, r3, #3
    7f38:	0762      	lsls	r2, r4, #29
    7f3a:	431a      	orrs	r2, r3
    7f3c:	0264      	lsls	r4, r4, #9
    7f3e:	9b01      	ldr	r3, [sp, #4]
    7f40:	4691      	mov	r9, r2
    7f42:	0b22      	lsrs	r2, r4, #12
    7f44:	0544      	lsls	r4, r0, #21
    7f46:	0d64      	lsrs	r4, r4, #21
    7f48:	401d      	ands	r5, r3
    7f4a:	e67c      	b.n	7c46 <__aeabi_dmul+0xce>
    7f4c:	2280      	movs	r2, #128	; 0x80
    7f4e:	4659      	mov	r1, fp
    7f50:	0312      	lsls	r2, r2, #12
    7f52:	4211      	tst	r1, r2
    7f54:	d008      	beq.n	7f68 <__aeabi_dmul+0x3f0>
    7f56:	4214      	tst	r4, r2
    7f58:	d106      	bne.n	7f68 <__aeabi_dmul+0x3f0>
    7f5a:	4322      	orrs	r2, r4
    7f5c:	0312      	lsls	r2, r2, #12
    7f5e:	0b12      	lsrs	r2, r2, #12
    7f60:	4645      	mov	r5, r8
    7f62:	4699      	mov	r9, r3
    7f64:	4c43      	ldr	r4, [pc, #268]	; (8074 <__aeabi_dmul+0x4fc>)
    7f66:	e66e      	b.n	7c46 <__aeabi_dmul+0xce>
    7f68:	465b      	mov	r3, fp
    7f6a:	431a      	orrs	r2, r3
    7f6c:	0312      	lsls	r2, r2, #12
    7f6e:	0b12      	lsrs	r2, r2, #12
    7f70:	4c40      	ldr	r4, [pc, #256]	; (8074 <__aeabi_dmul+0x4fc>)
    7f72:	e668      	b.n	7c46 <__aeabi_dmul+0xce>
    7f74:	0003      	movs	r3, r0
    7f76:	4654      	mov	r4, sl
    7f78:	3b28      	subs	r3, #40	; 0x28
    7f7a:	409c      	lsls	r4, r3
    7f7c:	2300      	movs	r3, #0
    7f7e:	e6b9      	b.n	7cf4 <__aeabi_dmul+0x17c>
    7f80:	f7fa feb0 	bl	2ce4 <__clzsi2>
    7f84:	3020      	adds	r0, #32
    7f86:	e6a6      	b.n	7cd6 <__aeabi_dmul+0x15e>
    7f88:	0003      	movs	r3, r0
    7f8a:	3b28      	subs	r3, #40	; 0x28
    7f8c:	409f      	lsls	r7, r3
    7f8e:	2300      	movs	r3, #0
    7f90:	46bb      	mov	fp, r7
    7f92:	4699      	mov	r9, r3
    7f94:	e68a      	b.n	7cac <__aeabi_dmul+0x134>
    7f96:	f7fa fea5 	bl	2ce4 <__clzsi2>
    7f9a:	3020      	adds	r0, #32
    7f9c:	e674      	b.n	7c88 <__aeabi_dmul+0x110>
    7f9e:	46b4      	mov	ip, r6
    7fa0:	e7ad      	b.n	7efe <__aeabi_dmul+0x386>
    7fa2:	2501      	movs	r5, #1
    7fa4:	1a2a      	subs	r2, r5, r0
    7fa6:	2a38      	cmp	r2, #56	; 0x38
    7fa8:	dd06      	ble.n	7fb8 <__aeabi_dmul+0x440>
    7faa:	9b01      	ldr	r3, [sp, #4]
    7fac:	2400      	movs	r4, #0
    7fae:	401d      	ands	r5, r3
    7fb0:	2300      	movs	r3, #0
    7fb2:	2200      	movs	r2, #0
    7fb4:	4699      	mov	r9, r3
    7fb6:	e646      	b.n	7c46 <__aeabi_dmul+0xce>
    7fb8:	2a1f      	cmp	r2, #31
    7fba:	dc21      	bgt.n	8000 <__aeabi_dmul+0x488>
    7fbc:	2520      	movs	r5, #32
    7fbe:	0020      	movs	r0, r4
    7fc0:	1aad      	subs	r5, r5, r2
    7fc2:	001e      	movs	r6, r3
    7fc4:	40ab      	lsls	r3, r5
    7fc6:	40a8      	lsls	r0, r5
    7fc8:	40d6      	lsrs	r6, r2
    7fca:	1e5d      	subs	r5, r3, #1
    7fcc:	41ab      	sbcs	r3, r5
    7fce:	4330      	orrs	r0, r6
    7fd0:	4318      	orrs	r0, r3
    7fd2:	40d4      	lsrs	r4, r2
    7fd4:	0743      	lsls	r3, r0, #29
    7fd6:	d009      	beq.n	7fec <__aeabi_dmul+0x474>
    7fd8:	230f      	movs	r3, #15
    7fda:	4003      	ands	r3, r0
    7fdc:	2b04      	cmp	r3, #4
    7fde:	d005      	beq.n	7fec <__aeabi_dmul+0x474>
    7fe0:	0003      	movs	r3, r0
    7fe2:	1d18      	adds	r0, r3, #4
    7fe4:	4298      	cmp	r0, r3
    7fe6:	419b      	sbcs	r3, r3
    7fe8:	425b      	negs	r3, r3
    7fea:	18e4      	adds	r4, r4, r3
    7fec:	0223      	lsls	r3, r4, #8
    7fee:	d521      	bpl.n	8034 <__aeabi_dmul+0x4bc>
    7ff0:	2501      	movs	r5, #1
    7ff2:	9b01      	ldr	r3, [sp, #4]
    7ff4:	2401      	movs	r4, #1
    7ff6:	401d      	ands	r5, r3
    7ff8:	2300      	movs	r3, #0
    7ffa:	2200      	movs	r2, #0
    7ffc:	4699      	mov	r9, r3
    7ffe:	e622      	b.n	7c46 <__aeabi_dmul+0xce>
    8000:	251f      	movs	r5, #31
    8002:	0021      	movs	r1, r4
    8004:	426d      	negs	r5, r5
    8006:	1a28      	subs	r0, r5, r0
    8008:	40c1      	lsrs	r1, r0
    800a:	0008      	movs	r0, r1
    800c:	2a20      	cmp	r2, #32
    800e:	d01d      	beq.n	804c <__aeabi_dmul+0x4d4>
    8010:	355f      	adds	r5, #95	; 0x5f
    8012:	1aaa      	subs	r2, r5, r2
    8014:	4094      	lsls	r4, r2
    8016:	4323      	orrs	r3, r4
    8018:	1e5c      	subs	r4, r3, #1
    801a:	41a3      	sbcs	r3, r4
    801c:	2507      	movs	r5, #7
    801e:	4303      	orrs	r3, r0
    8020:	401d      	ands	r5, r3
    8022:	2200      	movs	r2, #0
    8024:	2d00      	cmp	r5, #0
    8026:	d009      	beq.n	803c <__aeabi_dmul+0x4c4>
    8028:	220f      	movs	r2, #15
    802a:	2400      	movs	r4, #0
    802c:	401a      	ands	r2, r3
    802e:	0018      	movs	r0, r3
    8030:	2a04      	cmp	r2, #4
    8032:	d1d6      	bne.n	7fe2 <__aeabi_dmul+0x46a>
    8034:	0003      	movs	r3, r0
    8036:	0765      	lsls	r5, r4, #29
    8038:	0264      	lsls	r4, r4, #9
    803a:	0b22      	lsrs	r2, r4, #12
    803c:	08db      	lsrs	r3, r3, #3
    803e:	432b      	orrs	r3, r5
    8040:	2501      	movs	r5, #1
    8042:	4699      	mov	r9, r3
    8044:	9b01      	ldr	r3, [sp, #4]
    8046:	2400      	movs	r4, #0
    8048:	401d      	ands	r5, r3
    804a:	e5fc      	b.n	7c46 <__aeabi_dmul+0xce>
    804c:	2400      	movs	r4, #0
    804e:	e7e2      	b.n	8016 <__aeabi_dmul+0x49e>
    8050:	2280      	movs	r2, #128	; 0x80
    8052:	2501      	movs	r5, #1
    8054:	0312      	lsls	r2, r2, #12
    8056:	4322      	orrs	r2, r4
    8058:	9901      	ldr	r1, [sp, #4]
    805a:	0312      	lsls	r2, r2, #12
    805c:	0b12      	lsrs	r2, r2, #12
    805e:	400d      	ands	r5, r1
    8060:	4699      	mov	r9, r3
    8062:	4c04      	ldr	r4, [pc, #16]	; (8074 <__aeabi_dmul+0x4fc>)
    8064:	e5ef      	b.n	7c46 <__aeabi_dmul+0xce>
    8066:	46c0      	nop			; (mov r8, r8)
    8068:	000003ff 	.word	0x000003ff
    806c:	feffffff 	.word	0xfeffffff
    8070:	000007fe 	.word	0x000007fe
    8074:	000007ff 	.word	0x000007ff

00008078 <__aeabi_dsub>:
    8078:	b5f0      	push	{r4, r5, r6, r7, lr}
    807a:	4646      	mov	r6, r8
    807c:	46d6      	mov	lr, sl
    807e:	464f      	mov	r7, r9
    8080:	030c      	lsls	r4, r1, #12
    8082:	b5c0      	push	{r6, r7, lr}
    8084:	0fcd      	lsrs	r5, r1, #31
    8086:	004e      	lsls	r6, r1, #1
    8088:	0a61      	lsrs	r1, r4, #9
    808a:	0f44      	lsrs	r4, r0, #29
    808c:	430c      	orrs	r4, r1
    808e:	00c1      	lsls	r1, r0, #3
    8090:	0058      	lsls	r0, r3, #1
    8092:	0d40      	lsrs	r0, r0, #21
    8094:	4684      	mov	ip, r0
    8096:	468a      	mov	sl, r1
    8098:	000f      	movs	r7, r1
    809a:	0319      	lsls	r1, r3, #12
    809c:	0f50      	lsrs	r0, r2, #29
    809e:	0a49      	lsrs	r1, r1, #9
    80a0:	4301      	orrs	r1, r0
    80a2:	48c6      	ldr	r0, [pc, #792]	; (83bc <__aeabi_dsub+0x344>)
    80a4:	0d76      	lsrs	r6, r6, #21
    80a6:	46a8      	mov	r8, r5
    80a8:	0fdb      	lsrs	r3, r3, #31
    80aa:	00d2      	lsls	r2, r2, #3
    80ac:	4584      	cmp	ip, r0
    80ae:	d100      	bne.n	80b2 <__aeabi_dsub+0x3a>
    80b0:	e0d8      	b.n	8264 <__aeabi_dsub+0x1ec>
    80b2:	2001      	movs	r0, #1
    80b4:	4043      	eors	r3, r0
    80b6:	42ab      	cmp	r3, r5
    80b8:	d100      	bne.n	80bc <__aeabi_dsub+0x44>
    80ba:	e0a6      	b.n	820a <__aeabi_dsub+0x192>
    80bc:	4660      	mov	r0, ip
    80be:	1a35      	subs	r5, r6, r0
    80c0:	2d00      	cmp	r5, #0
    80c2:	dc00      	bgt.n	80c6 <__aeabi_dsub+0x4e>
    80c4:	e105      	b.n	82d2 <__aeabi_dsub+0x25a>
    80c6:	2800      	cmp	r0, #0
    80c8:	d110      	bne.n	80ec <__aeabi_dsub+0x74>
    80ca:	000b      	movs	r3, r1
    80cc:	4313      	orrs	r3, r2
    80ce:	d100      	bne.n	80d2 <__aeabi_dsub+0x5a>
    80d0:	e0d7      	b.n	8282 <__aeabi_dsub+0x20a>
    80d2:	1e6b      	subs	r3, r5, #1
    80d4:	2b00      	cmp	r3, #0
    80d6:	d000      	beq.n	80da <__aeabi_dsub+0x62>
    80d8:	e14b      	b.n	8372 <__aeabi_dsub+0x2fa>
    80da:	4653      	mov	r3, sl
    80dc:	1a9f      	subs	r7, r3, r2
    80de:	45ba      	cmp	sl, r7
    80e0:	4180      	sbcs	r0, r0
    80e2:	1a64      	subs	r4, r4, r1
    80e4:	4240      	negs	r0, r0
    80e6:	1a24      	subs	r4, r4, r0
    80e8:	2601      	movs	r6, #1
    80ea:	e01e      	b.n	812a <__aeabi_dsub+0xb2>
    80ec:	4bb3      	ldr	r3, [pc, #716]	; (83bc <__aeabi_dsub+0x344>)
    80ee:	429e      	cmp	r6, r3
    80f0:	d048      	beq.n	8184 <__aeabi_dsub+0x10c>
    80f2:	2380      	movs	r3, #128	; 0x80
    80f4:	041b      	lsls	r3, r3, #16
    80f6:	4319      	orrs	r1, r3
    80f8:	2d38      	cmp	r5, #56	; 0x38
    80fa:	dd00      	ble.n	80fe <__aeabi_dsub+0x86>
    80fc:	e119      	b.n	8332 <__aeabi_dsub+0x2ba>
    80fe:	2d1f      	cmp	r5, #31
    8100:	dd00      	ble.n	8104 <__aeabi_dsub+0x8c>
    8102:	e14c      	b.n	839e <__aeabi_dsub+0x326>
    8104:	2320      	movs	r3, #32
    8106:	000f      	movs	r7, r1
    8108:	1b5b      	subs	r3, r3, r5
    810a:	0010      	movs	r0, r2
    810c:	409a      	lsls	r2, r3
    810e:	409f      	lsls	r7, r3
    8110:	40e8      	lsrs	r0, r5
    8112:	1e53      	subs	r3, r2, #1
    8114:	419a      	sbcs	r2, r3
    8116:	40e9      	lsrs	r1, r5
    8118:	4307      	orrs	r7, r0
    811a:	4317      	orrs	r7, r2
    811c:	4653      	mov	r3, sl
    811e:	1bdf      	subs	r7, r3, r7
    8120:	1a61      	subs	r1, r4, r1
    8122:	45ba      	cmp	sl, r7
    8124:	41a4      	sbcs	r4, r4
    8126:	4264      	negs	r4, r4
    8128:	1b0c      	subs	r4, r1, r4
    812a:	0223      	lsls	r3, r4, #8
    812c:	d400      	bmi.n	8130 <__aeabi_dsub+0xb8>
    812e:	e0c5      	b.n	82bc <__aeabi_dsub+0x244>
    8130:	0264      	lsls	r4, r4, #9
    8132:	0a65      	lsrs	r5, r4, #9
    8134:	2d00      	cmp	r5, #0
    8136:	d100      	bne.n	813a <__aeabi_dsub+0xc2>
    8138:	e0f6      	b.n	8328 <__aeabi_dsub+0x2b0>
    813a:	0028      	movs	r0, r5
    813c:	f7fa fdd2 	bl	2ce4 <__clzsi2>
    8140:	0003      	movs	r3, r0
    8142:	3b08      	subs	r3, #8
    8144:	2b1f      	cmp	r3, #31
    8146:	dd00      	ble.n	814a <__aeabi_dsub+0xd2>
    8148:	e0e9      	b.n	831e <__aeabi_dsub+0x2a6>
    814a:	2220      	movs	r2, #32
    814c:	003c      	movs	r4, r7
    814e:	1ad2      	subs	r2, r2, r3
    8150:	409d      	lsls	r5, r3
    8152:	40d4      	lsrs	r4, r2
    8154:	409f      	lsls	r7, r3
    8156:	4325      	orrs	r5, r4
    8158:	429e      	cmp	r6, r3
    815a:	dd00      	ble.n	815e <__aeabi_dsub+0xe6>
    815c:	e0db      	b.n	8316 <__aeabi_dsub+0x29e>
    815e:	1b9e      	subs	r6, r3, r6
    8160:	1c73      	adds	r3, r6, #1
    8162:	2b1f      	cmp	r3, #31
    8164:	dd00      	ble.n	8168 <__aeabi_dsub+0xf0>
    8166:	e10a      	b.n	837e <__aeabi_dsub+0x306>
    8168:	2220      	movs	r2, #32
    816a:	0038      	movs	r0, r7
    816c:	1ad2      	subs	r2, r2, r3
    816e:	0029      	movs	r1, r5
    8170:	4097      	lsls	r7, r2
    8172:	002c      	movs	r4, r5
    8174:	4091      	lsls	r1, r2
    8176:	40d8      	lsrs	r0, r3
    8178:	1e7a      	subs	r2, r7, #1
    817a:	4197      	sbcs	r7, r2
    817c:	40dc      	lsrs	r4, r3
    817e:	2600      	movs	r6, #0
    8180:	4301      	orrs	r1, r0
    8182:	430f      	orrs	r7, r1
    8184:	077b      	lsls	r3, r7, #29
    8186:	d009      	beq.n	819c <__aeabi_dsub+0x124>
    8188:	230f      	movs	r3, #15
    818a:	403b      	ands	r3, r7
    818c:	2b04      	cmp	r3, #4
    818e:	d005      	beq.n	819c <__aeabi_dsub+0x124>
    8190:	1d3b      	adds	r3, r7, #4
    8192:	42bb      	cmp	r3, r7
    8194:	41bf      	sbcs	r7, r7
    8196:	427f      	negs	r7, r7
    8198:	19e4      	adds	r4, r4, r7
    819a:	001f      	movs	r7, r3
    819c:	0223      	lsls	r3, r4, #8
    819e:	d525      	bpl.n	81ec <__aeabi_dsub+0x174>
    81a0:	4b86      	ldr	r3, [pc, #536]	; (83bc <__aeabi_dsub+0x344>)
    81a2:	3601      	adds	r6, #1
    81a4:	429e      	cmp	r6, r3
    81a6:	d100      	bne.n	81aa <__aeabi_dsub+0x132>
    81a8:	e0af      	b.n	830a <__aeabi_dsub+0x292>
    81aa:	4b85      	ldr	r3, [pc, #532]	; (83c0 <__aeabi_dsub+0x348>)
    81ac:	2501      	movs	r5, #1
    81ae:	401c      	ands	r4, r3
    81b0:	4643      	mov	r3, r8
    81b2:	0762      	lsls	r2, r4, #29
    81b4:	08ff      	lsrs	r7, r7, #3
    81b6:	0264      	lsls	r4, r4, #9
    81b8:	0576      	lsls	r6, r6, #21
    81ba:	4317      	orrs	r7, r2
    81bc:	0b24      	lsrs	r4, r4, #12
    81be:	0d76      	lsrs	r6, r6, #21
    81c0:	401d      	ands	r5, r3
    81c2:	2100      	movs	r1, #0
    81c4:	0324      	lsls	r4, r4, #12
    81c6:	0b23      	lsrs	r3, r4, #12
    81c8:	0d0c      	lsrs	r4, r1, #20
    81ca:	4a7e      	ldr	r2, [pc, #504]	; (83c4 <__aeabi_dsub+0x34c>)
    81cc:	0524      	lsls	r4, r4, #20
    81ce:	431c      	orrs	r4, r3
    81d0:	4014      	ands	r4, r2
    81d2:	0533      	lsls	r3, r6, #20
    81d4:	4323      	orrs	r3, r4
    81d6:	005b      	lsls	r3, r3, #1
    81d8:	07ed      	lsls	r5, r5, #31
    81da:	085b      	lsrs	r3, r3, #1
    81dc:	432b      	orrs	r3, r5
    81de:	0038      	movs	r0, r7
    81e0:	0019      	movs	r1, r3
    81e2:	bc1c      	pop	{r2, r3, r4}
    81e4:	4690      	mov	r8, r2
    81e6:	4699      	mov	r9, r3
    81e8:	46a2      	mov	sl, r4
    81ea:	bdf0      	pop	{r4, r5, r6, r7, pc}
    81ec:	2501      	movs	r5, #1
    81ee:	4643      	mov	r3, r8
    81f0:	0762      	lsls	r2, r4, #29
    81f2:	08ff      	lsrs	r7, r7, #3
    81f4:	4317      	orrs	r7, r2
    81f6:	08e4      	lsrs	r4, r4, #3
    81f8:	401d      	ands	r5, r3
    81fa:	4b70      	ldr	r3, [pc, #448]	; (83bc <__aeabi_dsub+0x344>)
    81fc:	429e      	cmp	r6, r3
    81fe:	d036      	beq.n	826e <__aeabi_dsub+0x1f6>
    8200:	0324      	lsls	r4, r4, #12
    8202:	0576      	lsls	r6, r6, #21
    8204:	0b24      	lsrs	r4, r4, #12
    8206:	0d76      	lsrs	r6, r6, #21
    8208:	e7db      	b.n	81c2 <__aeabi_dsub+0x14a>
    820a:	4663      	mov	r3, ip
    820c:	1af3      	subs	r3, r6, r3
    820e:	2b00      	cmp	r3, #0
    8210:	dc00      	bgt.n	8214 <__aeabi_dsub+0x19c>
    8212:	e094      	b.n	833e <__aeabi_dsub+0x2c6>
    8214:	4660      	mov	r0, ip
    8216:	2800      	cmp	r0, #0
    8218:	d035      	beq.n	8286 <__aeabi_dsub+0x20e>
    821a:	4868      	ldr	r0, [pc, #416]	; (83bc <__aeabi_dsub+0x344>)
    821c:	4286      	cmp	r6, r0
    821e:	d0b1      	beq.n	8184 <__aeabi_dsub+0x10c>
    8220:	2780      	movs	r7, #128	; 0x80
    8222:	043f      	lsls	r7, r7, #16
    8224:	4339      	orrs	r1, r7
    8226:	2b38      	cmp	r3, #56	; 0x38
    8228:	dc00      	bgt.n	822c <__aeabi_dsub+0x1b4>
    822a:	e0fd      	b.n	8428 <__aeabi_dsub+0x3b0>
    822c:	430a      	orrs	r2, r1
    822e:	0017      	movs	r7, r2
    8230:	2100      	movs	r1, #0
    8232:	1e7a      	subs	r2, r7, #1
    8234:	4197      	sbcs	r7, r2
    8236:	4457      	add	r7, sl
    8238:	4557      	cmp	r7, sl
    823a:	4180      	sbcs	r0, r0
    823c:	1909      	adds	r1, r1, r4
    823e:	4244      	negs	r4, r0
    8240:	190c      	adds	r4, r1, r4
    8242:	0223      	lsls	r3, r4, #8
    8244:	d53a      	bpl.n	82bc <__aeabi_dsub+0x244>
    8246:	4b5d      	ldr	r3, [pc, #372]	; (83bc <__aeabi_dsub+0x344>)
    8248:	3601      	adds	r6, #1
    824a:	429e      	cmp	r6, r3
    824c:	d100      	bne.n	8250 <__aeabi_dsub+0x1d8>
    824e:	e14b      	b.n	84e8 <__aeabi_dsub+0x470>
    8250:	2201      	movs	r2, #1
    8252:	4b5b      	ldr	r3, [pc, #364]	; (83c0 <__aeabi_dsub+0x348>)
    8254:	401c      	ands	r4, r3
    8256:	087b      	lsrs	r3, r7, #1
    8258:	4017      	ands	r7, r2
    825a:	431f      	orrs	r7, r3
    825c:	07e2      	lsls	r2, r4, #31
    825e:	4317      	orrs	r7, r2
    8260:	0864      	lsrs	r4, r4, #1
    8262:	e78f      	b.n	8184 <__aeabi_dsub+0x10c>
    8264:	0008      	movs	r0, r1
    8266:	4310      	orrs	r0, r2
    8268:	d000      	beq.n	826c <__aeabi_dsub+0x1f4>
    826a:	e724      	b.n	80b6 <__aeabi_dsub+0x3e>
    826c:	e721      	b.n	80b2 <__aeabi_dsub+0x3a>
    826e:	0023      	movs	r3, r4
    8270:	433b      	orrs	r3, r7
    8272:	d100      	bne.n	8276 <__aeabi_dsub+0x1fe>
    8274:	e1b9      	b.n	85ea <__aeabi_dsub+0x572>
    8276:	2280      	movs	r2, #128	; 0x80
    8278:	0312      	lsls	r2, r2, #12
    827a:	4314      	orrs	r4, r2
    827c:	0324      	lsls	r4, r4, #12
    827e:	0b24      	lsrs	r4, r4, #12
    8280:	e79f      	b.n	81c2 <__aeabi_dsub+0x14a>
    8282:	002e      	movs	r6, r5
    8284:	e77e      	b.n	8184 <__aeabi_dsub+0x10c>
    8286:	0008      	movs	r0, r1
    8288:	4310      	orrs	r0, r2
    828a:	d100      	bne.n	828e <__aeabi_dsub+0x216>
    828c:	e0ca      	b.n	8424 <__aeabi_dsub+0x3ac>
    828e:	1e58      	subs	r0, r3, #1
    8290:	4684      	mov	ip, r0
    8292:	2800      	cmp	r0, #0
    8294:	d000      	beq.n	8298 <__aeabi_dsub+0x220>
    8296:	e0e7      	b.n	8468 <__aeabi_dsub+0x3f0>
    8298:	4452      	add	r2, sl
    829a:	4552      	cmp	r2, sl
    829c:	4180      	sbcs	r0, r0
    829e:	1864      	adds	r4, r4, r1
    82a0:	4240      	negs	r0, r0
    82a2:	1824      	adds	r4, r4, r0
    82a4:	0017      	movs	r7, r2
    82a6:	2601      	movs	r6, #1
    82a8:	0223      	lsls	r3, r4, #8
    82aa:	d507      	bpl.n	82bc <__aeabi_dsub+0x244>
    82ac:	2602      	movs	r6, #2
    82ae:	e7cf      	b.n	8250 <__aeabi_dsub+0x1d8>
    82b0:	4664      	mov	r4, ip
    82b2:	432c      	orrs	r4, r5
    82b4:	d100      	bne.n	82b8 <__aeabi_dsub+0x240>
    82b6:	e1b3      	b.n	8620 <__aeabi_dsub+0x5a8>
    82b8:	002c      	movs	r4, r5
    82ba:	4667      	mov	r7, ip
    82bc:	077b      	lsls	r3, r7, #29
    82be:	d000      	beq.n	82c2 <__aeabi_dsub+0x24a>
    82c0:	e762      	b.n	8188 <__aeabi_dsub+0x110>
    82c2:	0763      	lsls	r3, r4, #29
    82c4:	08ff      	lsrs	r7, r7, #3
    82c6:	431f      	orrs	r7, r3
    82c8:	2501      	movs	r5, #1
    82ca:	4643      	mov	r3, r8
    82cc:	08e4      	lsrs	r4, r4, #3
    82ce:	401d      	ands	r5, r3
    82d0:	e793      	b.n	81fa <__aeabi_dsub+0x182>
    82d2:	2d00      	cmp	r5, #0
    82d4:	d178      	bne.n	83c8 <__aeabi_dsub+0x350>
    82d6:	1c75      	adds	r5, r6, #1
    82d8:	056d      	lsls	r5, r5, #21
    82da:	0d6d      	lsrs	r5, r5, #21
    82dc:	2d01      	cmp	r5, #1
    82de:	dc00      	bgt.n	82e2 <__aeabi_dsub+0x26a>
    82e0:	e0f2      	b.n	84c8 <__aeabi_dsub+0x450>
    82e2:	4650      	mov	r0, sl
    82e4:	1a80      	subs	r0, r0, r2
    82e6:	4582      	cmp	sl, r0
    82e8:	41bf      	sbcs	r7, r7
    82ea:	1a65      	subs	r5, r4, r1
    82ec:	427f      	negs	r7, r7
    82ee:	1bed      	subs	r5, r5, r7
    82f0:	4684      	mov	ip, r0
    82f2:	0228      	lsls	r0, r5, #8
    82f4:	d400      	bmi.n	82f8 <__aeabi_dsub+0x280>
    82f6:	e08c      	b.n	8412 <__aeabi_dsub+0x39a>
    82f8:	4650      	mov	r0, sl
    82fa:	1a17      	subs	r7, r2, r0
    82fc:	42ba      	cmp	r2, r7
    82fe:	4192      	sbcs	r2, r2
    8300:	1b0c      	subs	r4, r1, r4
    8302:	4255      	negs	r5, r2
    8304:	1b65      	subs	r5, r4, r5
    8306:	4698      	mov	r8, r3
    8308:	e714      	b.n	8134 <__aeabi_dsub+0xbc>
    830a:	2501      	movs	r5, #1
    830c:	4643      	mov	r3, r8
    830e:	2400      	movs	r4, #0
    8310:	401d      	ands	r5, r3
    8312:	2700      	movs	r7, #0
    8314:	e755      	b.n	81c2 <__aeabi_dsub+0x14a>
    8316:	4c2a      	ldr	r4, [pc, #168]	; (83c0 <__aeabi_dsub+0x348>)
    8318:	1af6      	subs	r6, r6, r3
    831a:	402c      	ands	r4, r5
    831c:	e732      	b.n	8184 <__aeabi_dsub+0x10c>
    831e:	003d      	movs	r5, r7
    8320:	3828      	subs	r0, #40	; 0x28
    8322:	4085      	lsls	r5, r0
    8324:	2700      	movs	r7, #0
    8326:	e717      	b.n	8158 <__aeabi_dsub+0xe0>
    8328:	0038      	movs	r0, r7
    832a:	f7fa fcdb 	bl	2ce4 <__clzsi2>
    832e:	3020      	adds	r0, #32
    8330:	e706      	b.n	8140 <__aeabi_dsub+0xc8>
    8332:	430a      	orrs	r2, r1
    8334:	0017      	movs	r7, r2
    8336:	2100      	movs	r1, #0
    8338:	1e7a      	subs	r2, r7, #1
    833a:	4197      	sbcs	r7, r2
    833c:	e6ee      	b.n	811c <__aeabi_dsub+0xa4>
    833e:	2b00      	cmp	r3, #0
    8340:	d000      	beq.n	8344 <__aeabi_dsub+0x2cc>
    8342:	e0e5      	b.n	8510 <__aeabi_dsub+0x498>
    8344:	1c73      	adds	r3, r6, #1
    8346:	469c      	mov	ip, r3
    8348:	055b      	lsls	r3, r3, #21
    834a:	0d5b      	lsrs	r3, r3, #21
    834c:	2b01      	cmp	r3, #1
    834e:	dc00      	bgt.n	8352 <__aeabi_dsub+0x2da>
    8350:	e09f      	b.n	8492 <__aeabi_dsub+0x41a>
    8352:	4b1a      	ldr	r3, [pc, #104]	; (83bc <__aeabi_dsub+0x344>)
    8354:	459c      	cmp	ip, r3
    8356:	d100      	bne.n	835a <__aeabi_dsub+0x2e2>
    8358:	e0c5      	b.n	84e6 <__aeabi_dsub+0x46e>
    835a:	4452      	add	r2, sl
    835c:	4552      	cmp	r2, sl
    835e:	4180      	sbcs	r0, r0
    8360:	1864      	adds	r4, r4, r1
    8362:	4240      	negs	r0, r0
    8364:	1824      	adds	r4, r4, r0
    8366:	07e7      	lsls	r7, r4, #31
    8368:	0852      	lsrs	r2, r2, #1
    836a:	4317      	orrs	r7, r2
    836c:	0864      	lsrs	r4, r4, #1
    836e:	4666      	mov	r6, ip
    8370:	e708      	b.n	8184 <__aeabi_dsub+0x10c>
    8372:	4812      	ldr	r0, [pc, #72]	; (83bc <__aeabi_dsub+0x344>)
    8374:	4285      	cmp	r5, r0
    8376:	d100      	bne.n	837a <__aeabi_dsub+0x302>
    8378:	e085      	b.n	8486 <__aeabi_dsub+0x40e>
    837a:	001d      	movs	r5, r3
    837c:	e6bc      	b.n	80f8 <__aeabi_dsub+0x80>
    837e:	0029      	movs	r1, r5
    8380:	3e1f      	subs	r6, #31
    8382:	40f1      	lsrs	r1, r6
    8384:	2b20      	cmp	r3, #32
    8386:	d100      	bne.n	838a <__aeabi_dsub+0x312>
    8388:	e07f      	b.n	848a <__aeabi_dsub+0x412>
    838a:	2240      	movs	r2, #64	; 0x40
    838c:	1ad3      	subs	r3, r2, r3
    838e:	409d      	lsls	r5, r3
    8390:	432f      	orrs	r7, r5
    8392:	1e7d      	subs	r5, r7, #1
    8394:	41af      	sbcs	r7, r5
    8396:	2400      	movs	r4, #0
    8398:	430f      	orrs	r7, r1
    839a:	2600      	movs	r6, #0
    839c:	e78e      	b.n	82bc <__aeabi_dsub+0x244>
    839e:	002b      	movs	r3, r5
    83a0:	000f      	movs	r7, r1
    83a2:	3b20      	subs	r3, #32
    83a4:	40df      	lsrs	r7, r3
    83a6:	2d20      	cmp	r5, #32
    83a8:	d071      	beq.n	848e <__aeabi_dsub+0x416>
    83aa:	2340      	movs	r3, #64	; 0x40
    83ac:	1b5d      	subs	r5, r3, r5
    83ae:	40a9      	lsls	r1, r5
    83b0:	430a      	orrs	r2, r1
    83b2:	1e51      	subs	r1, r2, #1
    83b4:	418a      	sbcs	r2, r1
    83b6:	2100      	movs	r1, #0
    83b8:	4317      	orrs	r7, r2
    83ba:	e6af      	b.n	811c <__aeabi_dsub+0xa4>
    83bc:	000007ff 	.word	0x000007ff
    83c0:	ff7fffff 	.word	0xff7fffff
    83c4:	800fffff 	.word	0x800fffff
    83c8:	2e00      	cmp	r6, #0
    83ca:	d03e      	beq.n	844a <__aeabi_dsub+0x3d2>
    83cc:	4eb3      	ldr	r6, [pc, #716]	; (869c <__aeabi_dsub+0x624>)
    83ce:	45b4      	cmp	ip, r6
    83d0:	d045      	beq.n	845e <__aeabi_dsub+0x3e6>
    83d2:	2680      	movs	r6, #128	; 0x80
    83d4:	0436      	lsls	r6, r6, #16
    83d6:	426d      	negs	r5, r5
    83d8:	4334      	orrs	r4, r6
    83da:	2d38      	cmp	r5, #56	; 0x38
    83dc:	dd00      	ble.n	83e0 <__aeabi_dsub+0x368>
    83de:	e0a8      	b.n	8532 <__aeabi_dsub+0x4ba>
    83e0:	2d1f      	cmp	r5, #31
    83e2:	dd00      	ble.n	83e6 <__aeabi_dsub+0x36e>
    83e4:	e11f      	b.n	8626 <__aeabi_dsub+0x5ae>
    83e6:	2620      	movs	r6, #32
    83e8:	0027      	movs	r7, r4
    83ea:	4650      	mov	r0, sl
    83ec:	1b76      	subs	r6, r6, r5
    83ee:	40b7      	lsls	r7, r6
    83f0:	40e8      	lsrs	r0, r5
    83f2:	4307      	orrs	r7, r0
    83f4:	4650      	mov	r0, sl
    83f6:	40b0      	lsls	r0, r6
    83f8:	1e46      	subs	r6, r0, #1
    83fa:	41b0      	sbcs	r0, r6
    83fc:	40ec      	lsrs	r4, r5
    83fe:	4338      	orrs	r0, r7
    8400:	1a17      	subs	r7, r2, r0
    8402:	42ba      	cmp	r2, r7
    8404:	4192      	sbcs	r2, r2
    8406:	1b0c      	subs	r4, r1, r4
    8408:	4252      	negs	r2, r2
    840a:	1aa4      	subs	r4, r4, r2
    840c:	4666      	mov	r6, ip
    840e:	4698      	mov	r8, r3
    8410:	e68b      	b.n	812a <__aeabi_dsub+0xb2>
    8412:	4664      	mov	r4, ip
    8414:	4667      	mov	r7, ip
    8416:	432c      	orrs	r4, r5
    8418:	d000      	beq.n	841c <__aeabi_dsub+0x3a4>
    841a:	e68b      	b.n	8134 <__aeabi_dsub+0xbc>
    841c:	2500      	movs	r5, #0
    841e:	2600      	movs	r6, #0
    8420:	2700      	movs	r7, #0
    8422:	e6ea      	b.n	81fa <__aeabi_dsub+0x182>
    8424:	001e      	movs	r6, r3
    8426:	e6ad      	b.n	8184 <__aeabi_dsub+0x10c>
    8428:	2b1f      	cmp	r3, #31
    842a:	dc60      	bgt.n	84ee <__aeabi_dsub+0x476>
    842c:	2720      	movs	r7, #32
    842e:	1af8      	subs	r0, r7, r3
    8430:	000f      	movs	r7, r1
    8432:	4684      	mov	ip, r0
    8434:	4087      	lsls	r7, r0
    8436:	0010      	movs	r0, r2
    8438:	40d8      	lsrs	r0, r3
    843a:	4307      	orrs	r7, r0
    843c:	4660      	mov	r0, ip
    843e:	4082      	lsls	r2, r0
    8440:	1e50      	subs	r0, r2, #1
    8442:	4182      	sbcs	r2, r0
    8444:	40d9      	lsrs	r1, r3
    8446:	4317      	orrs	r7, r2
    8448:	e6f5      	b.n	8236 <__aeabi_dsub+0x1be>
    844a:	0026      	movs	r6, r4
    844c:	4650      	mov	r0, sl
    844e:	4306      	orrs	r6, r0
    8450:	d005      	beq.n	845e <__aeabi_dsub+0x3e6>
    8452:	43ed      	mvns	r5, r5
    8454:	2d00      	cmp	r5, #0
    8456:	d0d3      	beq.n	8400 <__aeabi_dsub+0x388>
    8458:	4e90      	ldr	r6, [pc, #576]	; (869c <__aeabi_dsub+0x624>)
    845a:	45b4      	cmp	ip, r6
    845c:	d1bd      	bne.n	83da <__aeabi_dsub+0x362>
    845e:	000c      	movs	r4, r1
    8460:	0017      	movs	r7, r2
    8462:	4666      	mov	r6, ip
    8464:	4698      	mov	r8, r3
    8466:	e68d      	b.n	8184 <__aeabi_dsub+0x10c>
    8468:	488c      	ldr	r0, [pc, #560]	; (869c <__aeabi_dsub+0x624>)
    846a:	4283      	cmp	r3, r0
    846c:	d00b      	beq.n	8486 <__aeabi_dsub+0x40e>
    846e:	4663      	mov	r3, ip
    8470:	e6d9      	b.n	8226 <__aeabi_dsub+0x1ae>
    8472:	2d00      	cmp	r5, #0
    8474:	d000      	beq.n	8478 <__aeabi_dsub+0x400>
    8476:	e096      	b.n	85a6 <__aeabi_dsub+0x52e>
    8478:	0008      	movs	r0, r1
    847a:	4310      	orrs	r0, r2
    847c:	d100      	bne.n	8480 <__aeabi_dsub+0x408>
    847e:	e0e2      	b.n	8646 <__aeabi_dsub+0x5ce>
    8480:	000c      	movs	r4, r1
    8482:	0017      	movs	r7, r2
    8484:	4698      	mov	r8, r3
    8486:	4e85      	ldr	r6, [pc, #532]	; (869c <__aeabi_dsub+0x624>)
    8488:	e67c      	b.n	8184 <__aeabi_dsub+0x10c>
    848a:	2500      	movs	r5, #0
    848c:	e780      	b.n	8390 <__aeabi_dsub+0x318>
    848e:	2100      	movs	r1, #0
    8490:	e78e      	b.n	83b0 <__aeabi_dsub+0x338>
    8492:	0023      	movs	r3, r4
    8494:	4650      	mov	r0, sl
    8496:	4303      	orrs	r3, r0
    8498:	2e00      	cmp	r6, #0
    849a:	d000      	beq.n	849e <__aeabi_dsub+0x426>
    849c:	e0a8      	b.n	85f0 <__aeabi_dsub+0x578>
    849e:	2b00      	cmp	r3, #0
    84a0:	d100      	bne.n	84a4 <__aeabi_dsub+0x42c>
    84a2:	e0de      	b.n	8662 <__aeabi_dsub+0x5ea>
    84a4:	000b      	movs	r3, r1
    84a6:	4313      	orrs	r3, r2
    84a8:	d100      	bne.n	84ac <__aeabi_dsub+0x434>
    84aa:	e66b      	b.n	8184 <__aeabi_dsub+0x10c>
    84ac:	4452      	add	r2, sl
    84ae:	4552      	cmp	r2, sl
    84b0:	4180      	sbcs	r0, r0
    84b2:	1864      	adds	r4, r4, r1
    84b4:	4240      	negs	r0, r0
    84b6:	1824      	adds	r4, r4, r0
    84b8:	0017      	movs	r7, r2
    84ba:	0223      	lsls	r3, r4, #8
    84bc:	d400      	bmi.n	84c0 <__aeabi_dsub+0x448>
    84be:	e6fd      	b.n	82bc <__aeabi_dsub+0x244>
    84c0:	4b77      	ldr	r3, [pc, #476]	; (86a0 <__aeabi_dsub+0x628>)
    84c2:	4666      	mov	r6, ip
    84c4:	401c      	ands	r4, r3
    84c6:	e65d      	b.n	8184 <__aeabi_dsub+0x10c>
    84c8:	0025      	movs	r5, r4
    84ca:	4650      	mov	r0, sl
    84cc:	4305      	orrs	r5, r0
    84ce:	2e00      	cmp	r6, #0
    84d0:	d1cf      	bne.n	8472 <__aeabi_dsub+0x3fa>
    84d2:	2d00      	cmp	r5, #0
    84d4:	d14f      	bne.n	8576 <__aeabi_dsub+0x4fe>
    84d6:	000c      	movs	r4, r1
    84d8:	4314      	orrs	r4, r2
    84da:	d100      	bne.n	84de <__aeabi_dsub+0x466>
    84dc:	e0a0      	b.n	8620 <__aeabi_dsub+0x5a8>
    84de:	000c      	movs	r4, r1
    84e0:	0017      	movs	r7, r2
    84e2:	4698      	mov	r8, r3
    84e4:	e64e      	b.n	8184 <__aeabi_dsub+0x10c>
    84e6:	4666      	mov	r6, ip
    84e8:	2400      	movs	r4, #0
    84ea:	2700      	movs	r7, #0
    84ec:	e685      	b.n	81fa <__aeabi_dsub+0x182>
    84ee:	001f      	movs	r7, r3
    84f0:	0008      	movs	r0, r1
    84f2:	3f20      	subs	r7, #32
    84f4:	40f8      	lsrs	r0, r7
    84f6:	0007      	movs	r7, r0
    84f8:	2b20      	cmp	r3, #32
    84fa:	d100      	bne.n	84fe <__aeabi_dsub+0x486>
    84fc:	e08e      	b.n	861c <__aeabi_dsub+0x5a4>
    84fe:	2040      	movs	r0, #64	; 0x40
    8500:	1ac3      	subs	r3, r0, r3
    8502:	4099      	lsls	r1, r3
    8504:	430a      	orrs	r2, r1
    8506:	1e51      	subs	r1, r2, #1
    8508:	418a      	sbcs	r2, r1
    850a:	2100      	movs	r1, #0
    850c:	4317      	orrs	r7, r2
    850e:	e692      	b.n	8236 <__aeabi_dsub+0x1be>
    8510:	2e00      	cmp	r6, #0
    8512:	d114      	bne.n	853e <__aeabi_dsub+0x4c6>
    8514:	0026      	movs	r6, r4
    8516:	4650      	mov	r0, sl
    8518:	4306      	orrs	r6, r0
    851a:	d062      	beq.n	85e2 <__aeabi_dsub+0x56a>
    851c:	43db      	mvns	r3, r3
    851e:	2b00      	cmp	r3, #0
    8520:	d15c      	bne.n	85dc <__aeabi_dsub+0x564>
    8522:	1887      	adds	r7, r0, r2
    8524:	4297      	cmp	r7, r2
    8526:	4192      	sbcs	r2, r2
    8528:	1864      	adds	r4, r4, r1
    852a:	4252      	negs	r2, r2
    852c:	18a4      	adds	r4, r4, r2
    852e:	4666      	mov	r6, ip
    8530:	e687      	b.n	8242 <__aeabi_dsub+0x1ca>
    8532:	4650      	mov	r0, sl
    8534:	4320      	orrs	r0, r4
    8536:	1e44      	subs	r4, r0, #1
    8538:	41a0      	sbcs	r0, r4
    853a:	2400      	movs	r4, #0
    853c:	e760      	b.n	8400 <__aeabi_dsub+0x388>
    853e:	4e57      	ldr	r6, [pc, #348]	; (869c <__aeabi_dsub+0x624>)
    8540:	45b4      	cmp	ip, r6
    8542:	d04e      	beq.n	85e2 <__aeabi_dsub+0x56a>
    8544:	2680      	movs	r6, #128	; 0x80
    8546:	0436      	lsls	r6, r6, #16
    8548:	425b      	negs	r3, r3
    854a:	4334      	orrs	r4, r6
    854c:	2b38      	cmp	r3, #56	; 0x38
    854e:	dd00      	ble.n	8552 <__aeabi_dsub+0x4da>
    8550:	e07f      	b.n	8652 <__aeabi_dsub+0x5da>
    8552:	2b1f      	cmp	r3, #31
    8554:	dd00      	ble.n	8558 <__aeabi_dsub+0x4e0>
    8556:	e08b      	b.n	8670 <__aeabi_dsub+0x5f8>
    8558:	2620      	movs	r6, #32
    855a:	0027      	movs	r7, r4
    855c:	4650      	mov	r0, sl
    855e:	1af6      	subs	r6, r6, r3
    8560:	40b7      	lsls	r7, r6
    8562:	40d8      	lsrs	r0, r3
    8564:	4307      	orrs	r7, r0
    8566:	4650      	mov	r0, sl
    8568:	40b0      	lsls	r0, r6
    856a:	1e46      	subs	r6, r0, #1
    856c:	41b0      	sbcs	r0, r6
    856e:	4307      	orrs	r7, r0
    8570:	40dc      	lsrs	r4, r3
    8572:	18bf      	adds	r7, r7, r2
    8574:	e7d6      	b.n	8524 <__aeabi_dsub+0x4ac>
    8576:	000d      	movs	r5, r1
    8578:	4315      	orrs	r5, r2
    857a:	d100      	bne.n	857e <__aeabi_dsub+0x506>
    857c:	e602      	b.n	8184 <__aeabi_dsub+0x10c>
    857e:	4650      	mov	r0, sl
    8580:	1a80      	subs	r0, r0, r2
    8582:	4582      	cmp	sl, r0
    8584:	41bf      	sbcs	r7, r7
    8586:	1a65      	subs	r5, r4, r1
    8588:	427f      	negs	r7, r7
    858a:	1bed      	subs	r5, r5, r7
    858c:	4684      	mov	ip, r0
    858e:	0228      	lsls	r0, r5, #8
    8590:	d400      	bmi.n	8594 <__aeabi_dsub+0x51c>
    8592:	e68d      	b.n	82b0 <__aeabi_dsub+0x238>
    8594:	4650      	mov	r0, sl
    8596:	1a17      	subs	r7, r2, r0
    8598:	42ba      	cmp	r2, r7
    859a:	4192      	sbcs	r2, r2
    859c:	1b0c      	subs	r4, r1, r4
    859e:	4252      	negs	r2, r2
    85a0:	1aa4      	subs	r4, r4, r2
    85a2:	4698      	mov	r8, r3
    85a4:	e5ee      	b.n	8184 <__aeabi_dsub+0x10c>
    85a6:	000d      	movs	r5, r1
    85a8:	4315      	orrs	r5, r2
    85aa:	d100      	bne.n	85ae <__aeabi_dsub+0x536>
    85ac:	e76b      	b.n	8486 <__aeabi_dsub+0x40e>
    85ae:	4650      	mov	r0, sl
    85b0:	0767      	lsls	r7, r4, #29
    85b2:	08c0      	lsrs	r0, r0, #3
    85b4:	4307      	orrs	r7, r0
    85b6:	2080      	movs	r0, #128	; 0x80
    85b8:	08e4      	lsrs	r4, r4, #3
    85ba:	0300      	lsls	r0, r0, #12
    85bc:	4204      	tst	r4, r0
    85be:	d007      	beq.n	85d0 <__aeabi_dsub+0x558>
    85c0:	08cd      	lsrs	r5, r1, #3
    85c2:	4205      	tst	r5, r0
    85c4:	d104      	bne.n	85d0 <__aeabi_dsub+0x558>
    85c6:	002c      	movs	r4, r5
    85c8:	4698      	mov	r8, r3
    85ca:	08d7      	lsrs	r7, r2, #3
    85cc:	0749      	lsls	r1, r1, #29
    85ce:	430f      	orrs	r7, r1
    85d0:	0f7b      	lsrs	r3, r7, #29
    85d2:	00e4      	lsls	r4, r4, #3
    85d4:	431c      	orrs	r4, r3
    85d6:	00ff      	lsls	r7, r7, #3
    85d8:	4e30      	ldr	r6, [pc, #192]	; (869c <__aeabi_dsub+0x624>)
    85da:	e5d3      	b.n	8184 <__aeabi_dsub+0x10c>
    85dc:	4e2f      	ldr	r6, [pc, #188]	; (869c <__aeabi_dsub+0x624>)
    85de:	45b4      	cmp	ip, r6
    85e0:	d1b4      	bne.n	854c <__aeabi_dsub+0x4d4>
    85e2:	000c      	movs	r4, r1
    85e4:	0017      	movs	r7, r2
    85e6:	4666      	mov	r6, ip
    85e8:	e5cc      	b.n	8184 <__aeabi_dsub+0x10c>
    85ea:	2700      	movs	r7, #0
    85ec:	2400      	movs	r4, #0
    85ee:	e5e8      	b.n	81c2 <__aeabi_dsub+0x14a>
    85f0:	2b00      	cmp	r3, #0
    85f2:	d039      	beq.n	8668 <__aeabi_dsub+0x5f0>
    85f4:	000b      	movs	r3, r1
    85f6:	4313      	orrs	r3, r2
    85f8:	d100      	bne.n	85fc <__aeabi_dsub+0x584>
    85fa:	e744      	b.n	8486 <__aeabi_dsub+0x40e>
    85fc:	08c0      	lsrs	r0, r0, #3
    85fe:	0767      	lsls	r7, r4, #29
    8600:	4307      	orrs	r7, r0
    8602:	2080      	movs	r0, #128	; 0x80
    8604:	08e4      	lsrs	r4, r4, #3
    8606:	0300      	lsls	r0, r0, #12
    8608:	4204      	tst	r4, r0
    860a:	d0e1      	beq.n	85d0 <__aeabi_dsub+0x558>
    860c:	08cb      	lsrs	r3, r1, #3
    860e:	4203      	tst	r3, r0
    8610:	d1de      	bne.n	85d0 <__aeabi_dsub+0x558>
    8612:	08d7      	lsrs	r7, r2, #3
    8614:	0749      	lsls	r1, r1, #29
    8616:	430f      	orrs	r7, r1
    8618:	001c      	movs	r4, r3
    861a:	e7d9      	b.n	85d0 <__aeabi_dsub+0x558>
    861c:	2100      	movs	r1, #0
    861e:	e771      	b.n	8504 <__aeabi_dsub+0x48c>
    8620:	2500      	movs	r5, #0
    8622:	2700      	movs	r7, #0
    8624:	e5e9      	b.n	81fa <__aeabi_dsub+0x182>
    8626:	002e      	movs	r6, r5
    8628:	0027      	movs	r7, r4
    862a:	3e20      	subs	r6, #32
    862c:	40f7      	lsrs	r7, r6
    862e:	2d20      	cmp	r5, #32
    8630:	d02f      	beq.n	8692 <__aeabi_dsub+0x61a>
    8632:	2640      	movs	r6, #64	; 0x40
    8634:	1b75      	subs	r5, r6, r5
    8636:	40ac      	lsls	r4, r5
    8638:	4650      	mov	r0, sl
    863a:	4320      	orrs	r0, r4
    863c:	1e44      	subs	r4, r0, #1
    863e:	41a0      	sbcs	r0, r4
    8640:	2400      	movs	r4, #0
    8642:	4338      	orrs	r0, r7
    8644:	e6dc      	b.n	8400 <__aeabi_dsub+0x388>
    8646:	2480      	movs	r4, #128	; 0x80
    8648:	2500      	movs	r5, #0
    864a:	0324      	lsls	r4, r4, #12
    864c:	4e13      	ldr	r6, [pc, #76]	; (869c <__aeabi_dsub+0x624>)
    864e:	2700      	movs	r7, #0
    8650:	e5d3      	b.n	81fa <__aeabi_dsub+0x182>
    8652:	4650      	mov	r0, sl
    8654:	4320      	orrs	r0, r4
    8656:	0007      	movs	r7, r0
    8658:	1e78      	subs	r0, r7, #1
    865a:	4187      	sbcs	r7, r0
    865c:	2400      	movs	r4, #0
    865e:	18bf      	adds	r7, r7, r2
    8660:	e760      	b.n	8524 <__aeabi_dsub+0x4ac>
    8662:	000c      	movs	r4, r1
    8664:	0017      	movs	r7, r2
    8666:	e58d      	b.n	8184 <__aeabi_dsub+0x10c>
    8668:	000c      	movs	r4, r1
    866a:	0017      	movs	r7, r2
    866c:	4e0b      	ldr	r6, [pc, #44]	; (869c <__aeabi_dsub+0x624>)
    866e:	e589      	b.n	8184 <__aeabi_dsub+0x10c>
    8670:	001e      	movs	r6, r3
    8672:	0027      	movs	r7, r4
    8674:	3e20      	subs	r6, #32
    8676:	40f7      	lsrs	r7, r6
    8678:	2b20      	cmp	r3, #32
    867a:	d00c      	beq.n	8696 <__aeabi_dsub+0x61e>
    867c:	2640      	movs	r6, #64	; 0x40
    867e:	1af3      	subs	r3, r6, r3
    8680:	409c      	lsls	r4, r3
    8682:	4650      	mov	r0, sl
    8684:	4320      	orrs	r0, r4
    8686:	1e44      	subs	r4, r0, #1
    8688:	41a0      	sbcs	r0, r4
    868a:	4307      	orrs	r7, r0
    868c:	2400      	movs	r4, #0
    868e:	18bf      	adds	r7, r7, r2
    8690:	e748      	b.n	8524 <__aeabi_dsub+0x4ac>
    8692:	2400      	movs	r4, #0
    8694:	e7d0      	b.n	8638 <__aeabi_dsub+0x5c0>
    8696:	2400      	movs	r4, #0
    8698:	e7f3      	b.n	8682 <__aeabi_dsub+0x60a>
    869a:	46c0      	nop			; (mov r8, r8)
    869c:	000007ff 	.word	0x000007ff
    86a0:	ff7fffff 	.word	0xff7fffff

000086a4 <__aeabi_dcmpun>:
    86a4:	b570      	push	{r4, r5, r6, lr}
    86a6:	4e0e      	ldr	r6, [pc, #56]	; (86e0 <__aeabi_dcmpun+0x3c>)
    86a8:	030d      	lsls	r5, r1, #12
    86aa:	031c      	lsls	r4, r3, #12
    86ac:	0049      	lsls	r1, r1, #1
    86ae:	005b      	lsls	r3, r3, #1
    86b0:	0b2d      	lsrs	r5, r5, #12
    86b2:	0d49      	lsrs	r1, r1, #21
    86b4:	0b24      	lsrs	r4, r4, #12
    86b6:	0d5b      	lsrs	r3, r3, #21
    86b8:	42b1      	cmp	r1, r6
    86ba:	d004      	beq.n	86c6 <__aeabi_dcmpun+0x22>
    86bc:	4908      	ldr	r1, [pc, #32]	; (86e0 <__aeabi_dcmpun+0x3c>)
    86be:	2000      	movs	r0, #0
    86c0:	428b      	cmp	r3, r1
    86c2:	d008      	beq.n	86d6 <__aeabi_dcmpun+0x32>
    86c4:	bd70      	pop	{r4, r5, r6, pc}
    86c6:	4305      	orrs	r5, r0
    86c8:	2001      	movs	r0, #1
    86ca:	2d00      	cmp	r5, #0
    86cc:	d1fa      	bne.n	86c4 <__aeabi_dcmpun+0x20>
    86ce:	4904      	ldr	r1, [pc, #16]	; (86e0 <__aeabi_dcmpun+0x3c>)
    86d0:	2000      	movs	r0, #0
    86d2:	428b      	cmp	r3, r1
    86d4:	d1f6      	bne.n	86c4 <__aeabi_dcmpun+0x20>
    86d6:	4314      	orrs	r4, r2
    86d8:	0020      	movs	r0, r4
    86da:	1e44      	subs	r4, r0, #1
    86dc:	41a0      	sbcs	r0, r4
    86de:	e7f1      	b.n	86c4 <__aeabi_dcmpun+0x20>
    86e0:	000007ff 	.word	0x000007ff

000086e4 <__aeabi_d2iz>:
    86e4:	b530      	push	{r4, r5, lr}
    86e6:	4d13      	ldr	r5, [pc, #76]	; (8734 <__aeabi_d2iz+0x50>)
    86e8:	030a      	lsls	r2, r1, #12
    86ea:	004b      	lsls	r3, r1, #1
    86ec:	0b12      	lsrs	r2, r2, #12
    86ee:	0d5b      	lsrs	r3, r3, #21
    86f0:	0fc9      	lsrs	r1, r1, #31
    86f2:	2400      	movs	r4, #0
    86f4:	42ab      	cmp	r3, r5
    86f6:	dd10      	ble.n	871a <__aeabi_d2iz+0x36>
    86f8:	4c0f      	ldr	r4, [pc, #60]	; (8738 <__aeabi_d2iz+0x54>)
    86fa:	42a3      	cmp	r3, r4
    86fc:	dc0f      	bgt.n	871e <__aeabi_d2iz+0x3a>
    86fe:	2480      	movs	r4, #128	; 0x80
    8700:	4d0e      	ldr	r5, [pc, #56]	; (873c <__aeabi_d2iz+0x58>)
    8702:	0364      	lsls	r4, r4, #13
    8704:	4322      	orrs	r2, r4
    8706:	1aed      	subs	r5, r5, r3
    8708:	2d1f      	cmp	r5, #31
    870a:	dd0b      	ble.n	8724 <__aeabi_d2iz+0x40>
    870c:	480c      	ldr	r0, [pc, #48]	; (8740 <__aeabi_d2iz+0x5c>)
    870e:	1ac3      	subs	r3, r0, r3
    8710:	40da      	lsrs	r2, r3
    8712:	4254      	negs	r4, r2
    8714:	2900      	cmp	r1, #0
    8716:	d100      	bne.n	871a <__aeabi_d2iz+0x36>
    8718:	0014      	movs	r4, r2
    871a:	0020      	movs	r0, r4
    871c:	bd30      	pop	{r4, r5, pc}
    871e:	4b09      	ldr	r3, [pc, #36]	; (8744 <__aeabi_d2iz+0x60>)
    8720:	18cc      	adds	r4, r1, r3
    8722:	e7fa      	b.n	871a <__aeabi_d2iz+0x36>
    8724:	4c08      	ldr	r4, [pc, #32]	; (8748 <__aeabi_d2iz+0x64>)
    8726:	40e8      	lsrs	r0, r5
    8728:	46a4      	mov	ip, r4
    872a:	4463      	add	r3, ip
    872c:	409a      	lsls	r2, r3
    872e:	4302      	orrs	r2, r0
    8730:	e7ef      	b.n	8712 <__aeabi_d2iz+0x2e>
    8732:	46c0      	nop			; (mov r8, r8)
    8734:	000003fe 	.word	0x000003fe
    8738:	0000041d 	.word	0x0000041d
    873c:	00000433 	.word	0x00000433
    8740:	00000413 	.word	0x00000413
    8744:	7fffffff 	.word	0x7fffffff
    8748:	fffffbed 	.word	0xfffffbed

0000874c <__aeabi_i2d>:
    874c:	b570      	push	{r4, r5, r6, lr}
    874e:	2800      	cmp	r0, #0
    8750:	d030      	beq.n	87b4 <__aeabi_i2d+0x68>
    8752:	17c3      	asrs	r3, r0, #31
    8754:	18c4      	adds	r4, r0, r3
    8756:	405c      	eors	r4, r3
    8758:	0fc5      	lsrs	r5, r0, #31
    875a:	0020      	movs	r0, r4
    875c:	f7fa fac2 	bl	2ce4 <__clzsi2>
    8760:	4b17      	ldr	r3, [pc, #92]	; (87c0 <__aeabi_i2d+0x74>)
    8762:	4a18      	ldr	r2, [pc, #96]	; (87c4 <__aeabi_i2d+0x78>)
    8764:	1a1b      	subs	r3, r3, r0
    8766:	1ad2      	subs	r2, r2, r3
    8768:	2a1f      	cmp	r2, #31
    876a:	dd18      	ble.n	879e <__aeabi_i2d+0x52>
    876c:	4a16      	ldr	r2, [pc, #88]	; (87c8 <__aeabi_i2d+0x7c>)
    876e:	1ad2      	subs	r2, r2, r3
    8770:	4094      	lsls	r4, r2
    8772:	2200      	movs	r2, #0
    8774:	0324      	lsls	r4, r4, #12
    8776:	055b      	lsls	r3, r3, #21
    8778:	0b24      	lsrs	r4, r4, #12
    877a:	0d5b      	lsrs	r3, r3, #21
    877c:	2100      	movs	r1, #0
    877e:	0010      	movs	r0, r2
    8780:	0324      	lsls	r4, r4, #12
    8782:	0d0a      	lsrs	r2, r1, #20
    8784:	0b24      	lsrs	r4, r4, #12
    8786:	0512      	lsls	r2, r2, #20
    8788:	4322      	orrs	r2, r4
    878a:	4c10      	ldr	r4, [pc, #64]	; (87cc <__aeabi_i2d+0x80>)
    878c:	051b      	lsls	r3, r3, #20
    878e:	4022      	ands	r2, r4
    8790:	4313      	orrs	r3, r2
    8792:	005b      	lsls	r3, r3, #1
    8794:	07ed      	lsls	r5, r5, #31
    8796:	085b      	lsrs	r3, r3, #1
    8798:	432b      	orrs	r3, r5
    879a:	0019      	movs	r1, r3
    879c:	bd70      	pop	{r4, r5, r6, pc}
    879e:	0021      	movs	r1, r4
    87a0:	4091      	lsls	r1, r2
    87a2:	000a      	movs	r2, r1
    87a4:	210b      	movs	r1, #11
    87a6:	1a08      	subs	r0, r1, r0
    87a8:	40c4      	lsrs	r4, r0
    87aa:	055b      	lsls	r3, r3, #21
    87ac:	0324      	lsls	r4, r4, #12
    87ae:	0b24      	lsrs	r4, r4, #12
    87b0:	0d5b      	lsrs	r3, r3, #21
    87b2:	e7e3      	b.n	877c <__aeabi_i2d+0x30>
    87b4:	2500      	movs	r5, #0
    87b6:	2300      	movs	r3, #0
    87b8:	2400      	movs	r4, #0
    87ba:	2200      	movs	r2, #0
    87bc:	e7de      	b.n	877c <__aeabi_i2d+0x30>
    87be:	46c0      	nop			; (mov r8, r8)
    87c0:	0000041e 	.word	0x0000041e
    87c4:	00000433 	.word	0x00000433
    87c8:	00000413 	.word	0x00000413
    87cc:	800fffff 	.word	0x800fffff

000087d0 <__aeabi_ui2d>:
    87d0:	b510      	push	{r4, lr}
    87d2:	1e04      	subs	r4, r0, #0
    87d4:	d028      	beq.n	8828 <__aeabi_ui2d+0x58>
    87d6:	f7fa fa85 	bl	2ce4 <__clzsi2>
    87da:	4b15      	ldr	r3, [pc, #84]	; (8830 <__aeabi_ui2d+0x60>)
    87dc:	4a15      	ldr	r2, [pc, #84]	; (8834 <__aeabi_ui2d+0x64>)
    87de:	1a1b      	subs	r3, r3, r0
    87e0:	1ad2      	subs	r2, r2, r3
    87e2:	2a1f      	cmp	r2, #31
    87e4:	dd15      	ble.n	8812 <__aeabi_ui2d+0x42>
    87e6:	4a14      	ldr	r2, [pc, #80]	; (8838 <__aeabi_ui2d+0x68>)
    87e8:	1ad2      	subs	r2, r2, r3
    87ea:	4094      	lsls	r4, r2
    87ec:	2200      	movs	r2, #0
    87ee:	0324      	lsls	r4, r4, #12
    87f0:	055b      	lsls	r3, r3, #21
    87f2:	0b24      	lsrs	r4, r4, #12
    87f4:	0d5b      	lsrs	r3, r3, #21
    87f6:	2100      	movs	r1, #0
    87f8:	0010      	movs	r0, r2
    87fa:	0324      	lsls	r4, r4, #12
    87fc:	0d0a      	lsrs	r2, r1, #20
    87fe:	0b24      	lsrs	r4, r4, #12
    8800:	0512      	lsls	r2, r2, #20
    8802:	4322      	orrs	r2, r4
    8804:	4c0d      	ldr	r4, [pc, #52]	; (883c <__aeabi_ui2d+0x6c>)
    8806:	051b      	lsls	r3, r3, #20
    8808:	4022      	ands	r2, r4
    880a:	4313      	orrs	r3, r2
    880c:	005b      	lsls	r3, r3, #1
    880e:	0859      	lsrs	r1, r3, #1
    8810:	bd10      	pop	{r4, pc}
    8812:	0021      	movs	r1, r4
    8814:	4091      	lsls	r1, r2
    8816:	000a      	movs	r2, r1
    8818:	210b      	movs	r1, #11
    881a:	1a08      	subs	r0, r1, r0
    881c:	40c4      	lsrs	r4, r0
    881e:	055b      	lsls	r3, r3, #21
    8820:	0324      	lsls	r4, r4, #12
    8822:	0b24      	lsrs	r4, r4, #12
    8824:	0d5b      	lsrs	r3, r3, #21
    8826:	e7e6      	b.n	87f6 <__aeabi_ui2d+0x26>
    8828:	2300      	movs	r3, #0
    882a:	2400      	movs	r4, #0
    882c:	2200      	movs	r2, #0
    882e:	e7e2      	b.n	87f6 <__aeabi_ui2d+0x26>
    8830:	0000041e 	.word	0x0000041e
    8834:	00000433 	.word	0x00000433
    8838:	00000413 	.word	0x00000413
    883c:	800fffff 	.word	0x800fffff
    8840:	54524155 	.word	0x54524155
    8844:	696e4920 	.word	0x696e4920
    8848:	6c616974 	.word	0x6c616974
    884c:	64657a69 	.word	0x64657a69
    8850:	63757320 	.word	0x63757320
    8854:	73736563 	.word	0x73736563
    8858:	6c6c7566 	.word	0x6c6c7566
    885c:	74612079 	.word	0x74612079
    8860:	30363920 	.word	0x30363920
    8864:	61622030 	.word	0x61622030
    8868:	0d2e6475 	.word	0x0d2e6475
    886c:	0000000a 	.word	0x0000000a
    8870:	20434441 	.word	0x20434441
    8874:	74696e49 	.word	0x74696e49
    8878:	696c6169 	.word	0x696c6169
    887c:	2064657a 	.word	0x2064657a
    8880:	63637573 	.word	0x63637573
    8884:	66737365 	.word	0x66737365
    8888:	796c6c75 	.word	0x796c6c75
    888c:	000a0d2e 	.word	0x000a0d2e
    8890:	736c7550 	.word	0x736c7550
    8894:	00203a65 	.word	0x00203a65
    8898:	00000020 	.word	0x00000020
    889c:	656d6954 	.word	0x656d6954
    88a0:	6d617473 	.word	0x6d617473
    88a4:	25203a70 	.word	0x25203a70
    88a8:	3a643230 	.word	0x3a643230
    88ac:	64323025 	.word	0x64323025
    88b0:	3230253a 	.word	0x3230253a
    88b4:	000a0d64 	.word	0x000a0d64
    88b8:	326f5053 	.word	0x326f5053
    88bc:	0000203a 	.word	0x0000203a
    88c0:	62616e45 	.word	0x62616e45
    88c4:	676e696c 	.word	0x676e696c
    88c8:	43545220 	.word	0x43545220
    88cc:	206e6920 	.word	0x206e6920
    88d0:	65776f50 	.word	0x65776f50
    88d4:	614d2072 	.word	0x614d2072
    88d8:	6567616e 	.word	0x6567616e
    88dc:	2e2e2e72 	.word	0x2e2e2e72
    88e0:	00000a0d 	.word	0x00000a0d
    88e4:	666e6f43 	.word	0x666e6f43
    88e8:	72756769 	.word	0x72756769
    88ec:	20676e69 	.word	0x20676e69
    88f0:	4b4c4347 	.word	0x4b4c4347
    88f4:	6f742033 	.word	0x6f742033
    88f8:	65737520 	.word	0x65737520
    88fc:	43534f20 	.word	0x43534f20
    8900:	33504c55 	.word	0x33504c55
    8904:	61204b32 	.word	0x61204b32
    8908:	7220646e 	.word	0x7220646e
    890c:	6574756f 	.word	0x6574756f
    8910:	206f7420 	.word	0x206f7420
    8914:	2e435452 	.word	0x2e435452
    8918:	0a0d2e2e 	.word	0x0a0d2e2e
    891c:	00000000 	.word	0x00000000
    8920:	65736552 	.word	0x65736552
    8924:	6e697474 	.word	0x6e697474
    8928:	54522067 	.word	0x54522067
    892c:	65622043 	.word	0x65622043
    8930:	65726f66 	.word	0x65726f66
    8934:	6e6f6320 	.word	0x6e6f6320
    8938:	75676966 	.word	0x75676966
    893c:	69746172 	.word	0x69746172
    8940:	2e2e6e6f 	.word	0x2e2e6e6f
    8944:	000a0d2e 	.word	0x000a0d2e
    8948:	74696157 	.word	0x74696157
    894c:	20676e69 	.word	0x20676e69
    8950:	20726f66 	.word	0x20726f66
    8954:	20435452 	.word	0x20435452
    8958:	65736572 	.word	0x65736572
    895c:	79732074 	.word	0x79732074
    8960:	7268636e 	.word	0x7268636e
    8964:	7a696e6f 	.word	0x7a696e6f
    8968:	6f697461 	.word	0x6f697461
    896c:	2e2e2e6e 	.word	0x2e2e2e6e
    8970:	00000a0d 	.word	0x00000a0d
    8974:	61736944 	.word	0x61736944
    8978:	6e696c62 	.word	0x6e696c62
    897c:	54522067 	.word	0x54522067
    8980:	65622043 	.word	0x65622043
    8984:	65726f66 	.word	0x65726f66
    8988:	6e6f6320 	.word	0x6e6f6320
    898c:	75676966 	.word	0x75676966
    8990:	69746172 	.word	0x69746172
    8994:	2e2e6e6f 	.word	0x2e2e6e6f
    8998:	000a0d2e 	.word	0x000a0d2e
    899c:	74696157 	.word	0x74696157
    89a0:	20676e69 	.word	0x20676e69
    89a4:	20726f66 	.word	0x20726f66
    89a8:	20435452 	.word	0x20435452
    89ac:	61736964 	.word	0x61736964
    89b0:	20656c62 	.word	0x20656c62
    89b4:	636e7973 	.word	0x636e7973
    89b8:	6e6f7268 	.word	0x6e6f7268
    89bc:	74617a69 	.word	0x74617a69
    89c0:	2e6e6f69 	.word	0x2e6e6f69
    89c4:	0a0d2e2e 	.word	0x0a0d2e2e
    89c8:	00000000 	.word	0x00000000
    89cc:	666e6f43 	.word	0x666e6f43
    89d0:	72756769 	.word	0x72756769
    89d4:	20676e69 	.word	0x20676e69
    89d8:	20435452 	.word	0x20435452
    89dc:	65646f6d 	.word	0x65646f6d
    89e0:	206f7420 	.word	0x206f7420
    89e4:	656c6143 	.word	0x656c6143
    89e8:	7261646e 	.word	0x7261646e
    89ec:	74697720 	.word	0x74697720
    89f0:	2d312068 	.word	0x2d312068
    89f4:	6f636573 	.word	0x6f636573
    89f8:	6920646e 	.word	0x6920646e
    89fc:	6572636e 	.word	0x6572636e
    8a00:	746e656d 	.word	0x746e656d
    8a04:	2e2e2e73 	.word	0x2e2e2e73
    8a08:	00000a0d 	.word	0x00000a0d
    8a0c:	74696157 	.word	0x74696157
    8a10:	20676e69 	.word	0x20676e69
    8a14:	20726f66 	.word	0x20726f66
    8a18:	20435452 	.word	0x20435452
    8a1c:	65646f6d 	.word	0x65646f6d
    8a20:	6e6f6320 	.word	0x6e6f6320
    8a24:	75676966 	.word	0x75676966
    8a28:	69746172 	.word	0x69746172
    8a2c:	73206e6f 	.word	0x73206e6f
    8a30:	68636e79 	.word	0x68636e79
    8a34:	696e6f72 	.word	0x696e6f72
    8a38:	6974617a 	.word	0x6974617a
    8a3c:	2e2e6e6f 	.word	0x2e2e6e6f
    8a40:	000a0d2e 	.word	0x000a0d2e
    8a44:	74746553 	.word	0x74746553
    8a48:	20676e69 	.word	0x20676e69
    8a4c:	74696e69 	.word	0x74696e69
    8a50:	206c6169 	.word	0x206c6169
    8a54:	656d6974 	.word	0x656d6974
    8a58:	646e6120 	.word	0x646e6120
    8a5c:	74616420 	.word	0x74616420
    8a60:	2e2e2e65 	.word	0x2e2e2e65
    8a64:	00000a0d 	.word	0x00000a0d
    8a68:	6f727245 	.word	0x6f727245
    8a6c:	52203a72 	.word	0x52203a72
    8a70:	74204354 	.word	0x74204354
    8a74:	2f656d69 	.word	0x2f656d69
    8a78:	65746164 	.word	0x65746164
    8a7c:	74657320 	.word	0x74657320
    8a80:	6d697420 	.word	0x6d697420
    8a84:	74756f65 	.word	0x74756f65
    8a88:	00000a0d 	.word	0x00000a0d
    8a8c:	74696e49 	.word	0x74696e49
    8a90:	206c6169 	.word	0x206c6169
    8a94:	656d6954 	.word	0x656d6954
    8a98:	646e6120 	.word	0x646e6120
    8a9c:	74614420 	.word	0x74614420
    8aa0:	65732065 	.word	0x65732065
    8aa4:	75732074 	.word	0x75732074
    8aa8:	73656363 	.word	0x73656363
    8aac:	6c756673 	.word	0x6c756673
    8ab0:	0a0d796c 	.word	0x0a0d796c
    8ab4:	00000000 	.word	0x00000000
    8ab8:	62616e45 	.word	0x62616e45
    8abc:	676e696c 	.word	0x676e696c
    8ac0:	43545220 	.word	0x43545220
    8ac4:	74666120 	.word	0x74666120
    8ac8:	63207265 	.word	0x63207265
    8acc:	69666e6f 	.word	0x69666e6f
    8ad0:	61727567 	.word	0x61727567
    8ad4:	6e6f6974 	.word	0x6e6f6974
    8ad8:	0d2e2e2e 	.word	0x0d2e2e2e
    8adc:	0000000a 	.word	0x0000000a
    8ae0:	74696157 	.word	0x74696157
    8ae4:	20676e69 	.word	0x20676e69
    8ae8:	20726f66 	.word	0x20726f66
    8aec:	20435452 	.word	0x20435452
    8af0:	62616e65 	.word	0x62616e65
    8af4:	7320656c 	.word	0x7320656c
    8af8:	68636e79 	.word	0x68636e79
    8afc:	696e6f72 	.word	0x696e6f72
    8b00:	6974617a 	.word	0x6974617a
    8b04:	2e2e6e6f 	.word	0x2e2e6e6f
    8b08:	000a0d2e 	.word	0x000a0d2e
    8b0c:	20435452 	.word	0x20435452
    8b10:	62616e65 	.word	0x62616e65
    8b14:	2064656c 	.word	0x2064656c
    8b18:	69616761 	.word	0x69616761
    8b1c:	000a0d6e 	.word	0x000a0d6e

00008b20 <_global_impure_ptr>:
    8b20:	20000008 0000349c 00003510 00003510     ... .4...5...5..
    8b30:	00003480 00003510 00003510 00003510     .4...5...5...5..
    8b40:	00003510 00003510 00003510 00003488     .5...5...5...4..
    8b50:	00002f6a 00003510 00002f24 00002f74     j/...5..$/..t/..
    8b60:	00003510 00002fc0 000031aa 000031aa     .5.../...1...1..
    8b70:	000031aa 000031aa 000031aa 000031aa     .1...1...1...1..
    8b80:	000031aa 000031aa 000031aa 00003510     .1...1...1...5..
    8b90:	00003510 00003510 00003510 00003510     .5...5...5...5..
    8ba0:	00003510 00003510 00003510 00003510     .5...5...5...5..
    8bb0:	00003510 00002fc8 00003110 00003510     .5.../...1...5..
    8bc0:	00003110 00003510 00003510 00003510     .1...5...5...5..
    8bd0:	00003510 000031da 00003510 00003510     .5...1...5...5..
    8be0:	000031e2 00003510 00003510 00003510     .1...5...5...5..
    8bf0:	00003510 00003510 00003284 00003510     .5...5...2...5..
    8c00:	00003510 000032b6 00003510 00003510     .5...2...5...5..
    8c10:	00003510 00003510 00003510 00003510     .5...5...5...5..
    8c20:	00003510 00003510 00003510 00003510     .5...5...5...5..
    8c30:	000033b0 000033e4 00003110 00003110     .3...3...1...1..
    8c40:	00003110 000033f6 000033e4 00003510     .1...3...3...5..
    8c50:	00003510 000033fe 00003510 00003318     .5...3...5...3..
    8c60:	000034de 00003454 0000334e 00003510     .4..T4..N3...5..
    8c70:	00003356 00003510 000034ac 00003510     V3...5...4...5..
    8c80:	00003510 0000340e 00464e49 00666e69     .5...4..INF.inf.
    8c90:	004e414e 006e616e 33323130 37363534     NAN.nan.01234567
    8ca0:	42413938 46454443 00000000 33323130     89ABCDEF....0123
    8cb0:	37363534 62613938 66656463 00000000     456789abcdef....
    8cc0:	6c756e28 0000296c 00000030              (null)..0...

00008ccc <blanks.7223>:
    8ccc:	20202020 20202020 20202020 20202020                     

00008cdc <zeroes.7224>:
    8cdc:	30303030 30303030 30303030 30303030     0000000000000000
    8cec:	69666e49 7974696e 00000000 004e614e     Infinity....NaN.
    8cfc:	00000000                                ....

00008d00 <__mprec_bigtens>:
    8d00:	37e08000 4341c379 b5056e17 4693b8b5     ...7y.AC.n.....F
    8d10:	e93ff9f5 4d384f03 f9301d32 5a827748     ..?..O8M2.0.Hw.Z
    8d20:	7f73bf3c 75154fdd                       <.s..O.u

00008d28 <__mprec_tens>:
    8d28:	00000000 3ff00000 00000000 40240000     .......?......$@
    8d38:	00000000 40590000 00000000 408f4000     ......Y@.....@.@
    8d48:	00000000 40c38800 00000000 40f86a00     .......@.....j.@
    8d58:	00000000 412e8480 00000000 416312d0     .......A......cA
    8d68:	00000000 4197d784 00000000 41cdcd65     .......A....e..A
    8d78:	20000000 4202a05f e8000000 42374876     ... _..B....vH7B
    8d88:	a2000000 426d1a94 e5400000 42a2309c     ......mB..@..0.B
    8d98:	1e900000 42d6bcc4 26340000 430c6bf5     .......B..4&.k.C
    8da8:	37e08000 4341c379 85d8a000 43763457     ...7y.AC....W4vC
    8db8:	674ec800 43abc16d 60913d00 43e158e4     ..Ngm..C.=.`.X.C
    8dc8:	78b58c40 4415af1d d6e2ef50 444b1ae4     @..x...DP.....KD
    8dd8:	064dd592 4480f0cf c7e14af6 44b52d02     ..M....D.J...-.D
    8de8:	79d99db4 44ea7843                       ...yCx.D

00008df0 <p05.6055>:
    8df0:	00000005 00000019 0000007d 00000043     ........}...C...
    8e00:	49534f50 00000058 0000002e              POSIX.......

00008e0c <_ctype_>:
    8e0c:	20202000 20202020 28282020 20282828     .         ((((( 
    8e1c:	20202020 20202020 20202020 20202020                     
    8e2c:	10108820 10101010 10101010 10101010      ...............
    8e3c:	04040410 04040404 10040404 10101010     ................
    8e4c:	41411010 41414141 01010101 01010101     ..AAAAAA........
    8e5c:	01010101 01010101 01010101 10101010     ................
    8e6c:	42421010 42424242 02020202 02020202     ..BBBBBB........
    8e7c:	02020202 02020202 02020202 10101010     ................
    8e8c:	00000020 00000000 00000000 00000000      ...............
	...
    8f10:	00007508 000074ea 000074a4 000073c2     .u...t...t...s..
    8f20:	000074a4 000074dc 000074a4 000073c2     .t...t...t...s..
    8f30:	000074ea 000074ea 000074dc 000073c2     .t...t...t...s..
    8f40:	000073ba 000073ba 000073ba 00007720     .s...s...s.. w..
    8f50:	00007d68 00007c28 00007c28 00007c24     h}..(|..(|..$|..
    8f60:	00007d40 00007d40 00007d32 00007c24     @}..@}..2}..$|..
    8f70:	00007d40 00007d32 00007d40 00007c24     @}..2}..@}..$|..
    8f80:	00007d48 00007d48 00007d48 00007f4c     H}..H}..H}..L...

00008f90 <_init>:
    8f90:	b5f8      	push	{r3, r4, r5, r6, r7, lr}
    8f92:	46c0      	nop			; (mov r8, r8)
    8f94:	bcf8      	pop	{r3, r4, r5, r6, r7}
    8f96:	bc08      	pop	{r3}
    8f98:	469e      	mov	lr, r3
    8f9a:	4770      	bx	lr

00008f9c <__init_array_start>:
    8f9c:	00004449 	.word	0x00004449

00008fa0 <__frame_dummy_init_array_entry>:
    8fa0:	000020dd                                . ..

00008fa4 <_fini>:
    8fa4:	b5f8      	push	{r3, r4, r5, r6, r7, lr}
    8fa6:	46c0      	nop			; (mov r8, r8)
    8fa8:	bcf8      	pop	{r3, r4, r5, r6, r7}
    8faa:	bc08      	pop	{r3}
    8fac:	469e      	mov	lr, r3
    8fae:	4770      	bx	lr

00008fb0 <__fini_array_start>:
    8fb0:	000020b5 	.word	0x000020b5
